ARM GAS  /tmp/cckw6yuv.s 			page 1


   1              		.syntax unified
   2              		.cpu cortex-m3
   3              		.fpu softvfp
   4              		.eabi_attribute 20, 1
   5              		.eabi_attribute 21, 1
   6              		.eabi_attribute 23, 3
   7              		.eabi_attribute 24, 1
   8              		.eabi_attribute 25, 1
   9              		.eabi_attribute 26, 1
  10              		.eabi_attribute 30, 2
  11              		.eabi_attribute 34, 1
  12              		.eabi_attribute 18, 4
  13              		.thumb
  14              		.file	"chmemcore.c"
  15              		.text
  16              	.Ltext0:
  17              		.cfi_sections	.debug_frame
  18              		.section	.text._core_init,"ax",%progbits
  19              		.align	2
  20              		.global	_core_init
  21              		.thumb
  22              		.thumb_func
  23              		.type	_core_init, %function
  24              	_core_init:
  25              	.LFB7:
  26              		.file 1 "/opt/ChibiOS_2.6.6/os/kernel/src/chmemcore.c"
  27              		.loc 1 66 0
  28              		.cfi_startproc
  29              		@ args = 0, pretend = 0, frame = 0
  30              		@ frame_needed = 0, uses_anonymous_args = 0
  31              		@ link register save eliminated.
  32              		.loc 1 71 0
  33 0000 40F20001 		movw	r1, #:lower16:__heap_end__
  34              		.loc 1 70 0
  35 0004 0848     		ldr	r0, .L2
  36              		.loc 1 71 0
  37 0006 C0F20001 		movt	r1, #:upper16:__heap_end__
  38 000a 40F20002 		movw	r2, #:lower16:.LANCHOR1
  39              		.loc 1 70 0
  40 000e 40F20003 		movw	r3, #:lower16:.LANCHOR0
  41              		.loc 1 71 0
  42 0012 21F00701 		bic	r1, r1, #7
  43 0016 C0F20002 		movt	r2, #:upper16:.LANCHOR1
  44              		.loc 1 70 0
  45 001a 20F00700 		bic	r0, r0, #7
  46 001e C0F20003 		movt	r3, #:upper16:.LANCHOR0
  47              		.loc 1 71 0
  48 0022 1160     		str	r1, [r2]
  49              		.loc 1 70 0
  50 0024 1860     		str	r0, [r3]
  51 0026 7047     		bx	lr
  52              	.L3:
  53              		.align	2
  54              	.L2:
  55 0028 07000000 		.word	__heap_base__+7
  56              		.cfi_endproc
  57              	.LFE7:
ARM GAS  /tmp/cckw6yuv.s 			page 2


  58              		.size	_core_init, .-_core_init
  59              		.section	.text.chCoreAlloc,"ax",%progbits
  60              		.align	2
  61              		.global	chCoreAlloc
  62              		.thumb
  63              		.thumb_func
  64              		.type	chCoreAlloc, %function
  65              	chCoreAlloc:
  66              	.LFB8:
  67              		.loc 1 91 0
  68              		.cfi_startproc
  69              		@ args = 0, pretend = 0, frame = 0
  70              		@ frame_needed = 0, uses_anonymous_args = 0
  71              		@ link register save eliminated.
  72              	.LVL0:
  73              	.LBB6:
  74              		.loc 1 94 0
  75 0000 2023     		movs	r3, #32
  76              	@ 94 "/opt/ChibiOS_2.6.6/os/kernel/src/chmemcore.c" 1
  77 0002 83F31188 		msr     BASEPRI, r3
  78              	@ 0 "" 2
  79              	.LVL1:
  80              		.thumb
  81              	.LBE6:
  82              	.LBB7:
  83              	.LBB8:
  84              		.loc 1 118 0
  85 0006 40F20003 		movw	r3, #:lower16:.LANCHOR0
  86 000a 40F20002 		movw	r2, #:lower16:.LANCHOR1
  87 000e C0F20003 		movt	r3, #:upper16:.LANCHOR0
  88 0012 C0F20002 		movt	r2, #:upper16:.LANCHOR1
  89 0016 1968     		ldr	r1, [r3]
  90 0018 1268     		ldr	r2, [r2]
  91              		.loc 1 117 0
  92 001a 0730     		adds	r0, r0, #7
  93              	.LVL2:
  94 001c 20F00700 		bic	r0, r0, #7
  95              	.LVL3:
  96              		.loc 1 118 0
  97 0020 521A     		subs	r2, r2, r1
  98 0022 9042     		cmp	r0, r2
  99              	.LVL4:
 100              		.loc 1 121 0
 101 0024 9BBF     		ittet	ls
 102 0026 4018     		addls	r0, r0, r1
 103              	.LVL5:
 104 0028 1860     		strls	r0, [r3]
 105              		.loc 1 119 0
 106 002a 0020     		movhi	r0, #0
 107              		.loc 1 122 0
 108 002c 0846     		movls	r0, r1
 109              	.LBE8:
 110              	.LBE7:
 111              	.LBB9:
 112              		.loc 1 96 0
 113 002e 0023     		movs	r3, #0
 114              	@ 96 "/opt/ChibiOS_2.6.6/os/kernel/src/chmemcore.c" 1
ARM GAS  /tmp/cckw6yuv.s 			page 3


 115 0030 83F31188 		msr     BASEPRI, r3
 116              	@ 0 "" 2
 117              		.thumb
 118              	.LBE9:
 119              		.loc 1 98 0
 120 0034 7047     		bx	lr
 121              		.cfi_endproc
 122              	.LFE8:
 123              		.size	chCoreAlloc, .-chCoreAlloc
 124 0036 00BF     		.section	.text.chCoreAllocI,"ax",%progbits
 125              		.align	2
 126              		.global	chCoreAllocI
 127              		.thumb
 128              		.thumb_func
 129              		.type	chCoreAllocI, %function
 130              	chCoreAllocI:
 131              	.LFB9:
 132              		.loc 1 112 0
 133              		.cfi_startproc
 134              		@ args = 0, pretend = 0, frame = 0
 135              		@ frame_needed = 0, uses_anonymous_args = 0
 136              		@ link register save eliminated.
 137              	.LVL6:
 138              		.loc 1 118 0
 139 0000 40F20003 		movw	r3, #:lower16:.LANCHOR0
 140 0004 40F20002 		movw	r2, #:lower16:.LANCHOR1
 141 0008 C0F20003 		movt	r3, #:upper16:.LANCHOR0
 142 000c C0F20002 		movt	r2, #:upper16:.LANCHOR1
 143 0010 1968     		ldr	r1, [r3]
 144 0012 1268     		ldr	r2, [r2]
 145              		.loc 1 117 0
 146 0014 0730     		adds	r0, r0, #7
 147              	.LVL7:
 148 0016 20F00700 		bic	r0, r0, #7
 149              	.LVL8:
 150              		.loc 1 118 0
 151 001a 521A     		subs	r2, r2, r1
 152 001c 9042     		cmp	r0, r2
 153              	.LVL9:
 154              		.loc 1 121 0
 155 001e 9DBF     		ittte	ls
 156 0020 4018     		addls	r0, r0, r1
 157              	.LVL10:
 158 0022 1860     		strls	r0, [r3]
 159              		.loc 1 122 0
 160 0024 0846     		movls	r0, r1
 161              		.loc 1 119 0
 162 0026 0020     		movhi	r0, #0
 163              		.loc 1 123 0
 164 0028 7047     		bx	lr
 165              		.cfi_endproc
 166              	.LFE9:
 167              		.size	chCoreAllocI, .-chCoreAllocI
 168 002a 00BF     		.section	.text.chCoreStatus,"ax",%progbits
 169              		.align	2
 170              		.global	chCoreStatus
 171              		.thumb
ARM GAS  /tmp/cckw6yuv.s 			page 4


 172              		.thumb_func
 173              		.type	chCoreStatus, %function
 174              	chCoreStatus:
 175              	.LFB10:
 176              		.loc 1 132 0
 177              		.cfi_startproc
 178              		@ args = 0, pretend = 0, frame = 0
 179              		@ frame_needed = 0, uses_anonymous_args = 0
 180              		@ link register save eliminated.
 181              		.loc 1 134 0
 182 0000 40F20002 		movw	r2, #:lower16:.LANCHOR1
 183 0004 40F20003 		movw	r3, #:lower16:.LANCHOR0
 184 0008 C0F20002 		movt	r2, #:upper16:.LANCHOR1
 185 000c C0F20003 		movt	r3, #:upper16:.LANCHOR0
 186 0010 1068     		ldr	r0, [r2]
 187 0012 1B68     		ldr	r3, [r3]
 188              		.loc 1 135 0
 189 0014 C01A     		subs	r0, r0, r3
 190 0016 7047     		bx	lr
 191              		.cfi_endproc
 192              	.LFE10:
 193              		.size	chCoreStatus, .-chCoreStatus
 194              		.section	.bss.endmem,"aw",%nobits
 195              		.align	2
 196              		.set	.LANCHOR1,. + 0
 197              		.type	endmem, %object
 198              		.size	endmem, 4
 199              	endmem:
 200 0000 00000000 		.space	4
 201              		.section	.bss.nextmem,"aw",%nobits
 202              		.align	2
 203              		.set	.LANCHOR0,. + 0
 204              		.type	nextmem, %object
 205              		.size	nextmem, 4
 206              	nextmem:
 207 0000 00000000 		.space	4
 208              		.text
 209              	.Letext0:
 210              		.file 2 "/usr/lib/gcc/arm-none-eabi/4.8.2/include/stddef.h"
 211              		.file 3 "/usr/include/newlib/machine/_default_types.h"
 212              		.file 4 "/usr/include/newlib/stdint.h"