ARM GAS  /tmp/ccsu90os.s 			page 1


   1              		.syntax unified
   2              		.cpu cortex-m3
   3              		.fpu softvfp
   4              		.eabi_attribute 20, 1
   5              		.eabi_attribute 21, 1
   6              		.eabi_attribute 23, 3
   7              		.eabi_attribute 24, 1
   8              		.eabi_attribute 25, 1
   9              		.eabi_attribute 26, 1
  10              		.eabi_attribute 30, 2
  11              		.eabi_attribute 34, 1
  12              		.eabi_attribute 18, 4
  13              		.thumb
  14              		.file	"chsys.c"
  15              		.text
  16              	.Ltext0:
  17              		.cfi_sections	.debug_frame
  18              		.section	.text._idle_thread,"ax",%progbits
  19              		.align	2
  20              		.global	_idle_thread
  21              		.thumb
  22              		.thumb_func
  23              		.type	_idle_thread, %function
  24              	_idle_thread:
  25              	.LFB7:
  26              		.file 1 "/opt/ChibiOS_2.6.6/os/kernel/src/chsys.c"
  27              		.loc 1 61 0
  28              		.cfi_startproc
  29              		@ Volatile: function does not return.
  30              		@ args = 0, pretend = 0, frame = 0
  31              		@ frame_needed = 0, uses_anonymous_args = 0
  32              		@ link register save eliminated.
  33              	.LVL0:
  34              		.loc 1 64 0
  35 0000 40F20003 		movw	r3, #:lower16:rlist
  36 0004 C0F20003 		movt	r3, #:upper16:rlist
  37 0008 9A69     		ldr	r2, [r3, #24]
  38 000a 40F20003 		movw	r3, #:lower16:.LC0
  39 000e C0F20003 		movt	r3, #:upper16:.LC0
  40 0012 9361     		str	r3, [r2, #24]
  41              	.L2:
  42 0014 FEE7     		b	.L2
  43              		.cfi_endproc
  44              	.LFE7:
  45              		.size	_idle_thread, .-_idle_thread
  46 0016 00BF     		.section	.text.chSysInit,"ax",%progbits
  47              		.align	2
  48              		.global	chSysInit
  49              		.thumb
  50              		.thumb_func
  51              		.type	chSysInit, %function
  52              	chSysInit:
  53              	.LFB8:
  54              		.loc 1 84 0
  55              		.cfi_startproc
  56              		@ args = 0, pretend = 0, frame = 0
  57              		@ frame_needed = 0, uses_anonymous_args = 0
ARM GAS  /tmp/ccsu90os.s 			page 2


  58 0000 10B5     		push	{r4, lr}
  59              		.cfi_def_cfa_offset 8
  60              		.cfi_offset 4, -8
  61              		.cfi_offset 14, -4
  62 0002 82B0     		sub	sp, sp, #8
  63              		.cfi_def_cfa_offset 16
  64              		.loc 1 90 0
  65 0004 FFF7FEFF 		bl	_port_init
  66              	.LVL1:
  67              		.loc 1 91 0
  68 0008 FFF7FEFF 		bl	_scheduler_init
  69              	.LVL2:
  70              		.loc 1 92 0
  71 000c FFF7FEFF 		bl	_vt_init
  72              	.LVL3:
  73              		.loc 1 94 0
  74 0010 FFF7FEFF 		bl	_core_init
  75              	.LVL4:
  76              		.loc 1 97 0
  77 0014 FFF7FEFF 		bl	_heap_init
  78              	.LVL5:
  79              		.loc 1 104 0
  80 0018 40F20000 		movw	r0, #:lower16:.LANCHOR0
  81 001c 4021     		movs	r1, #64
  82 001e C0F20000 		movt	r0, #:upper16:.LANCHOR0
  83 0022 FFF7FEFF 		bl	_thread_init
  84              	.LVL6:
  85 0026 40F20003 		movw	r3, #:lower16:rlist
  86 002a C0F20003 		movt	r3, #:upper16:rlist
  87              		.loc 1 105 0
  88 002e 0122     		movs	r2, #1
  89              		.loc 1 104 0
  90 0030 9861     		str	r0, [r3, #24]
  91              		.loc 1 105 0
  92 0032 0277     		strb	r2, [r0, #28]
  93              	.LBB2:
  94              		.loc 1 111 0
  95 0034 0023     		movs	r3, #0
  96              	@ 111 "/opt/ChibiOS_2.6.6/os/kernel/src/chsys.c" 1
  97 0036 83F31188 		msr     BASEPRI, r3                    
  98 003a 62B6     		cpsie   i
  99              	@ 0 "" 2
 100              		.thumb
 101              	.LBE2:
 102              		.loc 1 115 0
 103 003c 40F20003 		movw	r3, #:lower16:rlist
 104 0040 C0F20003 		movt	r3, #:upper16:rlist
 105 0044 9C69     		ldr	r4, [r3, #24]
 106 0046 40F20002 		movw	r2, #:lower16:ch_debug
 107 004a C0F20002 		movt	r2, #:upper16:ch_debug
 108              		.loc 1 121 0
 109 004e 0021     		movs	r1, #0
 110 0050 40F20000 		movw	r0, #:lower16:.LANCHOR1
 111 0054 40F20003 		movw	r3, #:lower16:_idle_thread
 112              		.loc 1 115 0
 113 0058 A261     		str	r2, [r4, #24]
 114              		.loc 1 121 0
ARM GAS  /tmp/ccsu90os.s 			page 3


 115 005a C0F20003 		movt	r3, #:upper16:_idle_thread
 116 005e 0091     		str	r1, [sp]
 117 0060 0122     		movs	r2, #1
 118 0062 E021     		movs	r1, #224
 119 0064 C0F20000 		movt	r0, #:upper16:.LANCHOR1
 120 0068 FFF7FEFF 		bl	chThdCreateStatic
 121              	.LVL7:
 122              		.loc 1 124 0
 123 006c 02B0     		add	sp, sp, #8
 124              		@ sp needed
 125 006e 10BD     		pop	{r4, pc}
 126              		.cfi_endproc
 127              	.LFE8:
 128              		.size	chSysInit, .-chSysInit
 129              		.section	.text.chSysTimerHandlerI,"ax",%progbits
 130              		.align	2
 131              		.global	chSysTimerHandlerI
 132              		.thumb
 133              		.thumb_func
 134              		.type	chSysTimerHandlerI, %function
 135              	chSysTimerHandlerI:
 136              	.LFB9:
 137              		.loc 1 137 0
 138              		.cfi_startproc
 139              		@ args = 0, pretend = 0, frame = 0
 140              		@ frame_needed = 0, uses_anonymous_args = 0
 141 0000 70B5     		push	{r4, r5, r6, lr}
 142              		.cfi_def_cfa_offset 16
 143              		.cfi_offset 4, -16
 144              		.cfi_offset 5, -12
 145              		.cfi_offset 6, -8
 146              		.cfi_offset 14, -4
 147              		.loc 1 143 0
 148 0002 40F20003 		movw	r3, #:lower16:rlist
 149 0006 C0F20003 		movt	r3, #:upper16:rlist
 150 000a 9B69     		ldr	r3, [r3, #24]
 151 000c DA7F     		ldrb	r2, [r3, #31]	@ zero_extendqisi2
 152 000e 0AB1     		cbz	r2, .L6
 153              		.loc 1 145 0
 154 0010 013A     		subs	r2, r2, #1
 155 0012 DA77     		strb	r2, [r3, #31]
 156              	.L6:
 157              		.loc 1 148 0
 158 0014 1A6A     		ldr	r2, [r3, #32]
 159              		.loc 1 150 0
 160 0016 40F20001 		movw	r1, #:lower16:vtlist
 161              		.loc 1 148 0
 162 001a 0132     		adds	r2, r2, #1
 163              		.loc 1 150 0
 164 001c C0F20001 		movt	r1, #:upper16:vtlist
 165              		.loc 1 148 0
 166 0020 1A62     		str	r2, [r3, #32]
 167              		.loc 1 150 0
 168 0022 CB68     		ldr	r3, [r1, #12]
 169 0024 0A68     		ldr	r2, [r1]
 170 0026 0133     		adds	r3, r3, #1
 171 0028 8A42     		cmp	r2, r1
ARM GAS  /tmp/ccsu90os.s 			page 4


 172 002a CB60     		str	r3, [r1, #12]
 173 002c 19D0     		beq	.L5
 174              	.LBB3:
 175              		.loc 1 150 0 is_stmt 0 discriminator 1
 176 002e 9668     		ldr	r6, [r2, #8]
 177 0030 013E     		subs	r6, r6, #1
 178 0032 9660     		str	r6, [r2, #8]
 179              	.LVL8:
 180 0034 AEB9     		cbnz	r6, .L5
 181              		.loc 1 150 0
 182 0036 0D46     		mov	r5, r1
 183              	.L9:
 184              	.LBB4:
 185              		.loc 1 150 0 discriminator 2
 186 0038 1068     		ldr	r0, [r2]
 187 003a D468     		ldr	r4, [r2, #12]
 188              	.LVL9:
 189 003c 0860     		str	r0, [r1]
 190 003e D660     		str	r6, [r2, #12]
 191              	.LBB5:
 192 0040 0023     		movs	r3, #0
 193              	.LBE5:
 194 0042 4160     		str	r1, [r0, #4]
 195              	.LBB6:
 196              	@ 150 "/opt/ChibiOS_2.6.6/os/kernel/src/chsys.c" 1
 197 0044 83F31188 		msr     BASEPRI, r3
 198              	@ 0 "" 2
 199              		.thumb
 200              	.LBE6:
 201 0048 1069     		ldr	r0, [r2, #16]
 202 004a A047     		blx	r4
 203              	.LVL10:
 204              	.LBB7:
 205 004c 2023     		movs	r3, #32
 206              	@ 150 "/opt/ChibiOS_2.6.6/os/kernel/src/chsys.c" 1
 207 004e 83F31188 		msr     BASEPRI, r3
 208              	@ 0 "" 2
 209              		.thumb
 210              	.LBE7:
 211              	.LBE4:
 212 0052 2A68     		ldr	r2, [r5]
 213              	.LVL11:
 214 0054 40F20001 		movw	r1, #:lower16:vtlist
 215 0058 9368     		ldr	r3, [r2, #8]
 216 005a C0F20001 		movt	r1, #:upper16:vtlist
 217 005e 002B     		cmp	r3, #0
 218 0060 EAD0     		beq	.L9
 219              	.LVL12:
 220              	.L5:
 221 0062 70BD     		pop	{r4, r5, r6, pc}
 222              	.LBE3:
 223              		.cfi_endproc
 224              	.LFE9:
 225              		.size	chSysTimerHandlerI, .-chSysTimerHandlerI
 226              		.global	_idle_thread_wa
 227              		.section	.rodata.str1.4,"aMS",%progbits,1
 228              		.align	2
ARM GAS  /tmp/ccsu90os.s 			page 5


 229              	.LC0:
 230 0000 69646C65 		.ascii	"idle\000"
 230      00
 231 0005 000000   		.section	.bss.mainthread.4794,"aw",%nobits
 232              		.align	2
 233              		.set	.LANCHOR0,. + 0
 234              		.type	mainthread.4794, %object
 235              		.size	mainthread.4794, 72
 236              	mainthread.4794:
 237 0000 00000000 		.space	72
 237      00000000 
 237      00000000 
 237      00000000 
 237      00000000 
 238              		.section	.bss._idle_thread_wa,"aw",%nobits
 239              		.align	3
 240              		.set	.LANCHOR1,. + 0
 241              		.type	_idle_thread_wa, %object
 242              		.size	_idle_thread_wa, 224
 243              	_idle_thread_wa:
 244 0000 00000000 		.space	224
 244      00000000 
 244      00000000 
 244      00000000 
 244      00000000 
 245              		.text
 246              	.Letext0:
 247              		.file 2 "/usr/lib/gcc/arm-none-eabi/4.8.2/include/stddef.h"
 248              		.file 3 "/usr/include/newlib/machine/_default_types.h"
 249              		.file 4 "/usr/include/newlib/stdint.h"
 250              		.file 5 "/opt/ChibiOS_2.6.6/os/ports/GCC/ARMCMx/chtypes.h"
 251              		.file 6 "/opt/ChibiOS_2.6.6/os/kernel/include/chlists.h"
 252              		.file 7 "/opt/ChibiOS_2.6.6/os/kernel/include/chthreads.h"
 253              		.file 8 "/opt/ChibiOS_2.6.6/os/ports/GCC/ARMCMx/chcore_v7m.h"
 254              		.file 9 "/opt/ChibiOS_2.6.6/os/kernel/include/chvt.h"
 255              		.file 10 "/opt/ChibiOS_2.6.6/os/kernel/include/chschd.h"
 256              		.file 11 "/opt/ChibiOS_2.6.6/os/kernel/include/chmtx.h"
 257              		.file 12 "/opt/ChibiOS_2.6.6/os/kernel/include/chregistry.h"
 258              		.file 13 "/opt/ChibiOS_2.6.6/os/kernel/include/chmemcore.h"
 259              		.file 14 "/opt/ChibiOS_2.6.6/os/kernel/include/chheap.h"