ARM GAS  /tmp/ccJn0par.s 			page 1


   1              		.syntax unified
   2              		.cpu cortex-m3
   3              		.fpu softvfp
   4              		.eabi_attribute 20, 1
   5              		.eabi_attribute 21, 1
   6              		.eabi_attribute 23, 3
   7              		.eabi_attribute 24, 1
   8              		.eabi_attribute 25, 1
   9              		.eabi_attribute 26, 1
  10              		.eabi_attribute 30, 2
  11              		.eabi_attribute 34, 1
  12              		.eabi_attribute 18, 4
  13              		.thumb
  14              		.file	"chvt.c"
  15              		.text
  16              	.Ltext0:
  17              		.cfi_sections	.debug_frame
  18              		.section	.text._vt_init,"ax",%progbits
  19              		.align	2
  20              		.global	_vt_init
  21              		.thumb
  22              		.thumb_func
  23              		.type	_vt_init, %function
  24              	_vt_init:
  25              	.LFB7:
  26              		.file 1 "/opt/ChibiOS_2.6.6/os/kernel/src/chvt.c"
  27              		.loc 1 50 0
  28              		.cfi_startproc
  29              		@ args = 0, pretend = 0, frame = 0
  30              		@ frame_needed = 0, uses_anonymous_args = 0
  31              		@ link register save eliminated.
  32              		.loc 1 52 0
  33 0000 40F20003 		movw	r3, #:lower16:.LANCHOR0
  34 0004 C0F20003 		movt	r3, #:upper16:.LANCHOR0
  35              		.loc 1 53 0
  36 0008 4FF0FF31 		mov	r1, #-1
  37              		.loc 1 54 0
  38 000c 0022     		movs	r2, #0
  39              		.loc 1 52 0
  40 000e 5B60     		str	r3, [r3, #4]
  41 0010 1B60     		str	r3, [r3]
  42              		.loc 1 53 0
  43 0012 9960     		str	r1, [r3, #8]
  44              		.loc 1 54 0
  45 0014 DA60     		str	r2, [r3, #12]
  46 0016 7047     		bx	lr
  47              		.cfi_endproc
  48              	.LFE7:
  49              		.size	_vt_init, .-_vt_init
  50              		.section	.text.chVTSetI,"ax",%progbits
  51              		.align	2
  52              		.global	chVTSetI
  53              		.thumb
  54              		.thumb_func
  55              		.type	chVTSetI, %function
  56              	chVTSetI:
  57              	.LFB8:
ARM GAS  /tmp/ccJn0par.s 			page 2


  58              		.loc 1 76 0
  59              		.cfi_startproc
  60              		@ args = 0, pretend = 0, frame = 0
  61              		@ frame_needed = 0, uses_anonymous_args = 0
  62              		@ link register save eliminated.
  63              	.LVL0:
  64 0000 70B4     		push	{r4, r5, r6}
  65              		.cfi_def_cfa_offset 12
  66              		.cfi_offset 4, -12
  67              		.cfi_offset 5, -8
  68              		.cfi_offset 6, -4
  69              		.loc 1 85 0
  70 0002 40F20006 		movw	r6, #:lower16:.LANCHOR0
  71 0006 C0F20006 		movt	r6, #:upper16:.LANCHOR0
  72 000a 3468     		ldr	r4, [r6]
  73              	.LVL1:
  74              		.loc 1 86 0
  75 000c A568     		ldr	r5, [r4, #8]
  76              		.loc 1 83 0
  77 000e 0361     		str	r3, [r0, #16]
  78              		.loc 1 86 0
  79 0010 A942     		cmp	r1, r5
  80              		.loc 1 84 0
  81 0012 C260     		str	r2, [r0, #12]
  82              		.loc 1 86 0
  83 0014 04D9     		bls	.L3
  84              	.L4:
  85              		.loc 1 88 0
  86 0016 2468     		ldr	r4, [r4]
  87              	.LVL2:
  88              		.loc 1 87 0
  89 0018 491B     		subs	r1, r1, r5
  90              	.LVL3:
  91              		.loc 1 86 0
  92 001a A568     		ldr	r5, [r4, #8]
  93 001c 8D42     		cmp	r5, r1
  94 001e FAD3     		bcc	.L4
  95              	.L3:
  96              		.loc 1 91 0
  97 0020 6368     		ldr	r3, [r4, #4]
  98              	.LVL4:
  99              		.loc 1 94 0
 100 0022 B442     		cmp	r4, r6
 101              		.loc 1 91 0
 102 0024 0460     		str	r4, [r0]
 103 0026 4360     		str	r3, [r0, #4]
 104              		.loc 1 92 0
 105 0028 6060     		str	r0, [r4, #4]
 106 002a 1860     		str	r0, [r3]
 107              		.loc 1 93 0
 108 002c 8160     		str	r1, [r0, #8]
 109              		.loc 1 95 0
 110 002e 1EBF     		ittt	ne
 111 0030 A368     		ldrne	r3, [r4, #8]
 112 0032 C1EB0301 		rsbne	r1, r1, r3
 113              	.LVL5:
 114 0036 A160     		strne	r1, [r4, #8]
ARM GAS  /tmp/ccJn0par.s 			page 3


 115              	.LVL6:
 116              		.loc 1 96 0
 117 0038 70BC     		pop	{r4, r5, r6}
 118              	.LVL7:
 119 003a 7047     		bx	lr
 120              		.cfi_endproc
 121              	.LFE8:
 122              		.size	chVTSetI, .-chVTSetI
 123              		.section	.text.chVTResetI,"ax",%progbits
 124              		.align	2
 125              		.global	chVTResetI
 126              		.thumb
 127              		.thumb_func
 128              		.type	chVTResetI, %function
 129              	chVTResetI:
 130              	.LFB9:
 131              		.loc 1 106 0
 132              		.cfi_startproc
 133              		@ args = 0, pretend = 0, frame = 0
 134              		@ frame_needed = 0, uses_anonymous_args = 0
 135              		@ link register save eliminated.
 136              	.LVL8:
 137              		.loc 1 114 0
 138 0000 0368     		ldr	r3, [r0]
 139 0002 40F20002 		movw	r2, #:lower16:.LANCHOR0
 140 0006 C0F20002 		movt	r2, #:upper16:.LANCHOR0
 141 000a 9342     		cmp	r3, r2
 142              		.loc 1 115 0
 143 000c 1FBF     		itttt	ne
 144 000e 9968     		ldrne	r1, [r3, #8]
 145 0010 8268     		ldrne	r2, [r0, #8]
 146 0012 5218     		addne	r2, r2, r1
 147 0014 9A60     		strne	r2, [r3, #8]
 148              		.loc 1 116 0
 149 0016 4268     		ldr	r2, [r0, #4]
 150              		.loc 1 118 0
 151 0018 0021     		movs	r1, #0
 152              		.loc 1 116 0
 153 001a 1360     		str	r3, [r2]
 154              		.loc 1 117 0
 155 001c 0368     		ldr	r3, [r0]
 156 001e 5A60     		str	r2, [r3, #4]
 157              		.loc 1 118 0
 158 0020 C160     		str	r1, [r0, #12]
 159 0022 7047     		bx	lr
 160              		.cfi_endproc
 161              	.LFE9:
 162              		.size	chVTResetI, .-chVTResetI
 163              		.global	vtlist
 164              		.section	.bss.vtlist,"aw",%nobits
 165              		.align	2
 166              		.set	.LANCHOR0,. + 0
 167              		.type	vtlist, %object
 168              		.size	vtlist, 16
 169              	vtlist:
 170 0000 00000000 		.space	16
 170      00000000 
ARM GAS  /tmp/ccJn0par.s 			page 4


 170      00000000 
 170      00000000 
 171              		.text
 172              	.Letext0:
 173              		.file 2 "/usr/include/newlib/machine/_default_types.h"
 174              		.file 3 "/usr/include/newlib/stdint.h"
 175              		.file 4 "/opt/ChibiOS_2.6.6/os/ports/GCC/ARMCMx/chtypes.h"
 176              		.file 5 "/opt/ChibiOS_2.6.6/os/kernel/include/chvt.h"