ARM GAS  /tmp/cc4P8XGp.s 			page 1


   1              		.syntax unified
   2              		.cpu cortex-m3
   3              		.fpu softvfp
   4              		.eabi_attribute 20, 1
   5              		.eabi_attribute 21, 1
   6              		.eabi_attribute 23, 3
   7              		.eabi_attribute 24, 1
   8              		.eabi_attribute 25, 1
   9              		.eabi_attribute 26, 1
  10              		.eabi_attribute 30, 2
  11              		.eabi_attribute 34, 1
  12              		.eabi_attribute 18, 4
  13              		.thumb
  14              		.file	"main.c"
  15              		.text
  16              	.Ltext0:
  17              		.cfi_sections	.debug_frame
  18              		.section	.text.startup.main,"ax",%progbits
  19              		.align	2
  20              		.global	main
  21              		.thumb
  22              		.thumb_func
  23              		.type	main, %function
  24              	main:
  25              	.LFB63:
  26              		.file 1 "main.c"
  27              		.loc 1 7 0
  28              		.cfi_startproc
  29              		@ Volatile: function does not return.
  30              		@ args = 0, pretend = 0, frame = 0
  31              		@ frame_needed = 0, uses_anonymous_args = 0
  32 0000 2DE98848 		push	{r3, r7, fp, lr}
  33              		.cfi_def_cfa_offset 16
  34              		.cfi_offset 3, -16
  35              		.cfi_offset 7, -12
  36              		.cfi_offset 11, -8
  37              		.cfi_offset 14, -4
  38              		.loc 1 8 0
  39 0004 FFF7FEFF 		bl	halInit
  40              	.LVL0:
  41              		.loc 1 9 0
  42 0008 FFF7FEFF 		bl	chSysInit
  43              	.LVL1:
  44              		.loc 1 11 0
  45 000c 4FF48060 		mov	r0, #1024
  46 0010 C4F20200 		movt	r0, 16386
  47 0014 0821     		movs	r1, #8
  48 0016 0122     		movs	r2, #1
  49 0018 FFF7FEFF 		bl	_pal_lld_setgroupmode
  50              	.LVL2:
  51              		.loc 1 12 0
  52 001c 4FF48060 		mov	r0, #1024
  53 0020 C4F20200 		movt	r0, 16386
  54 0024 1021     		movs	r1, #16
  55 0026 0122     		movs	r2, #1
  56 0028 FFF7FEFF 		bl	_pal_lld_setgroupmode
  57              	.LVL3:
ARM GAS  /tmp/cc4P8XGp.s 			page 2


  58              		.loc 1 13 0
  59 002c 4FF48060 		mov	r0, #1024
  60 0030 C4F20200 		movt	r0, 16386
  61 0034 2021     		movs	r1, #32
  62 0036 0122     		movs	r2, #1
  63 0038 FFF7FEFF 		bl	_pal_lld_setgroupmode
  64              	.LVL4:
  65              		.loc 1 14 0
  66 003c 4FF48060 		mov	r0, #1024
  67 0040 C4F20200 		movt	r0, 16386
  68 0044 4FF48061 		mov	r1, #1024
  69 0048 0122     		movs	r2, #1
  70 004a FFF7FEFF 		bl	_pal_lld_setgroupmode
  71              	.LVL5:
  72              		.loc 1 15 0
  73 004e 4FF48060 		mov	r0, #1024
  74 0052 C4F20200 		movt	r0, 16386
  75 0056 4FF40061 		mov	r1, #2048
  76 005a 0122     		movs	r2, #1
  77 005c FFF7FEFF 		bl	_pal_lld_setgroupmode
  78              	.LVL6:
  79              		.loc 1 16 0
  80 0060 4FF48060 		mov	r0, #1024
  81 0064 C4F20200 		movt	r0, 16386
  82 0068 4FF48051 		mov	r1, #4096
  83 006c 0122     		movs	r2, #1
  84 006e FFF7FEFF 		bl	_pal_lld_setgroupmode
  85              	.LVL7:
  86              		.loc 1 17 0
  87 0072 4FF48060 		mov	r0, #1024
  88 0076 C4F20200 		movt	r0, 16386
  89 007a 4FF40051 		mov	r1, #8192
  90 007e 0122     		movs	r2, #1
  91 0080 FFF7FEFF 		bl	_pal_lld_setgroupmode
  92              	.LVL8:
  93              		.loc 1 18 0
  94 0084 4FF48060 		mov	r0, #1024
  95 0088 C4F20200 		movt	r0, 16386
  96 008c 4FF48041 		mov	r1, #16384
  97 0090 0122     		movs	r2, #1
  98 0092 FFF7FEFF 		bl	_pal_lld_setgroupmode
  99              	.LVL9:
 100              		.loc 1 19 0
 101 0096 4FF48060 		mov	r0, #1024
 102 009a C4F20200 		movt	r0, 16386
 103 009e 4FF40041 		mov	r1, #32768
 104 00a2 0122     		movs	r2, #1
 105 00a4 FFF7FEFF 		bl	_pal_lld_setgroupmode
 106              	.LVL10:
 107              		.loc 1 20 0
 108 00a8 4FF48060 		mov	r0, #1024
 109 00ac C4F20200 		movt	r0, 16386
 110 00b0 4FF40071 		mov	r1, #512
 111 00b4 0122     		movs	r2, #1
 112 00b6 FFF7FEFF 		bl	_pal_lld_setgroupmode
 113              	.LVL11:
 114              		.loc 1 21 0
ARM GAS  /tmp/cc4P8XGp.s 			page 3


 115 00ba 0020     		movs	r0, #0
 116 00bc C4F20200 		movt	r0, 16386
 117 00c0 4FF48061 		mov	r1, #1024
 118 00c4 0122     		movs	r2, #1
 119 00c6 FFF7FEFF 		bl	_pal_lld_setgroupmode
 120              	.LVL12:
 121              		.loc 1 22 0
 122 00ca 4FF48060 		mov	r0, #1024
 123 00ce C4F20200 		movt	r0, 16386
 124 00d2 4FF48071 		mov	r1, #256
 125 00d6 0122     		movs	r2, #1
 126 00d8 FFF7FEFF 		bl	_pal_lld_setgroupmode
 127              	.LVL13:
 128              		.loc 1 23 0
 129 00dc 4FF48060 		mov	r0, #1024
 130 00e0 C4F20200 		movt	r0, 16386
 131 00e4 8021     		movs	r1, #128
 132 00e6 0122     		movs	r2, #1
 133 00e8 FFF7FEFF 		bl	_pal_lld_setgroupmode
 134              	.LVL14:
 135              		.loc 1 24 0
 136 00ec 0020     		movs	r0, #0
 137 00ee C4F20200 		movt	r0, 16386
 138 00f2 0221     		movs	r1, #2
 139 00f4 0122     		movs	r2, #1
 140 00f6 FFF7FEFF 		bl	_pal_lld_setgroupmode
 141              	.LVL15:
 142              		.loc 1 25 0
 143 00fa 0020     		movs	r0, #0
 144 00fc C4F20200 		movt	r0, 16386
 145 0100 0421     		movs	r1, #4
 146 0102 0122     		movs	r2, #1
 147 0104 FFF7FEFF 		bl	_pal_lld_setgroupmode
 148              	.LVL16:
 149              		.loc 1 26 0
 150 0108 0020     		movs	r0, #0
 151 010a C4F20200 		movt	r0, 16386
 152 010e 0821     		movs	r1, #8
 153 0110 0122     		movs	r2, #1
 154 0112 FFF7FEFF 		bl	_pal_lld_setgroupmode
 155              	.LVL17:
 156              		.loc 1 27 0
 157 0116 0020     		movs	r0, #0
 158 0118 C4F20200 		movt	r0, 16386
 159 011c 4FF48061 		mov	r1, #1024
 160 0120 0122     		movs	r2, #1
 161 0122 FFF7FEFF 		bl	_pal_lld_setgroupmode
 162              	.LVL18:
 163              		.loc 1 28 0
 164 0126 0020     		movs	r0, #0
 165 0128 C4F20200 		movt	r0, 16386
 166 012c 4FF40071 		mov	r1, #512
 167 0130 0122     		movs	r2, #1
 168 0132 FFF7FEFF 		bl	_pal_lld_setgroupmode
 169              	.LVL19:
 170              		.loc 1 29 0
 171 0136 0020     		movs	r0, #0
ARM GAS  /tmp/cc4P8XGp.s 			page 4


 172 0138 C4F20200 		movt	r0, 16386
 173 013c 4FF48071 		mov	r1, #256
 174 0140 0122     		movs	r2, #1
 175 0142 FFF7FEFF 		bl	_pal_lld_setgroupmode
 176              	.LVL20:
 177              		.loc 1 30 0
 178 0146 0020     		movs	r0, #0
 179 0148 C4F20200 		movt	r0, 16386
 180 014c 4FF40041 		mov	r1, #32768
 181 0150 0122     		movs	r2, #1
 182 0152 FFF7FEFF 		bl	_pal_lld_setgroupmode
 183              	.LVL21:
 184              		.loc 1 31 0
 185 0156 4FF40060 		mov	r0, #2048
 186 015a C4F20200 		movt	r0, 16386
 187 015e 4FF40061 		mov	r1, #2048
 188 0162 0122     		movs	r2, #1
 189 0164 FFF7FEFF 		bl	_pal_lld_setgroupmode
 190              	.LVL22:
 191              		.loc 1 32 0
 192 0168 4FF40060 		mov	r0, #2048
 193 016c C4F20200 		movt	r0, 16386
 194 0170 4FF48061 		mov	r1, #1024
 195 0174 0122     		movs	r2, #1
 196 0176 FFF7FEFF 		bl	_pal_lld_setgroupmode
 197              	.LVL23:
 198              		.loc 1 33 0
 199 017a 4FF40060 		mov	r0, #2048
 200 017e C4F20200 		movt	r0, 16386
 201 0182 4FF40071 		mov	r1, #512
 202 0186 0122     		movs	r2, #1
 203 0188 FFF7FEFF 		bl	_pal_lld_setgroupmode
 204              	.LVL24:
 205              		.loc 1 34 0
 206 018c 4FF40060 		mov	r0, #2048
 207 0190 C4F20200 		movt	r0, 16386
 208 0194 4FF48071 		mov	r1, #256
 209 0198 0122     		movs	r2, #1
 210 019a FFF7FEFF 		bl	_pal_lld_setgroupmode
 211              	.LVL25:
 212              		.loc 1 35 0
 213 019e 4FF40060 		mov	r0, #2048
 214 01a2 C4F20200 		movt	r0, 16386
 215 01a6 8021     		movs	r1, #128
 216 01a8 0122     		movs	r2, #1
 217 01aa FFF7FEFF 		bl	_pal_lld_setgroupmode
 218              	.LVL26:
 219              		.loc 1 36 0
 220 01ae 4FF40060 		mov	r0, #2048
 221 01b2 C4F20200 		movt	r0, 16386
 222 01b6 4021     		movs	r1, #64
 223 01b8 0122     		movs	r2, #1
 224 01ba FFF7FEFF 		bl	_pal_lld_setgroupmode
 225              	.LVL27:
 226              		.loc 1 37 0
 227 01be 4FF40060 		mov	r0, #2048
 228 01c2 C4F20200 		movt	r0, 16386
ARM GAS  /tmp/cc4P8XGp.s 			page 5


 229 01c6 0821     		movs	r1, #8
 230 01c8 0122     		movs	r2, #1
 231 01ca FFF7FEFF 		bl	_pal_lld_setgroupmode
 232              	.LVL28:
 233              		.loc 1 38 0
 234 01ce 4FF40060 		mov	r0, #2048
 235 01d2 C4F20200 		movt	r0, 16386
 236 01d6 0421     		movs	r1, #4
 237 01d8 0122     		movs	r2, #1
 238 01da FFF7FEFF 		bl	_pal_lld_setgroupmode
 239              	.LVL29:
 240              		.loc 1 39 0
 241 01de 4FF40060 		mov	r0, #2048
 242 01e2 C4F20200 		movt	r0, 16386
 243 01e6 0221     		movs	r1, #2
 244 01e8 0122     		movs	r2, #1
 245 01ea FFF7FEFF 		bl	_pal_lld_setgroupmode
 246              	.LVL30:
 247              		.loc 1 42 0
 248 01ee 4FF48066 		mov	r6, #1024
 249              		.loc 1 48 0
 250 01f2 0025     		movs	r5, #0
 251              		.loc 1 54 0
 252 01f4 4FF40064 		mov	r4, #2048
 253              		.loc 1 42 0
 254 01f8 4FF08008 		mov	r8, #128
 255 01fc C4F20206 		movt	r6, 16386
 256              		.loc 1 48 0
 257 0200 C4F20205 		movt	r5, 16386
 258              		.loc 1 54 0
 259 0204 C4F20204 		movt	r4, 16386
 260              	.L2:
 261              		.loc 1 42 0 discriminator 1
 262 0208 4FF08003 		mov	r3, #128	@ movhi
 263 020c 3383     		strh	r3, [r6, #24]	@ movhi
 264 020e 4FF4FA70 		mov	r0, #500
 265              		.loc 1 43 0 discriminator 1
 266 0212 4FF40049 		mov	r9, #32768
 267              		.loc 1 42 0 discriminator 1
 268 0216 FFF7FEFF 		bl	chThdSleep
 269              	.LVL31:
 270 021a A6F81A80 		strh	r8, [r6, #26]	@ movhi
 271 021e 4FF4FA70 		mov	r0, #500
 272 0222 FFF7FEFF 		bl	chThdSleep
 273              	.LVL32:
 274              		.loc 1 43 0 discriminator 1
 275 0226 A6F81890 		strh	r9, [r6, #24]	@ movhi
 276 022a 4FF4FA70 		mov	r0, #500
 277              		.loc 1 44 0 discriminator 1
 278 022e 4FF40077 		mov	r7, #512
 279              		.loc 1 43 0 discriminator 1
 280 0232 FFF7FEFF 		bl	chThdSleep
 281              	.LVL33:
 282 0236 A6F81A90 		strh	r9, [r6, #26]	@ movhi
 283 023a 4FF4FA70 		mov	r0, #500
 284 023e FFF7FEFF 		bl	chThdSleep
 285              	.LVL34:
ARM GAS  /tmp/cc4P8XGp.s 			page 6


 286              		.loc 1 44 0 discriminator 1
 287 0242 3783     		strh	r7, [r6, #24]	@ movhi
 288 0244 4FF4FA70 		mov	r0, #500
 289 0248 FFF7FEFF 		bl	chThdSleep
 290              	.LVL35:
 291              		.loc 1 45 0 discriminator 1
 292 024c 4FF4806B 		mov	fp, #1024
 293              		.loc 1 44 0 discriminator 1
 294 0250 7783     		strh	r7, [r6, #26]	@ movhi
 295 0252 4FF4FA70 		mov	r0, #500
 296 0256 FFF7FEFF 		bl	chThdSleep
 297              	.LVL36:
 298              		.loc 1 45 0 discriminator 1
 299 025a A6F818B0 		strh	fp, [r6, #24]	@ movhi
 300 025e 4FF4FA70 		mov	r0, #500
 301 0262 FFF7FEFF 		bl	chThdSleep
 302              	.LVL37:
 303              		.loc 1 46 0 discriminator 1
 304 0266 4FF4006A 		mov	r10, #2048
 305              		.loc 1 45 0 discriminator 1
 306 026a A6F81AB0 		strh	fp, [r6, #26]	@ movhi
 307 026e 4FF4FA70 		mov	r0, #500
 308 0272 FFF7FEFF 		bl	chThdSleep
 309              	.LVL38:
 310              		.loc 1 46 0 discriminator 1
 311 0276 A6F818A0 		strh	r10, [r6, #24]	@ movhi
 312 027a 4FF4FA70 		mov	r0, #500
 313 027e FFF7FEFF 		bl	chThdSleep
 314              	.LVL39:
 315 0282 A6F81AA0 		strh	r10, [r6, #26]	@ movhi
 316 0286 4FF4FA70 		mov	r0, #500
 317 028a FFF7FEFF 		bl	chThdSleep
 318              	.LVL40:
 319              		.loc 1 48 0 discriminator 1
 320 028e A5F81880 		strh	r8, [r5, #24]	@ movhi
 321 0292 4FF4FA70 		mov	r0, #500
 322 0296 FFF7FEFF 		bl	chThdSleep
 323              	.LVL41:
 324 029a A5F81A80 		strh	r8, [r5, #26]	@ movhi
 325 029e 4FF4FA70 		mov	r0, #500
 326 02a2 FFF7FEFF 		bl	chThdSleep
 327              	.LVL42:
 328              		.loc 1 49 0 discriminator 1
 329 02a6 A5F81890 		strh	r9, [r5, #24]	@ movhi
 330 02aa 4FF4FA70 		mov	r0, #500
 331 02ae FFF7FEFF 		bl	chThdSleep
 332              	.LVL43:
 333 02b2 A5F81A90 		strh	r9, [r5, #26]	@ movhi
 334 02b6 4FF4FA70 		mov	r0, #500
 335 02ba FFF7FEFF 		bl	chThdSleep
 336              	.LVL44:
 337              		.loc 1 50 0 discriminator 1
 338 02be 2F83     		strh	r7, [r5, #24]	@ movhi
 339 02c0 4FF4FA70 		mov	r0, #500
 340              		.loc 1 51 0 discriminator 1
 341 02c4 4FF4807A 		mov	r10, #256
 342              		.loc 1 50 0 discriminator 1
ARM GAS  /tmp/cc4P8XGp.s 			page 7


 343 02c8 FFF7FEFF 		bl	chThdSleep
 344              	.LVL45:
 345 02cc 6F83     		strh	r7, [r5, #26]	@ movhi
 346 02ce 4FF4FA70 		mov	r0, #500
 347 02d2 FFF7FEFF 		bl	chThdSleep
 348              	.LVL46:
 349              		.loc 1 51 0 discriminator 1
 350 02d6 A5F818A0 		strh	r10, [r5, #24]	@ movhi
 351 02da 4FF4FA70 		mov	r0, #500
 352              		.loc 1 52 0 discriminator 1
 353 02de 4FF00209 		mov	r9, #2
 354              		.loc 1 51 0 discriminator 1
 355 02e2 FFF7FEFF 		bl	chThdSleep
 356              	.LVL47:
 357 02e6 A5F81AA0 		strh	r10, [r5, #26]	@ movhi
 358 02ea 4FF4FA70 		mov	r0, #500
 359 02ee FFF7FEFF 		bl	chThdSleep
 360              	.LVL48:
 361              		.loc 1 52 0 discriminator 1
 362 02f2 A5F81890 		strh	r9, [r5, #24]	@ movhi
 363 02f6 4FF4FA70 		mov	r0, #500
 364 02fa FFF7FEFF 		bl	chThdSleep
 365              	.LVL49:
 366 02fe A5F81A90 		strh	r9, [r5, #26]	@ movhi
 367 0302 4FF4FA70 		mov	r0, #500
 368 0306 FFF7FEFF 		bl	chThdSleep
 369              	.LVL50:
 370              		.loc 1 54 0 discriminator 1
 371 030a A4F81880 		strh	r8, [r4, #24]	@ movhi
 372 030e 4FF4FA70 		mov	r0, #500
 373 0312 FFF7FEFF 		bl	chThdSleep
 374              	.LVL51:
 375              		.loc 1 55 0 discriminator 1
 376 0316 4FF0400B 		mov	fp, #64
 377              		.loc 1 54 0 discriminator 1
 378 031a A4F81A80 		strh	r8, [r4, #26]	@ movhi
 379 031e 4FF4FA70 		mov	r0, #500
 380 0322 FFF7FEFF 		bl	chThdSleep
 381              	.LVL52:
 382              		.loc 1 55 0 discriminator 1
 383 0326 A4F818B0 		strh	fp, [r4, #24]	@ movhi
 384 032a 4FF4FA70 		mov	r0, #500
 385 032e FFF7FEFF 		bl	chThdSleep
 386              	.LVL53:
 387 0332 A4F81AB0 		strh	fp, [r4, #26]	@ movhi
 388 0336 4FF4FA70 		mov	r0, #500
 389 033a FFF7FEFF 		bl	chThdSleep
 390              	.LVL54:
 391              		.loc 1 56 0 discriminator 1
 392 033e 2783     		strh	r7, [r4, #24]	@ movhi
 393 0340 4FF4FA70 		mov	r0, #500
 394 0344 FFF7FEFF 		bl	chThdSleep
 395              	.LVL55:
 396 0348 6783     		strh	r7, [r4, #26]	@ movhi
 397 034a 4FF4FA70 		mov	r0, #500
 398 034e FFF7FEFF 		bl	chThdSleep
 399              	.LVL56:
ARM GAS  /tmp/cc4P8XGp.s 			page 8


 400              		.loc 1 57 0 discriminator 1
 401 0352 A4F818A0 		strh	r10, [r4, #24]	@ movhi
 402 0356 4FF4FA70 		mov	r0, #500
 403 035a FFF7FEFF 		bl	chThdSleep
 404              	.LVL57:
 405 035e A4F81AA0 		strh	r10, [r4, #26]	@ movhi
 406 0362 4FF4FA70 		mov	r0, #500
 407 0366 FFF7FEFF 		bl	chThdSleep
 408              	.LVL58:
 409              		.loc 1 58 0 discriminator 1
 410 036a A4F81890 		strh	r9, [r4, #24]	@ movhi
 411 036e 4FF4FA70 		mov	r0, #500
 412 0372 FFF7FEFF 		bl	chThdSleep
 413              	.LVL59:
 414 0376 A4F81A90 		strh	r9, [r4, #26]	@ movhi
 415 037a 4FF4FA70 		mov	r0, #500
 416 037e FFF7FEFF 		bl	chThdSleep
 417              	.LVL60:
 418 0382 41E7     		b	.L2
 419              		.cfi_endproc
 420              	.LFE63:
 421              		.size	main, .-main
 422              		.text
 423              	.Letext0:
 424              		.file 2 "/usr/include/newlib/machine/_default_types.h"
 425              		.file 3 "/usr/include/newlib/stdint.h"
 426              		.file 4 "/opt/ChibiOS_2.6.6/os/ports/GCC/ARMCMx/chtypes.h"
 427              		.file 5 "/opt/ChibiOS_2.6.6/os/hal/platforms/STM32/GPIOv2/pal_lld.h"
 428              		.file 6 "/opt/ChibiOS_2.6.6/os/hal/include/hal.h"
 429              		.file 7 "/opt/ChibiOS_2.6.6/os/kernel/include/chsys.h"
 430              		.file 8 "/opt/ChibiOS_2.6.6/os/ports/common/ARMCMx/CMSIS/include/core_cm3.h"
 431              		.file 9 "/opt/ChibiOS_2.6.6/os/kernel/include/chthreads.h"