ARM GAS  /tmp/cc4P8XGp.s 			page 1


   1              		.syntax unified
   2              		.cpu cortex-m3
   3              		.fpu softvfp
   4              		.eabi_attribute 20, 1
   5              		.eabi_attribute 21, 1
   6              		.eabi_attribute 23, 3
   7              		.eabi_attribute 24, 1
   8              		.eabi_attribute 25, 1
   9              		.eabi_attribute 26, 1
  10              		.eabi_attribute 30, 2
  11              		.eabi_attribute 34, 1
  12              		.eabi_attribute 18, 4
  13              		.thumb
  14              		.file	"main.c"
  15              		.text
  16              	.Ltext0:
  17              		.cfi_sections	.debug_frame
  18              		.section	.text.startup.main,"ax",%progbits
  19              		.align	2
  20              		.global	main
  21              		.thumb
  22              		.thumb_func
  23              		.type	main, %function
  24              	main:
  25              	.LFB63:
  26              		.file 1 "main.c"
  27              		.loc 1 7 0
  28              		.cfi_startproc
  29              		@ Volatile: function does not return.
  30              		@ args = 0, pretend = 0, frame = 0
  31              		@ frame_needed = 0, uses_anonymous_args = 0
  32 0000 2DE98848 		push	{r3, r7, fp, lr}
  33              		.cfi_def_cfa_offset 16
  34              		.cfi_offset 3, -16
  35              		.cfi_offset 7, -12
  36              		.cfi_offset 11, -8
  37              		.cfi_offset 14, -4
  38              		.loc 1 8 0
  39 0004 FFF7FEFF 		bl	halInit
  40              	.LVL0:
  41              		.loc 1 9 0
  42 0008 FFF7FEFF 		bl	chSysInit
  43              	.LVL1:
  44              		.loc 1 11 0
  45 000c 4FF48060 		mov	r0, #1024
  46 0010 C4F20200 		movt	r0, 16386
  47 0014 0821     		movs	r1, #8
  48 0016 0122     		movs	r2, #1
  49 0018 FFF7FEFF 		bl	_pal_lld_setgroupmode
  50              	.LVL2:
  51              		.loc 1 12 0
  52 001c 4FF48060 		mov	r0, #1024
  53 0020 C4F20200 		movt	r0, 16386
  54 0024 1021     		movs	r1, #16
  55 0026 0122     		movs	r2, #1
  56 0028 FFF7FEFF 		bl	_pal_lld_setgroupmode
  57              	.LVL3:
ARM GAS  /tmp/cc4P8XGp.s 			page 2


  58              		.loc 1 13 0
  59 002c 4FF48060 		mov	r0, #1024
  60 0030 C4F20200 		movt	r0, 16386
  61 0034 2021     		movs	r1, #32
  62 0036 0122     		movs	r2, #1
  63 0038 FFF7FEFF 		bl	_pal_lld_setgroupmode
  64              	.LVL4:
  65              		.loc 1 14 0
  66 003c 4FF48060 		mov	r0, #1024
  67 0040 C4F20200 		movt	r0, 16386
  68 0044 4FF48061 		mov	r1, #1024
  69 0048 0122     		movs	r2, #1
  70 004a FFF7FEFF 		bl	_pal_lld_setgroupmode
  71              	.LVL5:
  72              		.loc 1 15 0
  73 004e 4FF48060 		mov	r0, #1024
  74 0052 C4F20200 		movt	r0, 16386
  75 0056 4FF40061 		mov	r1, #2048
  76 005a 0122     		movs	r2, #1
  77 005c FFF7FEFF 		bl	_pal_lld_setgroupmode
  78              	.LVL6:
  79              		.loc 1 16 0
  80 0060 4FF48060 		mov	r0, #1024
  81 0064 C4F20200 		movt	r0, 16386
  82 0068 4FF48051 		mov	r1, #4096
  83 006c 0122     		movs	r2, #1
  84 006e FFF7FEFF 		bl	_pal_lld_setgroupmode
  85              	.LVL7:
  86              		.loc 1 17 0
  87 0072 4FF48060 		mov	r0, #1024
  88 0076 C4F20200 		movt	r0, 16386
  89 007a 4FF40051 		mov	r1, #8192
  90 007e 0122     		movs	r2, #1
  91 0080 FFF7FEFF 		bl	_pal_lld_setgroupmode
  92              	.LVL8:
  93              		.loc 1 18 0
  94 0084 4FF48060 		mov	r0, #1024
  95 0088 C4F20200 		movt	r0, 16386
  96 008c 4FF48041 		mov	r1, #16384
  97 0090 0122     		movs	r2, #1
  98 0092 FFF7FEFF 		bl	_pal_lld_setgroupmode
  99              	.LVL9:
 100              		.loc 1 19 0
 101 0096 4FF48060 		mov	r0, #1024
 102 009a C4F20200 		movt	r0, 16386
 103 009e 4FF40041 		mov	r1, #32768
 104 00a2 0122     		movs	r2, #1
 105 00a4 FFF7FEFF 		bl	_pal_lld_setgroupmode
 106              	.LVL10:
 107              		.loc 1 20 0
 108 00a8 4FF48060 		mov	r0, #1024
 109 00ac C4F20200 		movt	r0, 16386
 110 00b0 4FF40071 		mov	r1, #512
 111 00b4 0122     		movs	r2, #1
 112 00b6 FFF7FEFF 		bl	_pal_lld_setgroupmode
 113              	.LVL11:
 114              		.loc 1 21 0
ARM GAS  /tmp/cc4P8XGp.s 			page 3


 115 00ba 0020     		movs	r0, #0
 116 00bc C4F20200 		movt	r0, 16386
 117 00c0 4FF48061 		mov	r1, #1024
 118 00c4 0122     		movs	r2, #1
 119 00c6 FFF7FEFF 		bl	_pal_lld_setgroupmode
 120              	.LVL12:
 121              		.loc 1 22 0
 122 00ca 4FF48060 		mov	r0, #1024
 123 00ce C4F20200 		movt	r0, 16386
 124 00d2 4FF48071 		mov	r1, #256
 125 00d6 0122     		movs	r2, #1
 126 00d8 FFF7FEFF 		bl	_pal_lld_setgroupmode
 127              	.LVL13:
 128              		.loc 1 23 0
 129 00dc 4FF48060 		mov	r0, #1024
 130 00e0 C4F20200 		movt	r0, 16386
 131 00e4 8021     		movs	r1, #128
 132 00e6 0122     		movs	r2, #1
 133 00e8 FFF7FEFF 		bl	_pal_lld_setgroupmode
 134              	.LVL14:
 135              		.loc 1 24 0
 136 00ec 0020     		movs	r0, #0
 137 00ee C4F20200 		movt	r0, 16386
 138 00f2 0221     		movs	r1, #2
 139 00f4 0122     		movs	r2, #1
 140 00f6 FFF7FEFF 		bl	_pal_lld_setgroupmode
 141              	.LVL15:
 142              		.loc 1 25 0
 143 00fa 0020     		movs	r0, #0
 144 00fc C4F20200 		movt	r0, 16386
 145 0100 0421     		movs	r1, #4
 146 0102 0122     		movs	r2, #1
 147 0104 FFF7FEFF 		bl	_pal_lld_setgroupmode
 148              	.LVL16:
 149              		.loc 1 26 0
 150 0108 0020     		movs	r0, #0
 151 010a C4F20200 		movt	r0, 16386
 152 010e 0821     		movs	r1, #8
 153 0110 0122     		movs	r2, #1
 154 0112 FFF7FEFF 		bl	_pal_lld_setgroupmode
 155              	.LVL17:
 156              		.loc 1 27 0
 157 0116 0020     		movs	r0, #0
 158 0118 C4F20200 		movt	r0, 16386
 159 011c 4FF48061 		mov	r1, #1024
 160 0120 0122     		movs	r2, #1
 161 0122 FFF7FEFF 		bl	_pal_lld_setgroupmode
 162              	.LVL18:
 163              		.loc 1 28 0
 164 0126 0020     		movs	r0, #0
 165 0128 C4F20200 		movt	r0, 16386
 166 012c 4FF40071 		mov	r1, #512
 167 0130 0122     		movs	r2, #1
 168 0132 FFF7FEFF 		bl	_pal_lld_setgroupmode
 169              	.LVL19:
 170              		.loc 1 29 0
 171 0136 0020     		movs	r0, #0
ARM GAS  /tmp/cc4P8XGp.s 			page 4


 172 0138 C4F20200 		movt	r0, 16386
 173 013c 4FF48071 		mov	r1, #256
 174 0140 0122     		movs	r2, #1
 175 0142 FFF7FEFF 		bl	_pal_lld_setgroupmode
 176              	.LVL20:
 177              		.loc 1 30 0
 178 0146 0020     		movs	r0, #0
 179 0148 C4F20200 		movt	r0, 16386
 180 014c 4FF40041 		mov	r1, #32768
 181 0150 0122     		movs	r2, #1
 182 0152 FFF7FEFF 		bl	_pal_lld_setgroupmode
 183              	.LVL21:
 184              		.loc 1 31 0
 185 0156 4FF40060 		mov	r0, #2048
 186 015a C4F20200 		movt	r0, 16386
 187 015e 4FF40061 		mov	r1, #2048
 188 0162 0122     		movs	r2, #1
 189 0164 FFF7FEFF 		bl	_pal_lld_setgroupmode
 190              	.LVL22:
 191              		.loc 1 32 0
 192 0168 4FF40060 		mov	r0, #2048
 193 016c C4F20200 		movt	r0, 16386
 194 0170 4FF48061 		mov	r1, #1024
 195 0174 0122     		movs	r2, #1
 196 0176 FFF7FEFF 		bl	_pal_lld_setgroupmode
 197              	.LVL23:
 198              		.loc 1 33 0
 199 017a 4FF40060 		mov	r0, #2048
 200 017e C4F20200 		movt	r0, 16386
 201 0182 4FF40071 		mov	r1, #512
 202 0186 0122     		movs	r2, #1
 203 0188 FFF7FEFF 		bl	_pal_lld_setgroupmode
 204              	.LVL24:
 205              		.loc 1 34 0
 206 018c 4FF40060 		mov	r0, #2048
 207 0190 C4F20200 		movt	r0, 16386
 208 0194 4FF48071 		mov	r1, #256
 209 0198 0122     		movs	r2, #1
 210 019a FFF7FEFF 		bl	_pal_lld_setgroupmode
 211              	.LVL25:
 212              		.loc 1 35 0
 213 019e 4FF40060 		mov	r0, #2048
 214 01a2 C4F20200 		movt	r0, 16386
 215 01a6 8021     		movs	r1, #128
 216 01a8 0122     		movs	r2, #1
 217 01aa FFF7FEFF 		bl	_pal_lld_setgroupmode
 218              	.LVL26:
 219              		.loc 1 36 0
 220 01ae 4FF40060 		mov	r0, #2048
 221 01b2 C4F20200 		movt	r0, 16386
 222 01b6 4021     		movs	r1, #64
 223 01b8 0122     		movs	r2, #1
 224 01ba FFF7FEFF 		bl	_pal_lld_setgroupmode
 225              	.LVL27:
 226              		.loc 1 37 0
 227 01be 4FF40060 		mov	r0, #2048
 228 01c2 C4F20200 		movt	r0, 16386
ARM GAS  /tmp/cc4P8XGp.s 			page 5


 229 01c6 0821     		movs	r1, #8
 230 01c8 0122     		movs	r2, #1
 231 01ca FFF7FEFF 		bl	_pal_lld_setgroupmode
 232              	.LVL28:
 233              		.loc 1 38 0
 234 01ce 4FF40060 		mov	r0, #2048
 235 01d2 C4F20200 		movt	r0, 16386
 236 01d6 0421     		movs	r1, #4
 237 01d8 0122     		movs	r2, #1
 238 01da FFF7FEFF 		bl	_pal_lld_setgroupmode
 239              	.LVL29:
 240              		.loc 1 39 0
 241 01de 4FF40060 		mov	r0, #2048
 242 01e2 C4F20200 		movt	r0, 16386
 243 01e6 0221     		movs	r1, #2
 244 01e8 0122     		movs	r2, #1
 245 01ea FFF7FEFF 		bl	_pal_lld_setgroupmode
 246              	.LVL30:
 247              		.loc 1 42 0
 248 01ee 4FF48066 		mov	r6, #1024
 249              		.loc 1 48 0
 250 01f2 0025     		movs	r5, #0
 251              		.loc 1 54 0
 252 01f4 4FF40064 		mov	r4, #2048
 253              		.loc 1 42 0
 254 01f8 4FF08008 		mov	r8, #128
 255 01fc C4F20206 		movt	r6, 16386
 256              		.loc 1 48 0
 257 0200 C4F20205 		movt	r5, 16386
 258              		.loc 1 54 0
 259 0204 C4F20204 		movt	r4, 16386
 260              	.L2:
 261              		.loc 1 42 0 discriminator 1
 262 0208 4FF08003 		mov	r3, #128	@ movhi
 263 020c 3383     		strh	r3, [r6, #24]	@ movhi
 264 020e 4FF4FA70 		mov	r0, #500
 265              		.loc 1 43 0 discriminator 1
 266 0212 4FF40049 		mov	r9, #32768
 267              		.loc 1 42 0 discriminator 1
 268 0216 FFF7FEFF 		bl	chThdSleep
 269              	.LVL31:
 270 021a A6F81A80 		strh	r8, [r6, #26]	@ movhi
 271 021e 4FF4FA70 		mov	r0, #500
 272 0222 FFF7FEFF 		bl	chThdSleep
 273              	.LVL32:
 274              		.loc 1 43 0 discriminator 1
 275 0226 A6F81890 		strh	r9, [r6, #24]	@ movhi
 276 022a 4FF4FA70 		mov	r0, #500
 277              		.loc 1 44 0 discriminator 1
 278 022e 4FF40077 		mov	r7, #512
 279              		.loc 1 43 0 discriminator 1
 280 0232 FFF7FEFF 		bl	chThdSleep
 281              	.LVL33:
 282 0236 A6F81A90 		strh	r9, [r6, #26]	@ movhi
 283 023a 4FF4FA70 		mov	r0, #500
 284 023e FFF7FEFF 		bl	chThdSleep
 285              	.LVL34:
ARM GAS  /tmp/cc4P8XGp.s 			page 6


 286              		.loc 1 44 0 discriminator 1
 287 0242 3783     		strh	r7, [r6, #24]	@ movhi
 288 0244 4FF4FA70 		mov	r0, #500
 289 0248 FFF7FEFF 		bl	chThdSleep
 290              	.LVL35:
 291              		.loc 1 45 0 discriminator 1
 292 024c 4FF4806B 		mov	fp, #1024
 293              		.loc 1 44 0 discriminator 1
 294 0250 7783     		strh	r7, [r6, #26]	@ movhi
 295 0252 4FF4FA70 		mov	r0, #500
 296 0256 FFF7FEFF 		bl	chThdSleep
 297              	.LVL36:
 298              		.loc 1 45 0 discriminator 1
 299 025a A6F818B0 		strh	fp, [r6, #24]	@ movhi
 300 025e 4FF4FA70 		mov	r0, #500
 301 0262 FFF7FEFF 		bl	chThdSleep
 302              	.LVL37:
 303              		.loc 1 46 0 discriminator 1
 304 0266 4FF4006A 		mov	r10, #2048
 305              		.loc 1 45 0 discriminator 1
 306 026a A6F81AB0 		strh	fp, [r6, #26]	@ movhi
 307 026e 4FF4FA70 		mov	r0, #500
 308 0272 FFF7FEFF 		bl	chThdSleep
 309              	.LVL38:
 310              		.loc 1 46 0 discriminator 1
 311 0276 A6F818A0 		strh	r10, [r6, #24]	@ movhi
 312 027a 4FF4FA70 		mov	r0, #500
 313 027e FFF7FEFF 		bl	chThdSleep
 314              	.LVL39:
 315 0282 A6F81AA0 		strh	r10, [r6, #26]	@ movhi
 316 0286 4FF4FA70 		mov	r0, #500
 317 028a FFF7FEFF 		bl	chThdSleep
 318              	.LVL40:
 319              		.loc 1 48 0 discriminator 1
 320 028e A5F81880 		strh	r8, [r5, #24]	@ movhi
 321 0292 4FF4FA70 		mov	r0, #500
 322 0296 FFF7FEFF 		bl	chThdSleep
 323              	.LVL41:
 324 029a A5F81A80 		strh	r8, [r5, #26]	@ movhi
 325 029e 4FF4FA70 		mov	r0, #500
 326 02a2 FFF7FEFF 		bl	chThdSleep
 327              	.LVL42:
 328              		.loc 1 49 0 discriminator 1
 329 02a6 A5F81890 		strh	r9, [r5, #24]	@ movhi
 330 02aa 4FF4FA70 		mov	r0, #500
 331 02ae FFF7FEFF 		bl	chThdSleep
 332              	.LVL43:
 333 02b2 A5F81A90 		strh	r9, [r5, #26]	@ movhi
 334 02b6 4FF4FA70 		mov	r0, #500
 335 02ba FFF7FEFF 		bl	chThdSleep
 336              	.LVL44:
 337              		.loc 1 50 0 discriminator 1
 338 02be 2F83     		strh	r7, [r5, #24]	@ movhi
 339 02c0 4FF4FA70 		mov	r0, #500
 340              		.loc 1 51 0 discriminator 1
 341 02c4 4FF4807A 		mov	r10, #256
 342              		.loc 1 50 0 discriminator 1
ARM GAS  /tmp/cc4P8XGp.s 			page 7


 343 02c8 FFF7FEFF 		bl	chThdSleep
 344              	.LVL45:
 345 02cc 6F83     		strh	r7, [r5, #26]	@ movhi
 346 02ce 4FF4FA70 		mov	r0, #500
 347 02d2 FFF7FEFF 		bl	chThdSleep
 348              	.LVL46:
 349              		.loc 1 51 0 discriminator 1
 350 02d6 A5F818A0 		strh	r10, [r5, #24]	@ movhi
 351 02da 4FF4FA70 		mov	r0, #500
 352              		.loc 1 52 0 discriminator 1
 353 02de 4FF00209 		mov	r9, #2
 354              		.loc 1 51 0 discriminator 1
 355 02e2 FFF7FEFF 		bl	chThdSleep
 356              	.LVL47:
 357 02e6 A5F81AA0 		strh	r10, [r5, #26]	@ movhi
 358 02ea 4FF4FA70 		mov	r0, #500
 359 02ee FFF7FEFF 		bl	chThdSleep
 360              	.LVL48:
 361              		.loc 1 52 0 discriminator 1
 362 02f2 A5F81890 		strh	r9, [r5, #24]	@ movhi
 363 02f6 4FF4FA70 		mov	r0, #500
 364 02fa FFF7FEFF 		bl	chThdSleep
 365              	.LVL49:
 366 02fe A5F81A90 		strh	r9, [r5, #26]	@ movhi
 367 0302 4FF4FA70 		mov	r0, #500
 368 0306 FFF7FEFF 		bl	chThdSleep
 369              	.LVL50:
 370              		.loc 1 54 0 discriminator 1
 371 030a A4F81880 		strh	r8, [r4, #24]	@ movhi
 372 030e 4FF4FA70 		mov	r0, #500
 373 0312 FFF7FEFF 		bl	chThdSleep
 374              	.LVL51:
 375              		.loc 1 55 0 discriminator 1
 376 0316 4FF0400B 		mov	fp, #64
 377              		.loc 1 54 0 discriminator 1
 378 031a A4F81A80 		strh	r8, [r4, #26]	@ movhi
 379 031e 4FF4FA70 		mov	r0, #500
 380 0322 FFF7FEFF 		bl	chThdSleep
 381              	.LVL52:
 382              		.loc 1 55 0 discriminator 1
 383 0326 A4F818B0 		strh	fp, [r4, #24]	@ movhi
 384 032a 4FF4FA70 		mov	r0, #500
 385 032e FFF7FEFF 		bl	chThdSleep
 386              	.LVL53:
 387 0332 A4F81AB0 		strh	fp, [r4, #26]	@ movhi
 388 0336 4FF4FA70 		mov	r0, #500
 389 033a FFF7FEFF 		bl	chThdSleep
 390              	.LVL54:
 391              		.loc 1 56 0 discriminator 1
 392 033e 2783     		strh	r7, [r4, #24]	@ movhi
 393 0340 4FF4FA70 		mov	r0, #500
 394 0344 FFF7FEFF 		bl	chThdSleep
 395              	.LVL55:
 396 0348 6783     		strh	r7, [r4, #26]	@ movhi
 397 034a 4FF4FA70 		mov	r0, #500
 398 034e FFF7FEFF 		bl	chThdSleep
 399              	.LVL56:
ARM GAS  /tmp/cc4P8XGp.s 			page 8


 400              		.loc 1 57 0 discriminator 1
 401 0352 A4F818A0 		strh	r10, [r4, #24]	@ movhi
 402 0356 4FF4FA70 		mov	r0, #500
 403 035a FFF7FEFF 		bl	chThdSleep
 404              	.LVL57:
 405 035e A4F81AA0 		strh	r10, [r4, #26]	@ movhi
 406 0362 4FF4FA70 		mov	r0, #500
 407 0366 FFF7FEFF 		bl	chThdSleep
 408              	.LVL58:
 409              		.loc 1 58 0 discriminator 1
 410 036a A4F81890 		strh	r9, [r4, #24]	@ movhi
 411 036e 4FF4FA70 		mov	r0, #500
 412 0372 FFF7FEFF 		bl	chThdSleep
 413              	.LVL59:
 414 0376 A4F81A90 		strh	r9, [r4, #26]	@ movhi
 415 037a 4FF4FA70 		mov	r0, #500
 416 037e FFF7FEFF 		bl	chThdSleep
 417              	.LVL60:
 418 0382 41E7     		b	.L2
 419              		.cfi_endproc
 420              	.LFE63:
 421              		.size	main, .-main
 422              		.text
 423              	.Letext0:
 424              		.file 2 "/usr/include/newlib/machine/_default_types.h"
 425              		.file 3 "/usr/include/newlib/stdint.h"
 426              		.file 4 "/opt/ChibiOS_2.6.6/os/ports/GCC/ARMCMx/chtypes.h"
 427              		.file 5 "/opt/ChibiOS_2.6.6/os/hal/platforms/STM32/GPIOv2/pal_lld.h"
 428              		.file 6 "/opt/ChibiOS_2.6.6/os/hal/include/hal.h"
 429              		.file 7 "/opt/ChibiOS_2.6.6/os/kernel/include/chsys.h"
 430              		.file 8 "/opt/ChibiOS_2.6.6/os/ports/common/ARMCMx/CMSIS/include/core_cm3.h"
 431              		.file 9 "/opt/ChibiOS_2.6.6/os/kernel/include/chthreads.h"
 432              		.section	.debug_info,"",%progbits
 433              	.Ldebug_info0:
 434 0000 88070000 		.4byte	0x788
 435 0004 0400     		.2byte	0x4
 436 0006 00000000 		.4byte	.Ldebug_abbrev0
 437 000a 04       		.byte	0x4
 438 000b 01       		.uleb128 0x1
 439 000c 3C000000 		.4byte	.LASF34
 440 0010 01       		.byte	0x1
 441 0011 EB010000 		.4byte	.LASF35
 442 0015 49010000 		.4byte	.LASF36
 443 0019 00000000 		.4byte	.Ldebug_ranges0+0
 444 001d 00000000 		.4byte	0
 445 0021 00000000 		.4byte	.Ldebug_line0
 446 0025 02       		.uleb128 0x2
 447 0026 04       		.byte	0x4
 448 0027 05       		.byte	0x5
 449 0028 696E7400 		.ascii	"int\000"
 450 002c 03       		.uleb128 0x3
 451 002d 04       		.byte	0x4
 452 002e 07       		.byte	0x7
 453 002f 9A010000 		.4byte	.LASF0
 454 0033 03       		.uleb128 0x3
 455 0034 01       		.byte	0x1
 456 0035 06       		.byte	0x6
ARM GAS  /tmp/cc4P8XGp.s 			page 9


 457 0036 18020000 		.4byte	.LASF1
 458 003a 03       		.uleb128 0x3
 459 003b 01       		.byte	0x1
 460 003c 08       		.byte	0x8
 461 003d E1000000 		.4byte	.LASF2
 462 0041 03       		.uleb128 0x3
 463 0042 02       		.byte	0x2
 464 0043 05       		.byte	0x5
 465 0044 32000000 		.4byte	.LASF3
 466 0048 04       		.uleb128 0x4
 467 0049 3E010000 		.4byte	.LASF5
 468 004d 02       		.byte	0x2
 469 004e 26       		.byte	0x26
 470 004f 53000000 		.4byte	0x53
 471 0053 03       		.uleb128 0x3
 472 0054 02       		.byte	0x2
 473 0055 07       		.byte	0x7
 474 0056 1B010000 		.4byte	.LASF4
 475 005a 04       		.uleb128 0x4
 476 005b 1B000000 		.4byte	.LASF6
 477 005f 02       		.byte	0x2
 478 0060 37       		.byte	0x37
 479 0061 65000000 		.4byte	0x65
 480 0065 03       		.uleb128 0x3
 481 0066 04       		.byte	0x4
 482 0067 05       		.byte	0x5
 483 0068 0F020000 		.4byte	.LASF7
 484 006c 04       		.uleb128 0x4
 485 006d 33010000 		.4byte	.LASF8
 486 0071 02       		.byte	0x2
 487 0072 38       		.byte	0x38
 488 0073 77000000 		.4byte	0x77
 489 0077 03       		.uleb128 0x3
 490 0078 04       		.byte	0x4
 491 0079 07       		.byte	0x7
 492 007a 09010000 		.4byte	.LASF9
 493 007e 03       		.uleb128 0x3
 494 007f 08       		.byte	0x8
 495 0080 05       		.byte	0x5
 496 0081 DD010000 		.4byte	.LASF10
 497 0085 03       		.uleb128 0x3
 498 0086 08       		.byte	0x8
 499 0087 07       		.byte	0x7
 500 0088 2A020000 		.4byte	.LASF11
 501 008c 04       		.uleb128 0x4
 502 008d FD010000 		.4byte	.LASF12
 503 0091 03       		.byte	0x3
 504 0092 36       		.byte	0x36
 505 0093 48000000 		.4byte	0x48
 506 0097 04       		.uleb128 0x4
 507 0098 C6010000 		.4byte	.LASF13
 508 009c 03       		.byte	0x3
 509 009d 41       		.byte	0x41
 510 009e 5A000000 		.4byte	0x5a
 511 00a2 04       		.uleb128 0x4
 512 00a3 06020000 		.4byte	.LASF14
 513 00a7 03       		.byte	0x3
ARM GAS  /tmp/cc4P8XGp.s 			page 10


 514 00a8 42       		.byte	0x42
 515 00a9 6C000000 		.4byte	0x6c
 516 00ad 03       		.uleb128 0x3
 517 00ae 01       		.byte	0x1
 518 00af 02       		.byte	0x2
 519 00b0 24020000 		.4byte	.LASF15
 520 00b4 04       		.uleb128 0x4
 521 00b5 11000000 		.4byte	.LASF16
 522 00b9 04       		.byte	0x4
 523 00ba 35       		.byte	0x35
 524 00bb A2000000 		.4byte	0xa2
 525 00bf 05       		.uleb128 0x5
 526 00c0 A2000000 		.4byte	0xa2
 527 00c4 03       		.uleb128 0x3
 528 00c5 04       		.byte	0x4
 529 00c6 07       		.byte	0x7
 530 00c7 CE010000 		.4byte	.LASF17
 531 00cb 03       		.uleb128 0x3
 532 00cc 01       		.byte	0x1
 533 00cd 08       		.byte	0x8
 534 00ce B4010000 		.4byte	.LASF18
 535 00d2 06       		.uleb128 0x6
 536 00d3 04       		.byte	0x4
 537 00d4 05       		.byte	0x5
 538 00d5 96       		.byte	0x96
 539 00d6 F3000000 		.4byte	0xf3
 540 00da 07       		.uleb128 0x7
 541 00db 73657400 		.ascii	"set\000"
 542 00df 05       		.byte	0x5
 543 00e0 97       		.byte	0x97
 544 00e1 8C000000 		.4byte	0x8c
 545 00e5 00       		.byte	0
 546 00e6 08       		.uleb128 0x8
 547 00e7 05000000 		.4byte	.LASF19
 548 00eb 05       		.byte	0x5
 549 00ec 98       		.byte	0x98
 550 00ed 8C000000 		.4byte	0x8c
 551 00f1 02       		.byte	0x2
 552 00f2 00       		.byte	0
 553 00f3 09       		.uleb128 0x9
 554 00f4 04       		.byte	0x4
 555 00f5 05       		.byte	0x5
 556 00f6 94       		.byte	0x94
 557 00f7 0E010000 		.4byte	0x10e
 558 00fb 0A       		.uleb128 0xa
 559 00fc 5700     		.ascii	"W\000"
 560 00fe 05       		.byte	0x5
 561 00ff 95       		.byte	0x95
 562 0100 A2000000 		.4byte	0xa2
 563 0104 0A       		.uleb128 0xa
 564 0105 4800     		.ascii	"H\000"
 565 0107 05       		.byte	0x5
 566 0108 99       		.byte	0x99
 567 0109 D2000000 		.4byte	0xd2
 568 010d 00       		.byte	0
 569 010e 06       		.uleb128 0x6
 570 010f 28       		.byte	0x28
ARM GAS  /tmp/cc4P8XGp.s 			page 11


 571 0110 05       		.byte	0x5
 572 0111 8C       		.byte	0x8c
 573 0112 8F010000 		.4byte	0x18f
 574 0116 08       		.uleb128 0x8
 575 0117 0B000000 		.4byte	.LASF20
 576 011b 05       		.byte	0x5
 577 011c 8E       		.byte	0x8e
 578 011d BF000000 		.4byte	0xbf
 579 0121 00       		.byte	0
 580 0122 08       		.uleb128 0x8
 581 0123 D1000000 		.4byte	.LASF21
 582 0127 05       		.byte	0x5
 583 0128 8F       		.byte	0x8f
 584 0129 BF000000 		.4byte	0xbf
 585 012d 04       		.byte	0x4
 586 012e 08       		.uleb128 0x8
 587 012f 7C010000 		.4byte	.LASF22
 588 0133 05       		.byte	0x5
 589 0134 90       		.byte	0x90
 590 0135 BF000000 		.4byte	0xbf
 591 0139 08       		.byte	0x8
 592 013a 08       		.uleb128 0x8
 593 013b D7010000 		.4byte	.LASF23
 594 013f 05       		.byte	0x5
 595 0140 91       		.byte	0x91
 596 0141 BF000000 		.4byte	0xbf
 597 0145 0C       		.byte	0xc
 598 0146 07       		.uleb128 0x7
 599 0147 49445200 		.ascii	"IDR\000"
 600 014b 05       		.byte	0x5
 601 014c 92       		.byte	0x92
 602 014d BF000000 		.4byte	0xbf
 603 0151 10       		.byte	0x10
 604 0152 07       		.uleb128 0x7
 605 0153 4F445200 		.ascii	"ODR\000"
 606 0157 05       		.byte	0x5
 607 0158 93       		.byte	0x93
 608 0159 BF000000 		.4byte	0xbf
 609 015d 14       		.byte	0x14
 610 015e 08       		.uleb128 0x8
 611 015f 25000000 		.4byte	.LASF24
 612 0163 05       		.byte	0x5
 613 0164 9A       		.byte	0x9a
 614 0165 8F010000 		.4byte	0x18f
 615 0169 18       		.byte	0x18
 616 016a 08       		.uleb128 0x8
 617 016b 00000000 		.4byte	.LASF25
 618 016f 05       		.byte	0x5
 619 0170 9B       		.byte	0x9b
 620 0171 BF000000 		.4byte	0xbf
 621 0175 1C       		.byte	0x1c
 622 0176 08       		.uleb128 0x8
 623 0177 2E010000 		.4byte	.LASF26
 624 017b 05       		.byte	0x5
 625 017c 9C       		.byte	0x9c
 626 017d BF000000 		.4byte	0xbf
 627 0181 20       		.byte	0x20
ARM GAS  /tmp/cc4P8XGp.s 			page 12


 628 0182 08       		.uleb128 0x8
 629 0183 04010000 		.4byte	.LASF27
 630 0187 05       		.byte	0x5
 631 0188 9D       		.byte	0x9d
 632 0189 BF000000 		.4byte	0xbf
 633 018d 24       		.byte	0x24
 634 018e 00       		.byte	0
 635 018f 05       		.uleb128 0x5
 636 0190 F3000000 		.4byte	0xf3
 637 0194 04       		.uleb128 0x4
 638 0195 A7010000 		.4byte	.LASF28
 639 0199 05       		.byte	0x5
 640 019a 9E       		.byte	0x9e
 641 019b 0E010000 		.4byte	0x10e
 642 019f 04       		.uleb128 0x4
 643 01a0 C4000000 		.4byte	.LASF29
 644 01a4 05       		.byte	0x5
 645 01a5 F0       		.byte	0xf0
 646 01a6 A2000000 		.4byte	0xa2
 647 01aa 04       		.uleb128 0x4
 648 01ab D8000000 		.4byte	.LASF30
 649 01af 05       		.byte	0x5
 650 01b0 F5       		.byte	0xf5
 651 01b1 A2000000 		.4byte	0xa2
 652 01b5 04       		.uleb128 0x4
 653 01b6 F2010000 		.4byte	.LASF31
 654 01ba 05       		.byte	0x5
 655 01bb FD       		.byte	0xfd
 656 01bc C0010000 		.4byte	0x1c0
 657 01c0 0B       		.uleb128 0xb
 658 01c1 04       		.byte	0x4
 659 01c2 94010000 		.4byte	0x194
 660 01c6 0C       		.uleb128 0xc
 661 01c7 77010000 		.4byte	.LASF37
 662 01cb 01       		.byte	0x1
 663 01cc 07       		.byte	0x7
 664 01cd 25000000 		.4byte	0x25
 665 01d1 00000000 		.4byte	.LFB63
 666 01d5 84030000 		.4byte	.LFE63-.LFB63
 667 01d9 01       		.uleb128 0x1
 668 01da 9C       		.byte	0x9c
 669 01db 42070000 		.4byte	0x742
 670 01df 0D       		.uleb128 0xd
 671 01e0 08000000 		.4byte	.LVL0
 672 01e4 53070000 		.4byte	0x753
 673 01e8 0D       		.uleb128 0xd
 674 01e9 0C000000 		.4byte	.LVL1
 675 01ed 5A070000 		.4byte	0x75a
 676 01f1 0E       		.uleb128 0xe
 677 01f2 1C000000 		.4byte	.LVL2
 678 01f6 61070000 		.4byte	0x761
 679 01fa 09020000 		.4byte	0x209
 680 01fe 0F       		.uleb128 0xf
 681 01ff 01       		.uleb128 0x1
 682 0200 52       		.byte	0x52
 683 0201 01       		.uleb128 0x1
 684 0202 31       		.byte	0x31
ARM GAS  /tmp/cc4P8XGp.s 			page 13


 685 0203 0F       		.uleb128 0xf
 686 0204 01       		.uleb128 0x1
 687 0205 51       		.byte	0x51
 688 0206 01       		.uleb128 0x1
 689 0207 38       		.byte	0x38
 690 0208 00       		.byte	0
 691 0209 0E       		.uleb128 0xe
 692 020a 2C000000 		.4byte	.LVL3
 693 020e 61070000 		.4byte	0x761
 694 0212 21020000 		.4byte	0x221
 695 0216 0F       		.uleb128 0xf
 696 0217 01       		.uleb128 0x1
 697 0218 52       		.byte	0x52
 698 0219 01       		.uleb128 0x1
 699 021a 31       		.byte	0x31
 700 021b 0F       		.uleb128 0xf
 701 021c 01       		.uleb128 0x1
 702 021d 51       		.byte	0x51
 703 021e 01       		.uleb128 0x1
 704 021f 40       		.byte	0x40
 705 0220 00       		.byte	0
 706 0221 0E       		.uleb128 0xe
 707 0222 3C000000 		.4byte	.LVL4
 708 0226 61070000 		.4byte	0x761
 709 022a 3A020000 		.4byte	0x23a
 710 022e 0F       		.uleb128 0xf
 711 022f 01       		.uleb128 0x1
 712 0230 52       		.byte	0x52
 713 0231 01       		.uleb128 0x1
 714 0232 31       		.byte	0x31
 715 0233 0F       		.uleb128 0xf
 716 0234 01       		.uleb128 0x1
 717 0235 51       		.byte	0x51
 718 0236 02       		.uleb128 0x2
 719 0237 08       		.byte	0x8
 720 0238 20       		.byte	0x20
 721 0239 00       		.byte	0
 722 023a 0E       		.uleb128 0xe
 723 023b 4E000000 		.4byte	.LVL5
 724 023f 61070000 		.4byte	0x761
 725 0243 54020000 		.4byte	0x254
 726 0247 0F       		.uleb128 0xf
 727 0248 01       		.uleb128 0x1
 728 0249 52       		.byte	0x52
 729 024a 01       		.uleb128 0x1
 730 024b 31       		.byte	0x31
 731 024c 0F       		.uleb128 0xf
 732 024d 01       		.uleb128 0x1
 733 024e 51       		.byte	0x51
 734 024f 03       		.uleb128 0x3
 735 0250 0A       		.byte	0xa
 736 0251 0004     		.2byte	0x400
 737 0253 00       		.byte	0
 738 0254 0E       		.uleb128 0xe
 739 0255 60000000 		.4byte	.LVL6
 740 0259 61070000 		.4byte	0x761
 741 025d 6E020000 		.4byte	0x26e
ARM GAS  /tmp/cc4P8XGp.s 			page 14


 742 0261 0F       		.uleb128 0xf
 743 0262 01       		.uleb128 0x1
 744 0263 52       		.byte	0x52
 745 0264 01       		.uleb128 0x1
 746 0265 31       		.byte	0x31
 747 0266 0F       		.uleb128 0xf
 748 0267 01       		.uleb128 0x1
 749 0268 51       		.byte	0x51
 750 0269 03       		.uleb128 0x3
 751 026a 0A       		.byte	0xa
 752 026b 0008     		.2byte	0x800
 753 026d 00       		.byte	0
 754 026e 0E       		.uleb128 0xe
 755 026f 72000000 		.4byte	.LVL7
 756 0273 61070000 		.4byte	0x761
 757 0277 88020000 		.4byte	0x288
 758 027b 0F       		.uleb128 0xf
 759 027c 01       		.uleb128 0x1
 760 027d 52       		.byte	0x52
 761 027e 01       		.uleb128 0x1
 762 027f 31       		.byte	0x31
 763 0280 0F       		.uleb128 0xf
 764 0281 01       		.uleb128 0x1
 765 0282 51       		.byte	0x51
 766 0283 03       		.uleb128 0x3
 767 0284 0A       		.byte	0xa
 768 0285 0010     		.2byte	0x1000
 769 0287 00       		.byte	0
 770 0288 0E       		.uleb128 0xe
 771 0289 84000000 		.4byte	.LVL8
 772 028d 61070000 		.4byte	0x761
 773 0291 A2020000 		.4byte	0x2a2
 774 0295 0F       		.uleb128 0xf
 775 0296 01       		.uleb128 0x1
 776 0297 52       		.byte	0x52
 777 0298 01       		.uleb128 0x1
 778 0299 31       		.byte	0x31
 779 029a 0F       		.uleb128 0xf
 780 029b 01       		.uleb128 0x1
 781 029c 51       		.byte	0x51
 782 029d 03       		.uleb128 0x3
 783 029e 0A       		.byte	0xa
 784 029f 0020     		.2byte	0x2000
 785 02a1 00       		.byte	0
 786 02a2 0E       		.uleb128 0xe
 787 02a3 96000000 		.4byte	.LVL9
 788 02a7 61070000 		.4byte	0x761
 789 02ab BC020000 		.4byte	0x2bc
 790 02af 0F       		.uleb128 0xf
 791 02b0 01       		.uleb128 0x1
 792 02b1 52       		.byte	0x52
 793 02b2 01       		.uleb128 0x1
 794 02b3 31       		.byte	0x31
 795 02b4 0F       		.uleb128 0xf
 796 02b5 01       		.uleb128 0x1
 797 02b6 51       		.byte	0x51
 798 02b7 03       		.uleb128 0x3
ARM GAS  /tmp/cc4P8XGp.s 			page 15


 799 02b8 0A       		.byte	0xa
 800 02b9 0040     		.2byte	0x4000
 801 02bb 00       		.byte	0
 802 02bc 0E       		.uleb128 0xe
 803 02bd A8000000 		.4byte	.LVL10
 804 02c1 61070000 		.4byte	0x761
 805 02c5 D6020000 		.4byte	0x2d6
 806 02c9 0F       		.uleb128 0xf
 807 02ca 01       		.uleb128 0x1
 808 02cb 52       		.byte	0x52
 809 02cc 01       		.uleb128 0x1
 810 02cd 31       		.byte	0x31
 811 02ce 0F       		.uleb128 0xf
 812 02cf 01       		.uleb128 0x1
 813 02d0 51       		.byte	0x51
 814 02d1 03       		.uleb128 0x3
 815 02d2 0A       		.byte	0xa
 816 02d3 0080     		.2byte	0x8000
 817 02d5 00       		.byte	0
 818 02d6 0E       		.uleb128 0xe
 819 02d7 BA000000 		.4byte	.LVL11
 820 02db 61070000 		.4byte	0x761
 821 02df F0020000 		.4byte	0x2f0
 822 02e3 0F       		.uleb128 0xf
 823 02e4 01       		.uleb128 0x1
 824 02e5 52       		.byte	0x52
 825 02e6 01       		.uleb128 0x1
 826 02e7 31       		.byte	0x31
 827 02e8 0F       		.uleb128 0xf
 828 02e9 01       		.uleb128 0x1
 829 02ea 51       		.byte	0x51
 830 02eb 03       		.uleb128 0x3
 831 02ec 0A       		.byte	0xa
 832 02ed 0002     		.2byte	0x200
 833 02ef 00       		.byte	0
 834 02f0 0E       		.uleb128 0xe
 835 02f1 CA000000 		.4byte	.LVL12
 836 02f5 61070000 		.4byte	0x761
 837 02f9 0A030000 		.4byte	0x30a
 838 02fd 0F       		.uleb128 0xf
 839 02fe 01       		.uleb128 0x1
 840 02ff 52       		.byte	0x52
 841 0300 01       		.uleb128 0x1
 842 0301 31       		.byte	0x31
 843 0302 0F       		.uleb128 0xf
 844 0303 01       		.uleb128 0x1
 845 0304 51       		.byte	0x51
 846 0305 03       		.uleb128 0x3
 847 0306 0A       		.byte	0xa
 848 0307 0004     		.2byte	0x400
 849 0309 00       		.byte	0
 850 030a 0E       		.uleb128 0xe
 851 030b DC000000 		.4byte	.LVL13
 852 030f 61070000 		.4byte	0x761
 853 0313 24030000 		.4byte	0x324
 854 0317 0F       		.uleb128 0xf
 855 0318 01       		.uleb128 0x1
ARM GAS  /tmp/cc4P8XGp.s 			page 16


 856 0319 52       		.byte	0x52
 857 031a 01       		.uleb128 0x1
 858 031b 31       		.byte	0x31
 859 031c 0F       		.uleb128 0xf
 860 031d 01       		.uleb128 0x1
 861 031e 51       		.byte	0x51
 862 031f 03       		.uleb128 0x3
 863 0320 0A       		.byte	0xa
 864 0321 0001     		.2byte	0x100
 865 0323 00       		.byte	0
 866 0324 0E       		.uleb128 0xe
 867 0325 EC000000 		.4byte	.LVL14
 868 0329 61070000 		.4byte	0x761
 869 032d 3D030000 		.4byte	0x33d
 870 0331 0F       		.uleb128 0xf
 871 0332 01       		.uleb128 0x1
 872 0333 52       		.byte	0x52
 873 0334 01       		.uleb128 0x1
 874 0335 31       		.byte	0x31
 875 0336 0F       		.uleb128 0xf
 876 0337 01       		.uleb128 0x1
 877 0338 51       		.byte	0x51
 878 0339 02       		.uleb128 0x2
 879 033a 08       		.byte	0x8
 880 033b 80       		.byte	0x80
 881 033c 00       		.byte	0
 882 033d 0E       		.uleb128 0xe
 883 033e FA000000 		.4byte	.LVL15
 884 0342 61070000 		.4byte	0x761
 885 0346 55030000 		.4byte	0x355
 886 034a 0F       		.uleb128 0xf
 887 034b 01       		.uleb128 0x1
 888 034c 52       		.byte	0x52
 889 034d 01       		.uleb128 0x1
 890 034e 31       		.byte	0x31
 891 034f 0F       		.uleb128 0xf
 892 0350 01       		.uleb128 0x1
 893 0351 51       		.byte	0x51
 894 0352 01       		.uleb128 0x1
 895 0353 32       		.byte	0x32
 896 0354 00       		.byte	0
 897 0355 0E       		.uleb128 0xe
 898 0356 08010000 		.4byte	.LVL16
 899 035a 61070000 		.4byte	0x761
 900 035e 6D030000 		.4byte	0x36d
 901 0362 0F       		.uleb128 0xf
 902 0363 01       		.uleb128 0x1
 903 0364 52       		.byte	0x52
 904 0365 01       		.uleb128 0x1
 905 0366 31       		.byte	0x31
 906 0367 0F       		.uleb128 0xf
 907 0368 01       		.uleb128 0x1
 908 0369 51       		.byte	0x51
 909 036a 01       		.uleb128 0x1
 910 036b 34       		.byte	0x34
 911 036c 00       		.byte	0
 912 036d 0E       		.uleb128 0xe
ARM GAS  /tmp/cc4P8XGp.s 			page 17


 913 036e 16010000 		.4byte	.LVL17
 914 0372 61070000 		.4byte	0x761
 915 0376 85030000 		.4byte	0x385
 916 037a 0F       		.uleb128 0xf
 917 037b 01       		.uleb128 0x1
 918 037c 52       		.byte	0x52
 919 037d 01       		.uleb128 0x1
 920 037e 31       		.byte	0x31
 921 037f 0F       		.uleb128 0xf
 922 0380 01       		.uleb128 0x1
 923 0381 51       		.byte	0x51
 924 0382 01       		.uleb128 0x1
 925 0383 38       		.byte	0x38
 926 0384 00       		.byte	0
 927 0385 0E       		.uleb128 0xe
 928 0386 26010000 		.4byte	.LVL18
 929 038a 61070000 		.4byte	0x761
 930 038e 9F030000 		.4byte	0x39f
 931 0392 0F       		.uleb128 0xf
 932 0393 01       		.uleb128 0x1
 933 0394 52       		.byte	0x52
 934 0395 01       		.uleb128 0x1
 935 0396 31       		.byte	0x31
 936 0397 0F       		.uleb128 0xf
 937 0398 01       		.uleb128 0x1
 938 0399 51       		.byte	0x51
 939 039a 03       		.uleb128 0x3
 940 039b 0A       		.byte	0xa
 941 039c 0004     		.2byte	0x400
 942 039e 00       		.byte	0
 943 039f 0E       		.uleb128 0xe
 944 03a0 36010000 		.4byte	.LVL19
 945 03a4 61070000 		.4byte	0x761
 946 03a8 B9030000 		.4byte	0x3b9
 947 03ac 0F       		.uleb128 0xf
 948 03ad 01       		.uleb128 0x1
 949 03ae 52       		.byte	0x52
 950 03af 01       		.uleb128 0x1
 951 03b0 31       		.byte	0x31
 952 03b1 0F       		.uleb128 0xf
 953 03b2 01       		.uleb128 0x1
 954 03b3 51       		.byte	0x51
 955 03b4 03       		.uleb128 0x3
 956 03b5 0A       		.byte	0xa
 957 03b6 0002     		.2byte	0x200
 958 03b8 00       		.byte	0
 959 03b9 0E       		.uleb128 0xe
 960 03ba 46010000 		.4byte	.LVL20
 961 03be 61070000 		.4byte	0x761
 962 03c2 D3030000 		.4byte	0x3d3
 963 03c6 0F       		.uleb128 0xf
 964 03c7 01       		.uleb128 0x1
 965 03c8 52       		.byte	0x52
 966 03c9 01       		.uleb128 0x1
 967 03ca 31       		.byte	0x31
 968 03cb 0F       		.uleb128 0xf
 969 03cc 01       		.uleb128 0x1
ARM GAS  /tmp/cc4P8XGp.s 			page 18


 970 03cd 51       		.byte	0x51
 971 03ce 03       		.uleb128 0x3
 972 03cf 0A       		.byte	0xa
 973 03d0 0001     		.2byte	0x100
 974 03d2 00       		.byte	0
 975 03d3 0E       		.uleb128 0xe
 976 03d4 56010000 		.4byte	.LVL21
 977 03d8 61070000 		.4byte	0x761
 978 03dc ED030000 		.4byte	0x3ed
 979 03e0 0F       		.uleb128 0xf
 980 03e1 01       		.uleb128 0x1
 981 03e2 52       		.byte	0x52
 982 03e3 01       		.uleb128 0x1
 983 03e4 31       		.byte	0x31
 984 03e5 0F       		.uleb128 0xf
 985 03e6 01       		.uleb128 0x1
 986 03e7 51       		.byte	0x51
 987 03e8 03       		.uleb128 0x3
 988 03e9 0A       		.byte	0xa
 989 03ea 0080     		.2byte	0x8000
 990 03ec 00       		.byte	0
 991 03ed 0E       		.uleb128 0xe
 992 03ee 68010000 		.4byte	.LVL22
 993 03f2 61070000 		.4byte	0x761
 994 03f6 07040000 		.4byte	0x407
 995 03fa 0F       		.uleb128 0xf
 996 03fb 01       		.uleb128 0x1
 997 03fc 52       		.byte	0x52
 998 03fd 01       		.uleb128 0x1
 999 03fe 31       		.byte	0x31
 1000 03ff 0F       		.uleb128 0xf
 1001 0400 01       		.uleb128 0x1
 1002 0401 51       		.byte	0x51
 1003 0402 03       		.uleb128 0x3
 1004 0403 0A       		.byte	0xa
 1005 0404 0008     		.2byte	0x800
 1006 0406 00       		.byte	0
 1007 0407 0E       		.uleb128 0xe
 1008 0408 7A010000 		.4byte	.LVL23
 1009 040c 61070000 		.4byte	0x761
 1010 0410 21040000 		.4byte	0x421
 1011 0414 0F       		.uleb128 0xf
 1012 0415 01       		.uleb128 0x1
 1013 0416 52       		.byte	0x52
 1014 0417 01       		.uleb128 0x1
 1015 0418 31       		.byte	0x31
 1016 0419 0F       		.uleb128 0xf
 1017 041a 01       		.uleb128 0x1
 1018 041b 51       		.byte	0x51
 1019 041c 03       		.uleb128 0x3
 1020 041d 0A       		.byte	0xa
 1021 041e 0004     		.2byte	0x400
 1022 0420 00       		.byte	0
 1023 0421 0E       		.uleb128 0xe
 1024 0422 8C010000 		.4byte	.LVL24
 1025 0426 61070000 		.4byte	0x761
 1026 042a 3B040000 		.4byte	0x43b
ARM GAS  /tmp/cc4P8XGp.s 			page 19


 1027 042e 0F       		.uleb128 0xf
 1028 042f 01       		.uleb128 0x1
 1029 0430 52       		.byte	0x52
 1030 0431 01       		.uleb128 0x1
 1031 0432 31       		.byte	0x31
 1032 0433 0F       		.uleb128 0xf
 1033 0434 01       		.uleb128 0x1
 1034 0435 51       		.byte	0x51
 1035 0436 03       		.uleb128 0x3
 1036 0437 0A       		.byte	0xa
 1037 0438 0002     		.2byte	0x200
 1038 043a 00       		.byte	0
 1039 043b 0E       		.uleb128 0xe
 1040 043c 9E010000 		.4byte	.LVL25
 1041 0440 61070000 		.4byte	0x761
 1042 0444 55040000 		.4byte	0x455
 1043 0448 0F       		.uleb128 0xf
 1044 0449 01       		.uleb128 0x1
 1045 044a 52       		.byte	0x52
 1046 044b 01       		.uleb128 0x1
 1047 044c 31       		.byte	0x31
 1048 044d 0F       		.uleb128 0xf
 1049 044e 01       		.uleb128 0x1
 1050 044f 51       		.byte	0x51
 1051 0450 03       		.uleb128 0x3
 1052 0451 0A       		.byte	0xa
 1053 0452 0001     		.2byte	0x100
 1054 0454 00       		.byte	0
 1055 0455 0E       		.uleb128 0xe
 1056 0456 AE010000 		.4byte	.LVL26
 1057 045a 61070000 		.4byte	0x761
 1058 045e 6E040000 		.4byte	0x46e
 1059 0462 0F       		.uleb128 0xf
 1060 0463 01       		.uleb128 0x1
 1061 0464 52       		.byte	0x52
 1062 0465 01       		.uleb128 0x1
 1063 0466 31       		.byte	0x31
 1064 0467 0F       		.uleb128 0xf
 1065 0468 01       		.uleb128 0x1
 1066 0469 51       		.byte	0x51
 1067 046a 02       		.uleb128 0x2
 1068 046b 08       		.byte	0x8
 1069 046c 80       		.byte	0x80
 1070 046d 00       		.byte	0
 1071 046e 0E       		.uleb128 0xe
 1072 046f BE010000 		.4byte	.LVL27
 1073 0473 61070000 		.4byte	0x761
 1074 0477 87040000 		.4byte	0x487
 1075 047b 0F       		.uleb128 0xf
 1076 047c 01       		.uleb128 0x1
 1077 047d 52       		.byte	0x52
 1078 047e 01       		.uleb128 0x1
 1079 047f 31       		.byte	0x31
 1080 0480 0F       		.uleb128 0xf
 1081 0481 01       		.uleb128 0x1
 1082 0482 51       		.byte	0x51
 1083 0483 02       		.uleb128 0x2
ARM GAS  /tmp/cc4P8XGp.s 			page 20


 1084 0484 08       		.byte	0x8
 1085 0485 40       		.byte	0x40
 1086 0486 00       		.byte	0
 1087 0487 0E       		.uleb128 0xe
 1088 0488 CE010000 		.4byte	.LVL28
 1089 048c 61070000 		.4byte	0x761
 1090 0490 9F040000 		.4byte	0x49f
 1091 0494 0F       		.uleb128 0xf
 1092 0495 01       		.uleb128 0x1
 1093 0496 52       		.byte	0x52
 1094 0497 01       		.uleb128 0x1
 1095 0498 31       		.byte	0x31
 1096 0499 0F       		.uleb128 0xf
 1097 049a 01       		.uleb128 0x1
 1098 049b 51       		.byte	0x51
 1099 049c 01       		.uleb128 0x1
 1100 049d 38       		.byte	0x38
 1101 049e 00       		.byte	0
 1102 049f 0E       		.uleb128 0xe
 1103 04a0 DE010000 		.4byte	.LVL29
 1104 04a4 61070000 		.4byte	0x761
 1105 04a8 B7040000 		.4byte	0x4b7
 1106 04ac 0F       		.uleb128 0xf
 1107 04ad 01       		.uleb128 0x1
 1108 04ae 52       		.byte	0x52
 1109 04af 01       		.uleb128 0x1
 1110 04b0 31       		.byte	0x31
 1111 04b1 0F       		.uleb128 0xf
 1112 04b2 01       		.uleb128 0x1
 1113 04b3 51       		.byte	0x51
 1114 04b4 01       		.uleb128 0x1
 1115 04b5 34       		.byte	0x34
 1116 04b6 00       		.byte	0
 1117 04b7 0E       		.uleb128 0xe
 1118 04b8 EE010000 		.4byte	.LVL30
 1119 04bc 61070000 		.4byte	0x761
 1120 04c0 CF040000 		.4byte	0x4cf
 1121 04c4 0F       		.uleb128 0xf
 1122 04c5 01       		.uleb128 0x1
 1123 04c6 52       		.byte	0x52
 1124 04c7 01       		.uleb128 0x1
 1125 04c8 31       		.byte	0x31
 1126 04c9 0F       		.uleb128 0xf
 1127 04ca 01       		.uleb128 0x1
 1128 04cb 51       		.byte	0x51
 1129 04cc 01       		.uleb128 0x1
 1130 04cd 32       		.byte	0x32
 1131 04ce 00       		.byte	0
 1132 04cf 0E       		.uleb128 0xe
 1133 04d0 1A020000 		.4byte	.LVL31
 1134 04d4 7D070000 		.4byte	0x77d
 1135 04d8 E4040000 		.4byte	0x4e4
 1136 04dc 0F       		.uleb128 0xf
 1137 04dd 01       		.uleb128 0x1
 1138 04de 50       		.byte	0x50
 1139 04df 03       		.uleb128 0x3
 1140 04e0 0A       		.byte	0xa
ARM GAS  /tmp/cc4P8XGp.s 			page 21


 1141 04e1 F401     		.2byte	0x1f4
 1142 04e3 00       		.byte	0
 1143 04e4 0E       		.uleb128 0xe
 1144 04e5 26020000 		.4byte	.LVL32
 1145 04e9 7D070000 		.4byte	0x77d
 1146 04ed F9040000 		.4byte	0x4f9
 1147 04f1 0F       		.uleb128 0xf
 1148 04f2 01       		.uleb128 0x1
 1149 04f3 50       		.byte	0x50
 1150 04f4 03       		.uleb128 0x3
 1151 04f5 0A       		.byte	0xa
 1152 04f6 F401     		.2byte	0x1f4
 1153 04f8 00       		.byte	0
 1154 04f9 0E       		.uleb128 0xe
 1155 04fa 36020000 		.4byte	.LVL33
 1156 04fe 7D070000 		.4byte	0x77d
 1157 0502 0E050000 		.4byte	0x50e
 1158 0506 0F       		.uleb128 0xf
 1159 0507 01       		.uleb128 0x1
 1160 0508 50       		.byte	0x50
 1161 0509 03       		.uleb128 0x3
 1162 050a 0A       		.byte	0xa
 1163 050b F401     		.2byte	0x1f4
 1164 050d 00       		.byte	0
 1165 050e 0E       		.uleb128 0xe
 1166 050f 42020000 		.4byte	.LVL34
 1167 0513 7D070000 		.4byte	0x77d
 1168 0517 23050000 		.4byte	0x523
 1169 051b 0F       		.uleb128 0xf
 1170 051c 01       		.uleb128 0x1
 1171 051d 50       		.byte	0x50
 1172 051e 03       		.uleb128 0x3
 1173 051f 0A       		.byte	0xa
 1174 0520 F401     		.2byte	0x1f4
 1175 0522 00       		.byte	0
 1176 0523 0E       		.uleb128 0xe
 1177 0524 4C020000 		.4byte	.LVL35
 1178 0528 7D070000 		.4byte	0x77d
 1179 052c 38050000 		.4byte	0x538
 1180 0530 0F       		.uleb128 0xf
 1181 0531 01       		.uleb128 0x1
 1182 0532 50       		.byte	0x50
 1183 0533 03       		.uleb128 0x3
 1184 0534 0A       		.byte	0xa
 1185 0535 F401     		.2byte	0x1f4
 1186 0537 00       		.byte	0
 1187 0538 0E       		.uleb128 0xe
 1188 0539 5A020000 		.4byte	.LVL36
 1189 053d 7D070000 		.4byte	0x77d
 1190 0541 4D050000 		.4byte	0x54d
 1191 0545 0F       		.uleb128 0xf
 1192 0546 01       		.uleb128 0x1
 1193 0547 50       		.byte	0x50
 1194 0548 03       		.uleb128 0x3
 1195 0549 0A       		.byte	0xa
 1196 054a F401     		.2byte	0x1f4
 1197 054c 00       		.byte	0
ARM GAS  /tmp/cc4P8XGp.s 			page 22


 1198 054d 0E       		.uleb128 0xe
 1199 054e 66020000 		.4byte	.LVL37
 1200 0552 7D070000 		.4byte	0x77d
 1201 0556 62050000 		.4byte	0x562
 1202 055a 0F       		.uleb128 0xf
 1203 055b 01       		.uleb128 0x1
 1204 055c 50       		.byte	0x50
 1205 055d 03       		.uleb128 0x3
 1206 055e 0A       		.byte	0xa
 1207 055f F401     		.2byte	0x1f4
 1208 0561 00       		.byte	0
 1209 0562 0E       		.uleb128 0xe
 1210 0563 76020000 		.4byte	.LVL38
 1211 0567 7D070000 		.4byte	0x77d
 1212 056b 77050000 		.4byte	0x577
 1213 056f 0F       		.uleb128 0xf
 1214 0570 01       		.uleb128 0x1
 1215 0571 50       		.byte	0x50
 1216 0572 03       		.uleb128 0x3
 1217 0573 0A       		.byte	0xa
 1218 0574 F401     		.2byte	0x1f4
 1219 0576 00       		.byte	0
 1220 0577 0E       		.uleb128 0xe
 1221 0578 82020000 		.4byte	.LVL39
 1222 057c 7D070000 		.4byte	0x77d
 1223 0580 8C050000 		.4byte	0x58c
 1224 0584 0F       		.uleb128 0xf
 1225 0585 01       		.uleb128 0x1
 1226 0586 50       		.byte	0x50
 1227 0587 03       		.uleb128 0x3
 1228 0588 0A       		.byte	0xa
 1229 0589 F401     		.2byte	0x1f4
 1230 058b 00       		.byte	0
 1231 058c 0E       		.uleb128 0xe
 1232 058d 8E020000 		.4byte	.LVL40
 1233 0591 7D070000 		.4byte	0x77d
 1234 0595 A1050000 		.4byte	0x5a1
 1235 0599 0F       		.uleb128 0xf
 1236 059a 01       		.uleb128 0x1
 1237 059b 50       		.byte	0x50
 1238 059c 03       		.uleb128 0x3
 1239 059d 0A       		.byte	0xa
 1240 059e F401     		.2byte	0x1f4
 1241 05a0 00       		.byte	0
 1242 05a1 0E       		.uleb128 0xe
 1243 05a2 9A020000 		.4byte	.LVL41
 1244 05a6 7D070000 		.4byte	0x77d
 1245 05aa B6050000 		.4byte	0x5b6
 1246 05ae 0F       		.uleb128 0xf
 1247 05af 01       		.uleb128 0x1
 1248 05b0 50       		.byte	0x50
 1249 05b1 03       		.uleb128 0x3
 1250 05b2 0A       		.byte	0xa
 1251 05b3 F401     		.2byte	0x1f4
 1252 05b5 00       		.byte	0
 1253 05b6 0E       		.uleb128 0xe
 1254 05b7 A6020000 		.4byte	.LVL42
ARM GAS  /tmp/cc4P8XGp.s 			page 23


 1255 05bb 7D070000 		.4byte	0x77d
 1256 05bf CB050000 		.4byte	0x5cb
 1257 05c3 0F       		.uleb128 0xf
 1258 05c4 01       		.uleb128 0x1
 1259 05c5 50       		.byte	0x50
 1260 05c6 03       		.uleb128 0x3
 1261 05c7 0A       		.byte	0xa
 1262 05c8 F401     		.2byte	0x1f4
 1263 05ca 00       		.byte	0
 1264 05cb 0E       		.uleb128 0xe
 1265 05cc B2020000 		.4byte	.LVL43
 1266 05d0 7D070000 		.4byte	0x77d
 1267 05d4 E0050000 		.4byte	0x5e0
 1268 05d8 0F       		.uleb128 0xf
 1269 05d9 01       		.uleb128 0x1
 1270 05da 50       		.byte	0x50
 1271 05db 03       		.uleb128 0x3
 1272 05dc 0A       		.byte	0xa
 1273 05dd F401     		.2byte	0x1f4
 1274 05df 00       		.byte	0
 1275 05e0 0E       		.uleb128 0xe
 1276 05e1 BE020000 		.4byte	.LVL44
 1277 05e5 7D070000 		.4byte	0x77d
 1278 05e9 F5050000 		.4byte	0x5f5
 1279 05ed 0F       		.uleb128 0xf
 1280 05ee 01       		.uleb128 0x1
 1281 05ef 50       		.byte	0x50
 1282 05f0 03       		.uleb128 0x3
 1283 05f1 0A       		.byte	0xa
 1284 05f2 F401     		.2byte	0x1f4
 1285 05f4 00       		.byte	0
 1286 05f5 0E       		.uleb128 0xe
 1287 05f6 CC020000 		.4byte	.LVL45
 1288 05fa 7D070000 		.4byte	0x77d
 1289 05fe 0A060000 		.4byte	0x60a
 1290 0602 0F       		.uleb128 0xf
 1291 0603 01       		.uleb128 0x1
 1292 0604 50       		.byte	0x50
 1293 0605 03       		.uleb128 0x3
 1294 0606 0A       		.byte	0xa
 1295 0607 F401     		.2byte	0x1f4
 1296 0609 00       		.byte	0
 1297 060a 0E       		.uleb128 0xe
 1298 060b D6020000 		.4byte	.LVL46
 1299 060f 7D070000 		.4byte	0x77d
 1300 0613 1F060000 		.4byte	0x61f
 1301 0617 0F       		.uleb128 0xf
 1302 0618 01       		.uleb128 0x1
 1303 0619 50       		.byte	0x50
 1304 061a 03       		.uleb128 0x3
 1305 061b 0A       		.byte	0xa
 1306 061c F401     		.2byte	0x1f4
 1307 061e 00       		.byte	0
 1308 061f 0E       		.uleb128 0xe
 1309 0620 E6020000 		.4byte	.LVL47
 1310 0624 7D070000 		.4byte	0x77d
 1311 0628 34060000 		.4byte	0x634
ARM GAS  /tmp/cc4P8XGp.s 			page 24


 1312 062c 0F       		.uleb128 0xf
 1313 062d 01       		.uleb128 0x1
 1314 062e 50       		.byte	0x50
 1315 062f 03       		.uleb128 0x3
 1316 0630 0A       		.byte	0xa
 1317 0631 F401     		.2byte	0x1f4
 1318 0633 00       		.byte	0
 1319 0634 0E       		.uleb128 0xe
 1320 0635 F2020000 		.4byte	.LVL48
 1321 0639 7D070000 		.4byte	0x77d
 1322 063d 49060000 		.4byte	0x649
 1323 0641 0F       		.uleb128 0xf
 1324 0642 01       		.uleb128 0x1
 1325 0643 50       		.byte	0x50
 1326 0644 03       		.uleb128 0x3
 1327 0645 0A       		.byte	0xa
 1328 0646 F401     		.2byte	0x1f4
 1329 0648 00       		.byte	0
 1330 0649 0E       		.uleb128 0xe
 1331 064a FE020000 		.4byte	.LVL49
 1332 064e 7D070000 		.4byte	0x77d
 1333 0652 5E060000 		.4byte	0x65e
 1334 0656 0F       		.uleb128 0xf
 1335 0657 01       		.uleb128 0x1
 1336 0658 50       		.byte	0x50
 1337 0659 03       		.uleb128 0x3
 1338 065a 0A       		.byte	0xa
 1339 065b F401     		.2byte	0x1f4
 1340 065d 00       		.byte	0
 1341 065e 0E       		.uleb128 0xe
 1342 065f 0A030000 		.4byte	.LVL50
 1343 0663 7D070000 		.4byte	0x77d
 1344 0667 73060000 		.4byte	0x673
 1345 066b 0F       		.uleb128 0xf
 1346 066c 01       		.uleb128 0x1
 1347 066d 50       		.byte	0x50
 1348 066e 03       		.uleb128 0x3
 1349 066f 0A       		.byte	0xa
 1350 0670 F401     		.2byte	0x1f4
 1351 0672 00       		.byte	0
 1352 0673 0E       		.uleb128 0xe
 1353 0674 16030000 		.4byte	.LVL51
 1354 0678 7D070000 		.4byte	0x77d
 1355 067c 88060000 		.4byte	0x688
 1356 0680 0F       		.uleb128 0xf
 1357 0681 01       		.uleb128 0x1
 1358 0682 50       		.byte	0x50
 1359 0683 03       		.uleb128 0x3
 1360 0684 0A       		.byte	0xa
 1361 0685 F401     		.2byte	0x1f4
 1362 0687 00       		.byte	0
 1363 0688 0E       		.uleb128 0xe
 1364 0689 26030000 		.4byte	.LVL52
 1365 068d 7D070000 		.4byte	0x77d
 1366 0691 9D060000 		.4byte	0x69d
 1367 0695 0F       		.uleb128 0xf
 1368 0696 01       		.uleb128 0x1
ARM GAS  /tmp/cc4P8XGp.s 			page 25


 1369 0697 50       		.byte	0x50
 1370 0698 03       		.uleb128 0x3
 1371 0699 0A       		.byte	0xa
 1372 069a F401     		.2byte	0x1f4
 1373 069c 00       		.byte	0
 1374 069d 0E       		.uleb128 0xe
 1375 069e 32030000 		.4byte	.LVL53
 1376 06a2 7D070000 		.4byte	0x77d
 1377 06a6 B2060000 		.4byte	0x6b2
 1378 06aa 0F       		.uleb128 0xf
 1379 06ab 01       		.uleb128 0x1
 1380 06ac 50       		.byte	0x50
 1381 06ad 03       		.uleb128 0x3
 1382 06ae 0A       		.byte	0xa
 1383 06af F401     		.2byte	0x1f4
 1384 06b1 00       		.byte	0
 1385 06b2 0E       		.uleb128 0xe
 1386 06b3 3E030000 		.4byte	.LVL54
 1387 06b7 7D070000 		.4byte	0x77d
 1388 06bb C7060000 		.4byte	0x6c7
 1389 06bf 0F       		.uleb128 0xf
 1390 06c0 01       		.uleb128 0x1
 1391 06c1 50       		.byte	0x50
 1392 06c2 03       		.uleb128 0x3
 1393 06c3 0A       		.byte	0xa
 1394 06c4 F401     		.2byte	0x1f4
 1395 06c6 00       		.byte	0
 1396 06c7 0E       		.uleb128 0xe
 1397 06c8 48030000 		.4byte	.LVL55
 1398 06cc 7D070000 		.4byte	0x77d
 1399 06d0 DC060000 		.4byte	0x6dc
 1400 06d4 0F       		.uleb128 0xf
 1401 06d5 01       		.uleb128 0x1
 1402 06d6 50       		.byte	0x50
 1403 06d7 03       		.uleb128 0x3
 1404 06d8 0A       		.byte	0xa
 1405 06d9 F401     		.2byte	0x1f4
 1406 06db 00       		.byte	0
 1407 06dc 0E       		.uleb128 0xe
 1408 06dd 52030000 		.4byte	.LVL56
 1409 06e1 7D070000 		.4byte	0x77d
 1410 06e5 F1060000 		.4byte	0x6f1
 1411 06e9 0F       		.uleb128 0xf
 1412 06ea 01       		.uleb128 0x1
 1413 06eb 50       		.byte	0x50
 1414 06ec 03       		.uleb128 0x3
 1415 06ed 0A       		.byte	0xa
 1416 06ee F401     		.2byte	0x1f4
 1417 06f0 00       		.byte	0
 1418 06f1 0E       		.uleb128 0xe
 1419 06f2 5E030000 		.4byte	.LVL57
 1420 06f6 7D070000 		.4byte	0x77d
 1421 06fa 06070000 		.4byte	0x706
 1422 06fe 0F       		.uleb128 0xf
 1423 06ff 01       		.uleb128 0x1
 1424 0700 50       		.byte	0x50
 1425 0701 03       		.uleb128 0x3
ARM GAS  /tmp/cc4P8XGp.s 			page 26


 1426 0702 0A       		.byte	0xa
 1427 0703 F401     		.2byte	0x1f4
 1428 0705 00       		.byte	0
 1429 0706 0E       		.uleb128 0xe
 1430 0707 6A030000 		.4byte	.LVL58
 1431 070b 7D070000 		.4byte	0x77d
 1432 070f 1B070000 		.4byte	0x71b
 1433 0713 0F       		.uleb128 0xf
 1434 0714 01       		.uleb128 0x1
 1435 0715 50       		.byte	0x50
 1436 0716 03       		.uleb128 0x3
 1437 0717 0A       		.byte	0xa
 1438 0718 F401     		.2byte	0x1f4
 1439 071a 00       		.byte	0
 1440 071b 0E       		.uleb128 0xe
 1441 071c 76030000 		.4byte	.LVL59
 1442 0720 7D070000 		.4byte	0x77d
 1443 0724 30070000 		.4byte	0x730
 1444 0728 0F       		.uleb128 0xf
 1445 0729 01       		.uleb128 0x1
 1446 072a 50       		.byte	0x50
 1447 072b 03       		.uleb128 0x3
 1448 072c 0A       		.byte	0xa
 1449 072d F401     		.2byte	0x1f4
 1450 072f 00       		.byte	0
 1451 0730 10       		.uleb128 0x10
 1452 0731 82030000 		.4byte	.LVL60
 1453 0735 7D070000 		.4byte	0x77d
 1454 0739 0F       		.uleb128 0xf
 1455 073a 01       		.uleb128 0x1
 1456 073b 50       		.byte	0x50
 1457 073c 03       		.uleb128 0x3
 1458 073d 0A       		.byte	0xa
 1459 073e F401     		.2byte	0x1f4
 1460 0740 00       		.byte	0
 1461 0741 00       		.byte	0
 1462 0742 11       		.uleb128 0x11
 1463 0743 B9010000 		.4byte	.LASF38
 1464 0747 08       		.byte	0x8
 1465 0748 0706     		.2byte	0x607
 1466 074a 4E070000 		.4byte	0x74e
 1467 074e 05       		.uleb128 0x5
 1468 074f 97000000 		.4byte	0x97
 1469 0753 12       		.uleb128 0x12
 1470 0754 2A000000 		.4byte	.LASF32
 1471 0758 06       		.byte	0x6
 1472 0759 D0       		.byte	0xd0
 1473 075a 12       		.uleb128 0x12
 1474 075b FA000000 		.4byte	.LASF33
 1475 075f 07       		.byte	0x7
 1476 0760 F6       		.byte	0xf6
 1477 0761 13       		.uleb128 0x13
 1478 0762 84010000 		.4byte	.LASF39
 1479 0766 05       		.byte	0x5
 1480 0767 C201     		.2byte	0x1c2
 1481 0769 7D070000 		.4byte	0x77d
 1482 076d 14       		.uleb128 0x14
ARM GAS  /tmp/cc4P8XGp.s 			page 27


 1483 076e B5010000 		.4byte	0x1b5
 1484 0772 14       		.uleb128 0x14
 1485 0773 9F010000 		.4byte	0x19f
 1486 0777 14       		.uleb128 0x14
 1487 0778 AA010000 		.4byte	0x1aa
 1488 077c 00       		.byte	0
 1489 077d 15       		.uleb128 0x15
 1490 077e EF000000 		.4byte	.LASF40
 1491 0782 09       		.byte	0x9
 1492 0783 7501     		.2byte	0x175
 1493 0785 14       		.uleb128 0x14
 1494 0786 B4000000 		.4byte	0xb4
 1495 078a 00       		.byte	0
 1496 078b 00       		.byte	0
 1497              		.section	.debug_abbrev,"",%progbits
 1498              	.Ldebug_abbrev0:
 1499 0000 01       		.uleb128 0x1
 1500 0001 11       		.uleb128 0x11
 1501 0002 01       		.byte	0x1
 1502 0003 25       		.uleb128 0x25
 1503 0004 0E       		.uleb128 0xe
 1504 0005 13       		.uleb128 0x13
 1505 0006 0B       		.uleb128 0xb
 1506 0007 03       		.uleb128 0x3
 1507 0008 0E       		.uleb128 0xe
 1508 0009 1B       		.uleb128 0x1b
 1509 000a 0E       		.uleb128 0xe
 1510 000b 55       		.uleb128 0x55
 1511 000c 17       		.uleb128 0x17
 1512 000d 11       		.uleb128 0x11
 1513 000e 01       		.uleb128 0x1
 1514 000f 10       		.uleb128 0x10
 1515 0010 17       		.uleb128 0x17
 1516 0011 00       		.byte	0
 1517 0012 00       		.byte	0
 1518 0013 02       		.uleb128 0x2
 1519 0014 24       		.uleb128 0x24
 1520 0015 00       		.byte	0
 1521 0016 0B       		.uleb128 0xb
 1522 0017 0B       		.uleb128 0xb
 1523 0018 3E       		.uleb128 0x3e
 1524 0019 0B       		.uleb128 0xb
 1525 001a 03       		.uleb128 0x3
 1526 001b 08       		.uleb128 0x8
 1527 001c 00       		.byte	0
 1528 001d 00       		.byte	0
 1529 001e 03       		.uleb128 0x3
 1530 001f 24       		.uleb128 0x24
 1531 0020 00       		.byte	0
 1532 0021 0B       		.uleb128 0xb
 1533 0022 0B       		.uleb128 0xb
 1534 0023 3E       		.uleb128 0x3e
 1535 0024 0B       		.uleb128 0xb
 1536 0025 03       		.uleb128 0x3
 1537 0026 0E       		.uleb128 0xe
 1538 0027 00       		.byte	0
 1539 0028 00       		.byte	0
ARM GAS  /tmp/cc4P8XGp.s 			page 28


 1540 0029 04       		.uleb128 0x4
 1541 002a 16       		.uleb128 0x16
 1542 002b 00       		.byte	0
 1543 002c 03       		.uleb128 0x3
 1544 002d 0E       		.uleb128 0xe
 1545 002e 3A       		.uleb128 0x3a
 1546 002f 0B       		.uleb128 0xb
 1547 0030 3B       		.uleb128 0x3b
 1548 0031 0B       		.uleb128 0xb
 1549 0032 49       		.uleb128 0x49
 1550 0033 13       		.uleb128 0x13
 1551 0034 00       		.byte	0
 1552 0035 00       		.byte	0
 1553 0036 05       		.uleb128 0x5
 1554 0037 35       		.uleb128 0x35
 1555 0038 00       		.byte	0
 1556 0039 49       		.uleb128 0x49
 1557 003a 13       		.uleb128 0x13
 1558 003b 00       		.byte	0
 1559 003c 00       		.byte	0
 1560 003d 06       		.uleb128 0x6
 1561 003e 13       		.uleb128 0x13
 1562 003f 01       		.byte	0x1
 1563 0040 0B       		.uleb128 0xb
 1564 0041 0B       		.uleb128 0xb
 1565 0042 3A       		.uleb128 0x3a
 1566 0043 0B       		.uleb128 0xb
 1567 0044 3B       		.uleb128 0x3b
 1568 0045 0B       		.uleb128 0xb
 1569 0046 01       		.uleb128 0x1
 1570 0047 13       		.uleb128 0x13
 1571 0048 00       		.byte	0
 1572 0049 00       		.byte	0
 1573 004a 07       		.uleb128 0x7
 1574 004b 0D       		.uleb128 0xd
 1575 004c 00       		.byte	0
 1576 004d 03       		.uleb128 0x3
 1577 004e 08       		.uleb128 0x8
 1578 004f 3A       		.uleb128 0x3a
 1579 0050 0B       		.uleb128 0xb
 1580 0051 3B       		.uleb128 0x3b
 1581 0052 0B       		.uleb128 0xb
 1582 0053 49       		.uleb128 0x49
 1583 0054 13       		.uleb128 0x13
 1584 0055 38       		.uleb128 0x38
 1585 0056 0B       		.uleb128 0xb
 1586 0057 00       		.byte	0
 1587 0058 00       		.byte	0
 1588 0059 08       		.uleb128 0x8
 1589 005a 0D       		.uleb128 0xd
 1590 005b 00       		.byte	0
 1591 005c 03       		.uleb128 0x3
 1592 005d 0E       		.uleb128 0xe
 1593 005e 3A       		.uleb128 0x3a
 1594 005f 0B       		.uleb128 0xb
 1595 0060 3B       		.uleb128 0x3b
 1596 0061 0B       		.uleb128 0xb
ARM GAS  /tmp/cc4P8XGp.s 			page 29


 1597 0062 49       		.uleb128 0x49
 1598 0063 13       		.uleb128 0x13
 1599 0064 38       		.uleb128 0x38
 1600 0065 0B       		.uleb128 0xb
 1601 0066 00       		.byte	0
 1602 0067 00       		.byte	0
 1603 0068 09       		.uleb128 0x9
 1604 0069 17       		.uleb128 0x17
 1605 006a 01       		.byte	0x1
 1606 006b 0B       		.uleb128 0xb
 1607 006c 0B       		.uleb128 0xb
 1608 006d 3A       		.uleb128 0x3a
 1609 006e 0B       		.uleb128 0xb
 1610 006f 3B       		.uleb128 0x3b
 1611 0070 0B       		.uleb128 0xb
 1612 0071 01       		.uleb128 0x1
 1613 0072 13       		.uleb128 0x13
 1614 0073 00       		.byte	0
 1615 0074 00       		.byte	0
 1616 0075 0A       		.uleb128 0xa
 1617 0076 0D       		.uleb128 0xd
 1618 0077 00       		.byte	0
 1619 0078 03       		.uleb128 0x3
 1620 0079 08       		.uleb128 0x8
 1621 007a 3A       		.uleb128 0x3a
 1622 007b 0B       		.uleb128 0xb
 1623 007c 3B       		.uleb128 0x3b
 1624 007d 0B       		.uleb128 0xb
 1625 007e 49       		.uleb128 0x49
 1626 007f 13       		.uleb128 0x13
 1627 0080 00       		.byte	0
 1628 0081 00       		.byte	0
 1629 0082 0B       		.uleb128 0xb
 1630 0083 0F       		.uleb128 0xf
 1631 0084 00       		.byte	0
 1632 0085 0B       		.uleb128 0xb
 1633 0086 0B       		.uleb128 0xb
 1634 0087 49       		.uleb128 0x49
 1635 0088 13       		.uleb128 0x13
 1636 0089 00       		.byte	0
 1637 008a 00       		.byte	0
 1638 008b 0C       		.uleb128 0xc
 1639 008c 2E       		.uleb128 0x2e
 1640 008d 01       		.byte	0x1
 1641 008e 3F       		.uleb128 0x3f
 1642 008f 19       		.uleb128 0x19
 1643 0090 03       		.uleb128 0x3
 1644 0091 0E       		.uleb128 0xe
 1645 0092 3A       		.uleb128 0x3a
 1646 0093 0B       		.uleb128 0xb
 1647 0094 3B       		.uleb128 0x3b
 1648 0095 0B       		.uleb128 0xb
 1649 0096 27       		.uleb128 0x27
 1650 0097 19       		.uleb128 0x19
 1651 0098 49       		.uleb128 0x49
 1652 0099 13       		.uleb128 0x13
 1653 009a 11       		.uleb128 0x11
ARM GAS  /tmp/cc4P8XGp.s 			page 30


 1654 009b 01       		.uleb128 0x1
 1655 009c 12       		.uleb128 0x12
 1656 009d 06       		.uleb128 0x6
 1657 009e 40       		.uleb128 0x40
 1658 009f 18       		.uleb128 0x18
 1659 00a0 9742     		.uleb128 0x2117
 1660 00a2 19       		.uleb128 0x19
 1661 00a3 01       		.uleb128 0x1
 1662 00a4 13       		.uleb128 0x13
 1663 00a5 00       		.byte	0
 1664 00a6 00       		.byte	0
 1665 00a7 0D       		.uleb128 0xd
 1666 00a8 898201   		.uleb128 0x4109
 1667 00ab 00       		.byte	0
 1668 00ac 11       		.uleb128 0x11
 1669 00ad 01       		.uleb128 0x1
 1670 00ae 31       		.uleb128 0x31
 1671 00af 13       		.uleb128 0x13
 1672 00b0 00       		.byte	0
 1673 00b1 00       		.byte	0
 1674 00b2 0E       		.uleb128 0xe
 1675 00b3 898201   		.uleb128 0x4109
 1676 00b6 01       		.byte	0x1
 1677 00b7 11       		.uleb128 0x11
 1678 00b8 01       		.uleb128 0x1
 1679 00b9 31       		.uleb128 0x31
 1680 00ba 13       		.uleb128 0x13
 1681 00bb 01       		.uleb128 0x1
 1682 00bc 13       		.uleb128 0x13
 1683 00bd 00       		.byte	0
 1684 00be 00       		.byte	0
 1685 00bf 0F       		.uleb128 0xf
 1686 00c0 8A8201   		.uleb128 0x410a
 1687 00c3 00       		.byte	0
 1688 00c4 02       		.uleb128 0x2
 1689 00c5 18       		.uleb128 0x18
 1690 00c6 9142     		.uleb128 0x2111
 1691 00c8 18       		.uleb128 0x18
 1692 00c9 00       		.byte	0
 1693 00ca 00       		.byte	0
 1694 00cb 10       		.uleb128 0x10
 1695 00cc 898201   		.uleb128 0x4109
 1696 00cf 01       		.byte	0x1
 1697 00d0 11       		.uleb128 0x11
 1698 00d1 01       		.uleb128 0x1
 1699 00d2 31       		.uleb128 0x31
 1700 00d3 13       		.uleb128 0x13
 1701 00d4 00       		.byte	0
 1702 00d5 00       		.byte	0
 1703 00d6 11       		.uleb128 0x11
 1704 00d7 34       		.uleb128 0x34
 1705 00d8 00       		.byte	0
 1706 00d9 03       		.uleb128 0x3
 1707 00da 0E       		.uleb128 0xe
 1708 00db 3A       		.uleb128 0x3a
 1709 00dc 0B       		.uleb128 0xb
 1710 00dd 3B       		.uleb128 0x3b
ARM GAS  /tmp/cc4P8XGp.s 			page 31


 1711 00de 05       		.uleb128 0x5
 1712 00df 49       		.uleb128 0x49
 1713 00e0 13       		.uleb128 0x13
 1714 00e1 3F       		.uleb128 0x3f
 1715 00e2 19       		.uleb128 0x19
 1716 00e3 3C       		.uleb128 0x3c
 1717 00e4 19       		.uleb128 0x19
 1718 00e5 00       		.byte	0
 1719 00e6 00       		.byte	0
 1720 00e7 12       		.uleb128 0x12
 1721 00e8 2E       		.uleb128 0x2e
 1722 00e9 00       		.byte	0
 1723 00ea 3F       		.uleb128 0x3f
 1724 00eb 19       		.uleb128 0x19
 1725 00ec 03       		.uleb128 0x3
 1726 00ed 0E       		.uleb128 0xe
 1727 00ee 3A       		.uleb128 0x3a
 1728 00ef 0B       		.uleb128 0xb
 1729 00f0 3B       		.uleb128 0x3b
 1730 00f1 0B       		.uleb128 0xb
 1731 00f2 27       		.uleb128 0x27
 1732 00f3 19       		.uleb128 0x19
 1733 00f4 3C       		.uleb128 0x3c
 1734 00f5 19       		.uleb128 0x19
 1735 00f6 00       		.byte	0
 1736 00f7 00       		.byte	0
 1737 00f8 13       		.uleb128 0x13
 1738 00f9 2E       		.uleb128 0x2e
 1739 00fa 01       		.byte	0x1
 1740 00fb 3F       		.uleb128 0x3f
 1741 00fc 19       		.uleb128 0x19
 1742 00fd 03       		.uleb128 0x3
 1743 00fe 0E       		.uleb128 0xe
 1744 00ff 3A       		.uleb128 0x3a
 1745 0100 0B       		.uleb128 0xb
 1746 0101 3B       		.uleb128 0x3b
 1747 0102 05       		.uleb128 0x5
 1748 0103 27       		.uleb128 0x27
 1749 0104 19       		.uleb128 0x19
 1750 0105 3C       		.uleb128 0x3c
 1751 0106 19       		.uleb128 0x19
 1752 0107 01       		.uleb128 0x1
 1753 0108 13       		.uleb128 0x13
 1754 0109 00       		.byte	0
 1755 010a 00       		.byte	0
 1756 010b 14       		.uleb128 0x14
 1757 010c 05       		.uleb128 0x5
 1758 010d 00       		.byte	0
 1759 010e 49       		.uleb128 0x49
 1760 010f 13       		.uleb128 0x13
 1761 0110 00       		.byte	0
 1762 0111 00       		.byte	0
 1763 0112 15       		.uleb128 0x15
 1764 0113 2E       		.uleb128 0x2e
 1765 0114 01       		.byte	0x1
 1766 0115 3F       		.uleb128 0x3f
 1767 0116 19       		.uleb128 0x19
ARM GAS  /tmp/cc4P8XGp.s 			page 32


 1768 0117 03       		.uleb128 0x3
 1769 0118 0E       		.uleb128 0xe
 1770 0119 3A       		.uleb128 0x3a
 1771 011a 0B       		.uleb128 0xb
 1772 011b 3B       		.uleb128 0x3b
 1773 011c 05       		.uleb128 0x5
 1774 011d 27       		.uleb128 0x27
 1775 011e 19       		.uleb128 0x19
 1776 011f 3C       		.uleb128 0x3c
 1777 0120 19       		.uleb128 0x19
 1778 0121 00       		.byte	0
 1779 0122 00       		.byte	0
 1780 0123 00       		.byte	0
 1781              		.section	.debug_aranges,"",%progbits
 1782 0000 1C000000 		.4byte	0x1c
 1783 0004 0200     		.2byte	0x2
 1784 0006 00000000 		.4byte	.Ldebug_info0
 1785 000a 04       		.byte	0x4
 1786 000b 00       		.byte	0
 1787 000c 0000     		.2byte	0
 1788 000e 0000     		.2byte	0
 1789 0010 00000000 		.4byte	.LFB63
 1790 0014 84030000 		.4byte	.LFE63-.LFB63
 1791 0018 00000000 		.4byte	0
 1792 001c 00000000 		.4byte	0
 1793              		.section	.debug_ranges,"",%progbits
 1794              	.Ldebug_ranges0:
 1795 0000 00000000 		.4byte	.LFB63
 1796 0004 84030000 		.4byte	.LFE63
 1797 0008 00000000 		.4byte	0
 1798 000c 00000000 		.4byte	0
 1799              		.section	.debug_line,"",%progbits
 1800              	.Ldebug_line0:
 1801 0000 5C020000 		.section	.debug_str,"MS",%progbits,1
 1801      02008F01 
 1801      00000201 
 1801      FB0E0D00 
 1801      01010101 
 1802              	.LASF25:
 1803 0000 4C434B52 		.ascii	"LCKR\000"
 1803      00
 1804              	.LASF19:
 1805 0005 636C6561 		.ascii	"clear\000"
 1805      7200
 1806              	.LASF20:
 1807 000b 4D4F4445 		.ascii	"MODER\000"
 1807      5200
 1808              	.LASF16:
 1809 0011 73797374 		.ascii	"systime_t\000"
 1809      696D655F 
 1809      7400
 1810              	.LASF6:
 1811 001b 5F5F696E 		.ascii	"__int32_t\000"
 1811      7433325F 
 1811      7400
 1812              	.LASF24:
 1813 0025 42535252 		.ascii	"BSRR\000"
ARM GAS  /tmp/cc4P8XGp.s 			page 33


 1813      00
 1814              	.LASF32:
 1815 002a 68616C49 		.ascii	"halInit\000"
 1815      6E697400 
 1816              	.LASF3:
 1817 0032 73686F72 		.ascii	"short int\000"
 1817      7420696E 
 1817      7400
 1818              	.LASF34:
 1819 003c 474E5520 		.ascii	"GNU C 4.8.2 -mcpu=cortex-m3 -mno-thumb-interwork -m"
 1819      4320342E 
 1819      382E3220 
 1819      2D6D6370 
 1819      753D636F 
 1820 006f 7468756D 		.ascii	"thumb -ggdb -O2 -fomit-frame-pointer -ffunction-sec"
 1820      62202D67 
 1820      67646220 
 1820      2D4F3220 
 1820      2D666F6D 
 1821 00a2 74696F6E 		.ascii	"tions -fdata-sections -fno-common\000"
 1821      73202D66 
 1821      64617461 
 1821      2D736563 
 1821      74696F6E 
 1822              	.LASF29:
 1823 00c4 696F706F 		.ascii	"ioportmask_t\000"
 1823      72746D61 
 1823      736B5F74 
 1823      00
 1824              	.LASF21:
 1825 00d1 4F545950 		.ascii	"OTYPER\000"
 1825      455200
 1826              	.LASF30:
 1827 00d8 696F6D6F 		.ascii	"iomode_t\000"
 1827      64655F74 
 1827      00
 1828              	.LASF2:
 1829 00e1 756E7369 		.ascii	"unsigned char\000"
 1829      676E6564 
 1829      20636861 
 1829      7200
 1830              	.LASF40:
 1831 00ef 63685468 		.ascii	"chThdSleep\000"
 1831      64536C65 
 1831      657000
 1832              	.LASF33:
 1833 00fa 63685379 		.ascii	"chSysInit\000"
 1833      73496E69 
 1833      7400
 1834              	.LASF27:
 1835 0104 41465248 		.ascii	"AFRH\000"
 1835      00
 1836              	.LASF9:
 1837 0109 6C6F6E67 		.ascii	"long unsigned int\000"
 1837      20756E73 
 1837      69676E65 
 1837      6420696E 
ARM GAS  /tmp/cc4P8XGp.s 			page 34


 1837      7400
 1838              	.LASF4:
 1839 011b 73686F72 		.ascii	"short unsigned int\000"
 1839      7420756E 
 1839      7369676E 
 1839      65642069 
 1839      6E7400
 1840              	.LASF26:
 1841 012e 4146524C 		.ascii	"AFRL\000"
 1841      00
 1842              	.LASF8:
 1843 0133 5F5F7569 		.ascii	"__uint32_t\000"
 1843      6E743332 
 1843      5F7400
 1844              	.LASF5:
 1845 013e 5F5F7569 		.ascii	"__uint16_t\000"
 1845      6E743136 
 1845      5F7400
 1846              	.LASF36:
 1847 0149 2F686F6D 		.ascii	"/home/uros/Dokumenti/stm/STM32L152ChibiOSDemo\000"
 1847      652F7572 
 1847      6F732F44 
 1847      6F6B756D 
 1847      656E7469 
 1848              	.LASF37:
 1849 0177 6D61696E 		.ascii	"main\000"
 1849      00
 1850              	.LASF22:
 1851 017c 4F535045 		.ascii	"OSPEEDR\000"
 1851      45445200 
 1852              	.LASF39:
 1853 0184 5F70616C 		.ascii	"_pal_lld_setgroupmode\000"
 1853      5F6C6C64 
 1853      5F736574 
 1853      67726F75 
 1853      706D6F64 
 1854              	.LASF0:
 1855 019a 756E7369 		.ascii	"unsigned int\000"
 1855      676E6564 
 1855      20696E74 
 1855      00
 1856              	.LASF28:
 1857 01a7 4750494F 		.ascii	"GPIO_TypeDef\000"
 1857      5F547970 
 1857      65446566 
 1857      00
 1858              	.LASF18:
 1859 01b4 63686172 		.ascii	"char\000"
 1859      00
 1860              	.LASF38:
 1861 01b9 49544D5F 		.ascii	"ITM_RxBuffer\000"
 1861      52784275 
 1861      66666572 
 1861      00
 1862              	.LASF13:
 1863 01c6 696E7433 		.ascii	"int32_t\000"
 1863      325F7400 
ARM GAS  /tmp/cc4P8XGp.s 			page 35


 1864              	.LASF17:
 1865 01ce 73697A65 		.ascii	"sizetype\000"
 1865      74797065 
 1865      00
 1866              	.LASF23:
 1867 01d7 50555044 		.ascii	"PUPDR\000"
 1867      5200
 1868              	.LASF10:
 1869 01dd 6C6F6E67 		.ascii	"long long int\000"
 1869      206C6F6E 
 1869      6720696E 
 1869      7400
 1870              	.LASF35:
 1871 01eb 6D61696E 		.ascii	"main.c\000"
 1871      2E6300
 1872              	.LASF31:
 1873 01f2 696F706F 		.ascii	"ioportid_t\000"
 1873      72746964 
 1873      5F7400
 1874              	.LASF12:
 1875 01fd 75696E74 		.ascii	"uint16_t\000"
 1875      31365F74 
 1875      00
 1876              	.LASF14:
 1877 0206 75696E74 		.ascii	"uint32_t\000"
 1877      33325F74 
 1877      00
 1878              	.LASF7:
 1879 020f 6C6F6E67 		.ascii	"long int\000"
 1879      20696E74 
 1879      00
 1880              	.LASF1:
 1881 0218 7369676E 		.ascii	"signed char\000"
 1881      65642063 
 1881      68617200 
 1882              	.LASF15:
 1883 0224 5F426F6F 		.ascii	"_Bool\000"
 1883      6C00
 1884              	.LASF11:
 1885 022a 6C6F6E67 		.ascii	"long long unsigned int\000"
 1885      206C6F6E 
 1885      6720756E 
 1885      7369676E 
 1885      65642069 
 1886              		.ident	"GCC: (4.8.2-14ubuntu1+6) 4.8.2"
ARM GAS  /tmp/cc4P8XGp.s 			page 36


DEFINED SYMBOLS
                            *ABS*:0000000000000000 main.c
     /tmp/cc4P8XGp.s:19     .text.startup.main:0000000000000000 $t
     /tmp/cc4P8XGp.s:24     .text.startup.main:0000000000000000 main
                     .debug_frame:0000000000000010 $d

UNDEFINED SYMBOLS
halInit
chSysInit
_pal_lld_setgroupmode
chThdSleep
