ARM GAS  /tmp/cc2WXUJy.s 			page 1


   1              		.syntax unified
   2              		.cpu cortex-m3
   3              		.fpu softvfp
   4              		.eabi_attribute 20, 1
   5              		.eabi_attribute 21, 1
   6              		.eabi_attribute 23, 3
   7              		.eabi_attribute 24, 1
   8              		.eabi_attribute 25, 1
   9              		.eabi_attribute 26, 1
  10              		.eabi_attribute 30, 2
  11              		.eabi_attribute 34, 1
  12              		.eabi_attribute 18, 4
  13              		.thumb
  14              		.file	"pal.c"
  15              		.text
  16              	.Ltext0:
  17              		.cfi_sections	.debug_frame
  18              		.section	.text.palReadBus,"ax",%progbits
  19              		.align	2
  20              		.global	palReadBus
  21              		.thumb
  22              		.thumb_func
  23              		.type	palReadBus, %function
  24              	palReadBus:
  25              	.LFB63:
  26              		.file 1 "/opt/ChibiOS_2.6.6/os/hal/src/pal.c"
  27              		.loc 1 77 0
  28              		.cfi_startproc
  29              		@ args = 0, pretend = 0, frame = 0
  30              		@ frame_needed = 0, uses_anonymous_args = 0
  31              		@ link register save eliminated.
  32              	.LVL0:
  33              		.loc 1 82 0
  34 0000 0368     		ldr	r3, [r0]
  35 0002 8268     		ldr	r2, [r0, #8]
  36 0004 1969     		ldr	r1, [r3, #16]
  37 0006 4368     		ldr	r3, [r0, #4]
  38 0008 21FA02F0 		lsr	r0, r1, r2
  39              	.LVL1:
  40              		.loc 1 83 0
  41 000c 1840     		ands	r0, r0, r3
  42 000e 7047     		bx	lr
  43              		.cfi_endproc
  44              	.LFE63:
  45              		.size	palReadBus, .-palReadBus
  46              		.section	.text.palWriteBus,"ax",%progbits
  47              		.align	2
  48              		.global	palWriteBus
  49              		.thumb
  50              		.thumb_func
  51              		.type	palWriteBus, %function
  52              	palWriteBus:
  53              	.LFB64:
  54              		.loc 1 103 0
  55              		.cfi_startproc
  56              		@ args = 0, pretend = 0, frame = 0
  57              		@ frame_needed = 0, uses_anonymous_args = 0
ARM GAS  /tmp/cc2WXUJy.s 			page 2


  58              		@ link register save eliminated.
  59              	.LVL2:
  60              		.loc 1 108 0
  61 0000 4268     		ldr	r2, [r0, #4]
  62 0002 8368     		ldr	r3, [r0, #8]
  63              		.loc 1 103 0
  64 0004 30B4     		push	{r4, r5}
  65              		.cfi_def_cfa_offset 8
  66              		.cfi_offset 4, -8
  67              		.cfi_offset 5, -4
  68              		.loc 1 108 0
  69 0006 22EA0105 		bic	r5, r2, r1
  70 000a 03F11004 		add	r4, r3, #16
  71 000e 0A40     		ands	r2, r2, r1
  72 0010 02FA03F3 		lsl	r3, r2, r3
  73 0014 05FA04F2 		lsl	r2, r5, r4
  74 0018 0068     		ldr	r0, [r0]
  75              	.LVL3:
  76 001a 1343     		orrs	r3, r3, r2
  77 001c 8361     		str	r3, [r0, #24]
  78              		.loc 1 109 0
  79 001e 30BC     		pop	{r4, r5}
  80 0020 7047     		bx	lr
  81              		.cfi_endproc
  82              	.LFE64:
  83              		.size	palWriteBus, .-palWriteBus
  84 0022 00BF     		.section	.text.palSetBusMode,"ax",%progbits
  85              		.align	2
  86              		.global	palSetBusMode
  87              		.thumb
  88              		.thumb_func
  89              		.type	palSetBusMode, %function
  90              	palSetBusMode:
  91              	.LFB65:
  92              		.loc 1 127 0
  93              		.cfi_startproc
  94              		@ args = 0, pretend = 0, frame = 0
  95              		@ frame_needed = 0, uses_anonymous_args = 0
  96              		@ link register save eliminated.
  97              	.LVL4:
  98 0000 10B4     		push	{r4}
  99              		.cfi_def_cfa_offset 4
 100              		.cfi_offset 4, -4
 101              		.loc 1 132 0
 102 0002 8368     		ldr	r3, [r0, #8]
 103 0004 4468     		ldr	r4, [r0, #4]
 104              		.loc 1 127 0
 105 0006 0A46     		mov	r2, r1
 106              		.loc 1 132 0
 107 0008 0068     		ldr	r0, [r0]
 108              	.LVL5:
 109 000a 04FA03F1 		lsl	r1, r4, r3
 110              	.LVL6:
 111              		.loc 1 133 0
 112 000e 5DF8044B 		ldr	r4, [sp], #4
 113              		.loc 1 132 0
 114 0012 FFF7FEBF 		b	_pal_lld_setgroupmode
ARM GAS  /tmp/cc2WXUJy.s 			page 3


 115              	.LVL7:
 116              		.cfi_endproc
 117              	.LFE65:
 118              		.size	palSetBusMode, .-palSetBusMode
 119 0016 00BF     		.text
 120              	.Letext0:
 121              		.file 2 "/usr/include/newlib/machine/_default_types.h"
 122              		.file 3 "/usr/include/newlib/stdint.h"
 123              		.file 4 "/opt/ChibiOS_2.6.6/os/hal/platforms/STM32/GPIOv2/pal_lld.h"
 124              		.file 5 "/opt/ChibiOS_2.6.6/os/hal/include/pal.h"
 125              		.file 6 "/opt/ChibiOS_2.6.6/os/ports/common/ARMCMx/CMSIS/include/core_cm3.h"