ARM GAS  /tmp/cchsqtxW.s 			page 1


   1              		.syntax unified
   2              		.cpu cortex-m3
   3              		.fpu softvfp
   4              		.eabi_attribute 20, 1
   5              		.eabi_attribute 21, 1
   6              		.eabi_attribute 23, 3
   7              		.eabi_attribute 24, 1
   8              		.eabi_attribute 25, 1
   9              		.eabi_attribute 26, 1
  10              		.eabi_attribute 30, 2
  11              		.eabi_attribute 34, 1
  12              		.eabi_attribute 18, 4
  13              		.thumb
  14              		.file	"serial_lld.c"
  15              		.text
  16              	.Ltext0:
  17              		.cfi_sections	.debug_frame
  18              		.section	.text.notify1,"ax",%progbits
  19              		.align	2
  20              		.thumb
  21              		.thumb_func
  22              		.type	notify1, %function
  23              	notify1:
  24              	.LFB67:
  25              		.file 1 "/opt/ChibiOS_2.6.6/os/hal/platforms/STM32/USARTv1/serial_lld.c"
  26              		.loc 1 204 0
  27              		.cfi_startproc
  28              		@ args = 0, pretend = 0, frame = 0
  29              		@ frame_needed = 0, uses_anonymous_args = 0
  30              		@ link register save eliminated.
  31              	.LVL0:
  32              		.loc 1 207 0
  33 0000 4FF46053 		mov	r3, #14336
  34 0004 C4F20103 		movt	r3, 16385
  35 0008 9A89     		ldrh	r2, [r3, #12]
  36 000a 92B2     		uxth	r2, r2
  37 000c 42F08002 		orr	r2, r2, #128
  38 0010 9A81     		strh	r2, [r3, #12]	@ movhi
  39 0012 7047     		bx	lr
  40              		.cfi_endproc
  41              	.LFE67:
  42              		.size	notify1, .-notify1
  43              		.section	.text.VectorD4,"ax",%progbits
  44              		.align	2
  45              		.global	VectorD4
  46              		.thumb
  47              		.thumb_func
  48              		.type	VectorD4, %function
  49              	VectorD4:
  50              	.LFB68:
  51              		.loc 1 264 0
  52              		.cfi_startproc
  53              		@ args = 0, pretend = 0, frame = 0
  54              		@ frame_needed = 0, uses_anonymous_args = 0
  55              	.LVL1:
  56 0000 F8B5     		push	{r3, r4, r5, r6, r7, lr}
  57              		.cfi_def_cfa_offset 24
ARM GAS  /tmp/cchsqtxW.s 			page 2


  58              		.cfi_offset 3, -24
  59              		.cfi_offset 4, -20
  60              		.cfi_offset 5, -16
  61              		.cfi_offset 6, -12
  62              		.cfi_offset 7, -8
  63              		.cfi_offset 14, -4
  64              	.LBB28:
  65              	.LBB29:
  66              		.loc 1 155 0
  67 0002 40F20006 		movw	r6, #:lower16:.LANCHOR0
  68 0006 C0F20006 		movt	r6, #:upper16:.LANCHOR0
  69 000a 756F     		ldr	r5, [r6, #116]
  70              	.LVL2:
  71              		.loc 1 156 0
  72 000c AF89     		ldrh	r7, [r5, #12]
  73              		.loc 1 157 0
  74 000e 2C88     		ldrh	r4, [r5]
  75              		.loc 1 156 0
  76 0010 BFB2     		uxth	r7, r7
  77              	.LVL3:
  78              		.loc 1 157 0
  79 0012 A4B2     		uxth	r4, r4
  80              	.LVL4:
  81              		.loc 1 160 0
  82 0014 E005     		lsls	r0, r4, #23
  83 0016 4BD4     		bmi	.L49
  84              	.L3:
  85              	.LBB30:
  86              		.loc 1 168 0
  87 0018 2023     		movs	r3, #32
  88              	@ 168 "/opt/ChibiOS_2.6.6/os/hal/platforms/STM32/USARTv1/serial_lld.c" 1
  89 001a 83F31188 		msr     BASEPRI, r3
  90              	@ 0 "" 2
  91              		.thumb
  92              	.LBE30:
  93              		.loc 1 169 0
  94 001e A106     		lsls	r1, r4, #26
  95 0020 24D5     		bpl	.L4
  96 0022 0BE0     		b	.L10
  97              	.LVL5:
  98              	.L5:
  99              		.loc 1 173 0
 100 0024 A988     		ldrh	r1, [r5, #4]
 101 0026 40F20000 		movw	r0, #:lower16:.LANCHOR0
 102 002a C0F20000 		movt	r0, #:upper16:.LANCHOR0
 103 002e C9B2     		uxtb	r1, r1
 104 0030 FFF7FEFF 		bl	sdIncomingDataI
 105              	.LVL6:
 106              		.loc 1 174 0
 107 0034 2C88     		ldrh	r4, [r5]
 108 0036 A4B2     		uxth	r4, r4
 109              	.LVL7:
 110              		.loc 1 169 0
 111 0038 A006     		lsls	r0, r4, #26
 112 003a 17D5     		bpl	.L4
 113              	.LVL8:
 114              	.L10:
ARM GAS  /tmp/cchsqtxW.s 			page 3


 115              		.loc 1 171 0
 116 003c 2207     		lsls	r2, r4, #28
 117 003e F1D0     		beq	.L5
 118              	.LVL9:
 119              	.LBB31:
 120              	.LBB32:
 121              		.loc 1 136 0
 122 0040 14F0080F 		tst	r4, #8
 123 0044 14BF     		ite	ne
 124 0046 8021     		movne	r1, #128
 125 0048 0021     		moveq	r1, #0
 126              	.LVL10:
 127              		.loc 1 140 0
 128 004a 14F0010F 		tst	r4, #1
 129              		.loc 1 141 0
 130 004e 18BF     		it	ne
 131 0050 41F02001 		orrne	r1, r1, #32
 132              	.LVL11:
 133              		.loc 1 142 0
 134 0054 A307     		lsls	r3, r4, #30
 135              		.loc 1 143 0
 136 0056 48BF     		it	mi
 137 0058 41F04001 		orrmi	r1, r1, #64
 138              	.LVL12:
 139              		.loc 1 144 0
 140 005c 6407     		lsls	r4, r4, #29
 141              	.LVL13:
 142              		.loc 1 146 0
 143 005e 2C48     		ldr	r0, .L53
 144              		.loc 1 145 0
 145 0060 48BF     		it	mi
 146 0062 41F48071 		orrmi	r1, r1, #256
 147              	.LVL14:
 148              		.loc 1 146 0
 149 0066 FFF7FEFF 		bl	chEvtBroadcastFlagsI
 150              	.LVL15:
 151 006a DBE7     		b	.L5
 152              	.LVL16:
 153              	.L4:
 154              	.LBE32:
 155              	.LBE31:
 156              	.LBB33:
 157              		.loc 1 176 0
 158 006c 0023     		movs	r3, #0
 159              	@ 176 "/opt/ChibiOS_2.6.6/os/hal/platforms/STM32/USARTv1/serial_lld.c" 1
 160 006e 83F31188 		msr     BASEPRI, r3
 161              	@ 0 "" 2
 162              		.thumb
 163              	.LBE33:
 164              		.loc 1 179 0
 165 0072 3906     		lsls	r1, r7, #24
 166 0074 01D5     		bpl	.L11
 167 0076 2206     		lsls	r2, r4, #24
 168 0078 29D4     		bmi	.L50
 169              	.L11:
 170              		.loc 1 193 0
 171 007a 6306     		lsls	r3, r4, #25
ARM GAS  /tmp/cchsqtxW.s 			page 4


 172 007c 14D5     		bpl	.L14
 173              	.LBB34:
 174              		.loc 1 194 0
 175 007e 2023     		movs	r3, #32
 176              	@ 194 "/opt/ChibiOS_2.6.6/os/hal/platforms/STM32/USARTv1/serial_lld.c" 1
 177 0080 83F31188 		msr     BASEPRI, r3
 178              	@ 0 "" 2
 179              		.thumb
 180              	.LBE34:
 181              		.loc 1 195 0
 182 0084 726C     		ldr	r2, [r6, #68]
 183 0086 B36C     		ldr	r3, [r6, #72]
 184 0088 40F20000 		movw	r0, #:lower16:.LANCHOR0
 185 008c 9A42     		cmp	r2, r3
 186 008e C0F20000 		movt	r0, #:upper16:.LANCHOR0
 187 0092 2BD0     		beq	.L51
 188              	.L15:
 189              		.loc 1 197 0
 190 0094 4FF6BF73 		movw	r3, #65471
 191 0098 3B40     		ands	r3, r3, r7
 192              		.loc 1 198 0
 193 009a 4FF6BF72 		movw	r2, #65471
 194              		.loc 1 197 0
 195 009e AB81     		strh	r3, [r5, #12]	@ movhi
 196              	.LBB35:
 197              		.loc 1 199 0
 198 00a0 0023     		movs	r3, #0
 199              	.LBE35:
 200              		.loc 1 198 0
 201 00a2 2A80     		strh	r2, [r5]	@ movhi
 202              	.LBB36:
 203              		.loc 1 199 0
 204              	@ 199 "/opt/ChibiOS_2.6.6/os/hal/platforms/STM32/USARTv1/serial_lld.c" 1
 205 00a4 83F31188 		msr     BASEPRI, r3
 206              	@ 0 "" 2
 207              		.thumb
 208              	.L14:
 209              	.LBE36:
 210              	.LBE29:
 211              	.LBE28:
 212              		.loc 1 271 0
 213 00a8 BDE8F840 		pop	{r3, r4, r5, r6, r7, lr}
 214              	.LVL17:
 215              		.loc 1 270 0
 216 00ac FFF7FEBF 		b	_port_irq_epilogue
 217              	.LVL18:
 218              	.L49:
 219              	.LBB44:
 220              	.LBB43:
 221              	.LBB37:
 222              		.loc 1 161 0
 223 00b0 2023     		movs	r3, #32
 224              	@ 161 "/opt/ChibiOS_2.6.6/os/hal/platforms/STM32/USARTv1/serial_lld.c" 1
 225 00b2 83F31188 		msr     BASEPRI, r3
 226              	@ 0 "" 2
 227              		.thumb
 228              	.LBE37:
ARM GAS  /tmp/cchsqtxW.s 			page 5


 229              		.loc 1 162 0
 230 00b6 4FF40071 		mov	r1, #512
 231 00ba 301D     		adds	r0, r6, #4
 232 00bc FFF7FEFF 		bl	chEvtBroadcastFlagsI
 233              	.LVL19:
 234              	.LBB38:
 235              		.loc 1 163 0
 236 00c0 0023     		movs	r3, #0
 237              	@ 163 "/opt/ChibiOS_2.6.6/os/hal/platforms/STM32/USARTv1/serial_lld.c" 1
 238 00c2 83F31188 		msr     BASEPRI, r3
 239              	@ 0 "" 2
 240              		.thumb
 241              	.LBE38:
 242              		.loc 1 164 0
 243 00c6 4FF6FF63 		movw	r3, #65279
 244 00ca 2B80     		strh	r3, [r5]	@ movhi
 245 00cc A4E7     		b	.L3
 246              	.LVL20:
 247              	.L50:
 248              	.LBB39:
 249              	.LBB40:
 250              		.loc 1 181 0
 251 00ce 2023     		movs	r3, #32
 252              	@ 181 "/opt/ChibiOS_2.6.6/os/hal/platforms/STM32/USARTv1/serial_lld.c" 1
 253 00d0 83F31188 		msr     BASEPRI, r3
 254              	@ 0 "" 2
 255              		.thumb
 256              	.LBE40:
 257              		.loc 1 182 0
 258 00d4 0F48     		ldr	r0, .L53+4
 259 00d6 FFF7FEFF 		bl	chOQGetI
 260              	.LVL21:
 261              		.loc 1 183 0
 262 00da 0028     		cmp	r0, #0
 263              		.loc 1 188 0
 264 00dc A4BF     		itt	ge
 265 00de 80B2     		uxthge	r0, r0
 266              	.LVL22:
 267 00e0 A880     		strhge	r0, [r5, #4]	@ movhi
 268              		.loc 1 183 0
 269 00e2 0BDB     		blt	.L52
 270              	.L13:
 271              	.LBB41:
 272              		.loc 1 189 0
 273 00e4 0023     		movs	r3, #0
 274              	@ 189 "/opt/ChibiOS_2.6.6/os/hal/platforms/STM32/USARTv1/serial_lld.c" 1
 275 00e6 83F31188 		msr     BASEPRI, r3
 276              	@ 0 "" 2
 277              		.thumb
 278 00ea C6E7     		b	.L11
 279              	.L51:
 280              	.LBE41:
 281              	.LBE39:
 282              		.loc 1 195 0
 283 00ec 836B     		ldr	r3, [r0, #56]
 284 00ee 002B     		cmp	r3, #0
 285 00f0 D0D0     		beq	.L15
ARM GAS  /tmp/cchsqtxW.s 			page 6


 286              		.loc 1 196 0
 287 00f2 0430     		adds	r0, r0, #4
 288 00f4 1021     		movs	r1, #16
 289 00f6 FFF7FEFF 		bl	chEvtBroadcastFlagsI
 290              	.LVL23:
 291 00fa CBE7     		b	.L15
 292              	.L52:
 293              	.LBB42:
 294              		.loc 1 184 0
 295 00fc 0448     		ldr	r0, .L53
 296 00fe 0821     		movs	r1, #8
 297 0100 FFF7FEFF 		bl	chEvtBroadcastFlagsI
 298              	.LVL24:
 299              		.loc 1 185 0
 300 0104 27F0C003 		bic	r3, r7, #192
 301 0108 43F04003 		orr	r3, r3, #64
 302 010c AB81     		strh	r3, [r5, #12]	@ movhi
 303 010e E9E7     		b	.L13
 304              	.L54:
 305              		.align	2
 306              	.L53:
 307 0110 04000000 		.word	.LANCHOR0+4
 308 0114 30000000 		.word	.LANCHOR0+48
 309              	.LBE42:
 310              	.LBE43:
 311              	.LBE44:
 312              		.cfi_endproc
 313              	.LFE68:
 314              		.size	VectorD4, .-VectorD4
 315              		.section	.text.sd_lld_init,"ax",%progbits
 316              		.align	2
 317              		.global	sd_lld_init
 318              		.thumb
 319              		.thumb_func
 320              		.type	sd_lld_init, %function
 321              	sd_lld_init:
 322              	.LFB69:
 323              		.loc 1 378 0
 324              		.cfi_startproc
 325              		@ args = 0, pretend = 0, frame = 0
 326              		@ frame_needed = 0, uses_anonymous_args = 0
 327 0000 10B5     		push	{r4, lr}
 328              		.cfi_def_cfa_offset 8
 329              		.cfi_offset 4, -8
 330              		.cfi_offset 14, -4
 331              		.loc 1 381 0
 332 0002 40F20004 		movw	r4, #:lower16:.LANCHOR0
 333 0006 C0F20004 		movt	r4, #:upper16:.LANCHOR0
 334 000a 40F20002 		movw	r2, #:lower16:notify1
 335 000e 2046     		mov	r0, r4
 336 0010 C0F20002 		movt	r2, #:upper16:notify1
 337 0014 0021     		movs	r1, #0
 338 0016 FFF7FEFF 		bl	sdObjectInit
 339              	.LVL25:
 340              		.loc 1 382 0
 341 001a 4FF46053 		mov	r3, #14336
 342 001e C4F20103 		movt	r3, 16385
ARM GAS  /tmp/cchsqtxW.s 			page 7


 343 0022 6367     		str	r3, [r4, #116]
 344 0024 10BD     		pop	{r4, pc}
 345              		.cfi_endproc
 346              	.LFE69:
 347              		.size	sd_lld_init, .-sd_lld_init
 348 0026 00BF     		.section	.text.sd_lld_start,"ax",%progbits
 349              		.align	2
 350              		.global	sd_lld_start
 351              		.thumb
 352              		.thumb_func
 353              		.type	sd_lld_start, %function
 354              	sd_lld_start:
 355              	.LFB70:
 356              		.loc 1 421 0
 357              		.cfi_startproc
 358              		@ args = 0, pretend = 0, frame = 0
 359              		@ frame_needed = 0, uses_anonymous_args = 0
 360              	.LVL26:
 361 0000 38B5     		push	{r3, r4, r5, lr}
 362              		.cfi_def_cfa_offset 16
 363              		.cfi_offset 3, -16
 364              		.cfi_offset 4, -12
 365              		.cfi_offset 5, -8
 366              		.cfi_offset 14, -4
 367              		.loc 1 424 0
 368 0002 40F20004 		movw	r4, #:lower16:.LANCHOR1
 369              		.loc 1 426 0
 370 0006 037A     		ldrb	r3, [r0, #8]	@ zero_extendqisi2
 371              		.loc 1 424 0
 372 0008 C0F20004 		movt	r4, #:upper16:.LANCHOR1
 373 000c 0029     		cmp	r1, #0
 374 000e 18BF     		it	ne
 375 0010 0C46     		movne	r4, r1
 376              	.LVL27:
 377              		.loc 1 426 0
 378 0012 012B     		cmp	r3, #1
 379              		.loc 1 421 0
 380 0014 0546     		mov	r5, r0
 381              		.loc 1 426 0
 382 0016 1FD0     		beq	.L62
 383              	.LVL28:
 384              	.L58:
 385              	.LBB45:
 386              	.LBB46:
 387              		.loc 1 101 0
 388 0018 2168     		ldr	r1, [r4]
 389 001a 4FF49042 		mov	r2, #18432
 390 001e C0F2E812 		movt	r2, 488
 391              	.LBE46:
 392              	.LBE45:
 393              		.loc 1 421 0
 394 0022 6B6F     		ldr	r3, [r5, #116]
 395              	.LVL29:
 396              	.LBB48:
 397              	.LBB47:
 398              		.loc 1 101 0
 399 0024 B2FBF1F2 		udiv	r2, r2, r1
ARM GAS  /tmp/cchsqtxW.s 			page 8


 400 0028 92B2     		uxth	r2, r2
 401 002a 1A81     		strh	r2, [r3, #8]	@ movhi
 402              		.loc 1 108 0
 403 002c A288     		ldrh	r2, [r4, #4]
 404              		.loc 1 106 0
 405 002e E188     		ldrh	r1, [r4, #6]
 406              		.loc 1 107 0
 407 0030 2089     		ldrh	r0, [r4, #8]
 408              		.loc 1 108 0
 409 0032 42F40452 		orr	r2, r2, #8448
 410              		.loc 1 106 0
 411 0036 41F04004 		orr	r4, r1, #64
 412              	.LVL30:
 413              		.loc 1 108 0
 414 003a 42F02C02 		orr	r2, r2, #44
 415              		.loc 1 107 0
 416 003e 40F00100 		orr	r0, r0, #1
 417              		.loc 1 108 0
 418 0042 92B2     		uxth	r2, r2
 419              		.loc 1 106 0
 420 0044 A4B2     		uxth	r4, r4
 421              		.loc 1 107 0
 422 0046 80B2     		uxth	r0, r0
 423              		.loc 1 111 0
 424 0048 0021     		movs	r1, #0
 425              		.loc 1 106 0
 426 004a 1C82     		strh	r4, [r3, #16]	@ movhi
 427              		.loc 1 107 0
 428 004c 9882     		strh	r0, [r3, #20]	@ movhi
 429              		.loc 1 108 0
 430 004e 9A81     		strh	r2, [r3, #12]	@ movhi
 431              		.loc 1 111 0
 432 0050 1980     		strh	r1, [r3]	@ movhi
 433              		.loc 1 112 0
 434 0052 1A88     		ldrh	r2, [r3]
 435              		.loc 1 113 0
 436 0054 9B88     		ldrh	r3, [r3, #4]
 437              	.LVL31:
 438 0056 38BD     		pop	{r3, r4, r5, pc}
 439              	.LVL32:
 440              	.L62:
 441              	.LBE47:
 442              	.LBE48:
 443              		.loc 1 428 0
 444 0058 40F20003 		movw	r3, #:lower16:.LANCHOR0
 445 005c C0F20003 		movt	r3, #:upper16:.LANCHOR0
 446 0060 9842     		cmp	r0, r3
 447 0062 D9D1     		bne	.L58
 448              		.loc 1 429 0
 449 0064 4FF46053 		mov	r3, #14336
 450 0068 C4F20203 		movt	r3, 16386
 451 006c 1A6A     		ldr	r2, [r3, #32]
 452              		.loc 1 430 0
 453 006e 2520     		movs	r0, #37
 454              	.LVL33:
 455              		.loc 1 429 0
 456 0070 42F48042 		orr	r2, r2, #16384
ARM GAS  /tmp/cchsqtxW.s 			page 9


 457 0074 1A62     		str	r2, [r3, #32]
 458              		.loc 1 430 0
 459 0076 C021     		movs	r1, #192
 460 0078 FFF7FEFF 		bl	nvicEnableVector
 461              	.LVL34:
 462 007c CCE7     		b	.L58
 463              		.cfi_endproc
 464              	.LFE70:
 465              		.size	sd_lld_start, .-sd_lld_start
 466 007e 00BF     		.section	.text.sd_lld_stop,"ax",%progbits
 467              		.align	2
 468              		.global	sd_lld_stop
 469              		.thumb
 470              		.thumb_func
 471              		.type	sd_lld_stop, %function
 472              	sd_lld_stop:
 473              	.LFB71:
 474              		.loc 1 482 0
 475              		.cfi_startproc
 476              		@ args = 0, pretend = 0, frame = 0
 477              		@ frame_needed = 0, uses_anonymous_args = 0
 478              		@ link register save eliminated.
 479              	.LVL35:
 480              		.loc 1 484 0
 481 0000 037A     		ldrb	r3, [r0, #8]	@ zero_extendqisi2
 482 0002 022B     		cmp	r3, #2
 483 0004 00D0     		beq	.L67
 484              	.L63:
 485 0006 7047     		bx	lr
 486              	.L67:
 487              		.loc 1 487 0
 488 0008 40F20003 		movw	r3, #:lower16:.LANCHOR0
 489              		.loc 1 485 0
 490 000c 426F     		ldr	r2, [r0, #116]
 491              	.LVL36:
 492              		.loc 1 487 0
 493 000e C0F20003 		movt	r3, #:upper16:.LANCHOR0
 494              	.LBB49:
 495              	.LBB50:
 496              		.loc 1 124 0
 497 0012 0021     		movs	r1, #0
 498              	.LBE50:
 499              	.LBE49:
 500              		.loc 1 487 0
 501 0014 9842     		cmp	r0, r3
 502              	.LBB52:
 503              	.LBB51:
 504              		.loc 1 124 0
 505 0016 9181     		strh	r1, [r2, #12]	@ movhi
 506              		.loc 1 125 0
 507 0018 1182     		strh	r1, [r2, #16]	@ movhi
 508              		.loc 1 126 0
 509 001a 9182     		strh	r1, [r2, #20]	@ movhi
 510              	.LBE51:
 511              	.LBE52:
 512              		.loc 1 487 0
 513 001c F3D1     		bne	.L63
ARM GAS  /tmp/cchsqtxW.s 			page 10


 514              		.loc 1 488 0
 515 001e 4FF46053 		mov	r3, #14336
 516 0022 C4F20203 		movt	r3, 16386
 517 0026 1A6A     		ldr	r2, [r3, #32]
 518              	.LVL37:
 519              		.loc 1 489 0
 520 0028 2520     		movs	r0, #37
 521              	.LVL38:
 522              		.loc 1 488 0
 523 002a 22F48042 		bic	r2, r2, #16384
 524 002e 1A62     		str	r2, [r3, #32]
 525              		.loc 1 489 0
 526 0030 FFF7FEBF 		b	nvicDisableVector
 527              	.LVL39:
 528              		.cfi_endproc
 529              	.LFE71:
 530              		.size	sd_lld_stop, .-sd_lld_stop
 531              		.global	SD1
 532              		.section	.rodata.default_config,"a",%progbits
 533              		.align	2
 534              		.set	.LANCHOR1,. + 0
 535              		.type	default_config, %object
 536              		.size	default_config, 12
 537              	default_config:
 538 0000 00960000 		.word	38400
 539 0004 0000     		.short	0
 540 0006 0040     		.short	16384
 541 0008 0000     		.short	0
 542 000a 0000     		.space	2
 543              		.section	.bss.SD1,"aw",%nobits
 544              		.align	2
 545              		.set	.LANCHOR0,. + 0
 546              		.type	SD1, %object
 547              		.size	SD1, 120
 548              	SD1:
 549 0000 00000000 		.space	120
 549      00000000 
 549      00000000 
 549      00000000 
 549      00000000 
 550              		.text
 551              	.Letext0:
 552              		.file 2 "/usr/lib/gcc/arm-none-eabi/4.8.2/include/stddef.h"
 553              		.file 3 "/usr/include/newlib/machine/_default_types.h"
 554              		.file 4 "/usr/include/newlib/stdint.h"
 555              		.file 5 "/opt/ChibiOS_2.6.6/os/ports/GCC/ARMCMx/chtypes.h"
 556              		.file 6 "/opt/ChibiOS_2.6.6/os/kernel/include/chlists.h"
 557              		.file 7 "/opt/ChibiOS_2.6.6/os/kernel/include/chthreads.h"
 558              		.file 8 "/opt/ChibiOS_2.6.6/os/ports/GCC/ARMCMx/chcore_v7m.h"
 559              		.file 9 "/opt/ChibiOS_2.6.6/os/kernel/include/chmtx.h"
 560              		.file 10 "/opt/ChibiOS_2.6.6/os/kernel/include/chevents.h"
 561              		.file 11 "/opt/ChibiOS_2.6.6/os/kernel/include/chqueues.h"
 562              		.file 12 "/opt/ChibiOS_2.6.6/os/hal/platforms/STM32L1xx/stm32l1xx.h"
 563              		.file 13 "/opt/ChibiOS_2.6.6/os/hal/include/serial.h"
 564              		.file 14 "/opt/ChibiOS_2.6.6/os/hal/platforms/STM32/USARTv1/serial_lld.h"
 565              		.file 15 "/opt/ChibiOS_2.6.6/os/ports/common/ARMCMx/nvic.h"
 566              		.file 16 "/opt/ChibiOS_2.6.6/os/ports/common/ARMCMx/CMSIS/include/core_cm3.h"
ARM GAS  /tmp/cchsqtxW.s 			page 11

