ARM GAS  /tmp/ccWqKJGf.s 			page 1


   1              		.syntax unified
   2              		.cpu cortex-m3
   3              		.fpu softvfp
   4              		.eabi_attribute 20, 1
   5              		.eabi_attribute 21, 1
   6              		.eabi_attribute 23, 3
   7              		.eabi_attribute 24, 1
   8              		.eabi_attribute 25, 1
   9              		.eabi_attribute 26, 1
  10              		.eabi_attribute 30, 2
  11              		.eabi_attribute 34, 1
  12              		.eabi_attribute 18, 4
  13              		.thumb
  14              		.file	"syscalls.c"
  15              		.text
  16              	.Ltext0:
  17              		.cfi_sections	.debug_frame
  18              		.section	.text._read_r,"ax",%progbits
  19              		.align	2
  20              		.global	_read_r
  21              		.thumb
  22              		.thumb_func
  23              		.type	_read_r, %function
  24              	_read_r:
  25              	.LFB7:
  26              		.file 1 "/opt/ChibiOS_2.6.6/os/various/syscalls.c"
  27              		.loc 1 76 0
  28              		.cfi_startproc
  29              		@ args = 0, pretend = 0, frame = 0
  30              		@ frame_needed = 0, uses_anonymous_args = 0
  31              		@ link register save eliminated.
  32              	.LVL0:
  33              		.loc 1 89 0
  34 0000 1623     		movs	r3, #22
  35              	.LVL1:
  36 0002 0360     		str	r3, [r0]
  37              		.loc 1 92 0
  38 0004 4FF0FF30 		mov	r0, #-1
  39              	.LVL2:
  40 0008 7047     		bx	lr
  41              		.cfi_endproc
  42              	.LFE7:
  43              		.size	_read_r, .-_read_r
  44              		.section	.text._lseek_r,"ax",%progbits
  45              		.align	2
  46              		.global	_lseek_r
  47              		.thumb
  48              		.thumb_func
  49              		.type	_lseek_r, %function
  50              	_lseek_r:
  51              	.LFB8:
  52              		.loc 1 97 0
  53              		.cfi_startproc
  54              		@ args = 0, pretend = 0, frame = 0
  55              		@ frame_needed = 0, uses_anonymous_args = 0
  56              		@ link register save eliminated.
  57              	.LVL3:
ARM GAS  /tmp/ccWqKJGf.s 			page 2


  58              		.loc 1 104 0
  59 0000 0020     		movs	r0, #0
  60              	.LVL4:
  61 0002 7047     		bx	lr
  62              		.cfi_endproc
  63              	.LFE8:
  64              		.size	_lseek_r, .-_lseek_r
  65              		.section	.text._write_r,"ax",%progbits
  66              		.align	2
  67              		.global	_write_r
  68              		.thumb
  69              		.thumb_func
  70              		.type	_write_r, %function
  71              	_write_r:
  72              	.LFB9:
  73              		.loc 1 109 0
  74              		.cfi_startproc
  75              		@ args = 0, pretend = 0, frame = 0
  76              		@ frame_needed = 0, uses_anonymous_args = 0
  77              		@ link register save eliminated.
  78              	.LVL5:
  79              		.loc 1 121 0
  80 0000 1846     		mov	r0, r3
  81              	.LVL6:
  82 0002 7047     		bx	lr
  83              		.cfi_endproc
  84              	.LFE9:
  85              		.size	_write_r, .-_write_r
  86              		.section	.text._close_r,"ax",%progbits
  87              		.align	2
  88              		.global	_close_r
  89              		.thumb
  90              		.thumb_func
  91              		.type	_close_r, %function
  92              	_close_r:
  93              	.LFB10:
  94              		.loc 1 126 0
  95              		.cfi_startproc
  96              		@ args = 0, pretend = 0, frame = 0
  97              		@ frame_needed = 0, uses_anonymous_args = 0
  98              		@ link register save eliminated.
  99              	.LVL7:
 100              		.loc 1 131 0
 101 0000 0020     		movs	r0, #0
 102              	.LVL8:
 103 0002 7047     		bx	lr
 104              		.cfi_endproc
 105              	.LFE10:
 106              		.size	_close_r, .-_close_r
 107              		.section	.text._sbrk_r,"ax",%progbits
 108              		.align	2
 109              		.global	_sbrk_r
 110              		.thumb
 111              		.thumb_func
 112              		.type	_sbrk_r, %function
 113              	_sbrk_r:
 114              	.LFB11:
ARM GAS  /tmp/ccWqKJGf.s 			page 3


 115              		.loc 1 136 0
 116              		.cfi_startproc
 117              		@ args = 0, pretend = 0, frame = 0
 118              		@ frame_needed = 0, uses_anonymous_args = 0
 119              	.LVL9:
 120 0000 10B5     		push	{r4, lr}
 121              		.cfi_def_cfa_offset 8
 122              		.cfi_offset 4, -8
 123              		.cfi_offset 14, -4
 124              		.loc 1 136 0
 125 0002 0446     		mov	r4, r0
 126              		.loc 1 142 0
 127 0004 0846     		mov	r0, r1
 128              	.LVL10:
 129 0006 FFF7FEFF 		bl	chCoreAlloc
 130              	.LVL11:
 131              		.loc 1 143 0
 132 000a 00B1     		cbz	r0, .L9
 133              		.loc 1 153 0
 134 000c 10BD     		pop	{r4, pc}
 135              	.LVL12:
 136              	.L9:
 137              		.loc 1 144 0
 138 000e 0C23     		movs	r3, #12
 139 0010 2360     		str	r3, [r4]
 140              		.loc 1 145 0
 141 0012 4FF0FF30 		mov	r0, #-1
 142              	.LVL13:
 143              		.loc 1 153 0
 144 0016 10BD     		pop	{r4, pc}
 145              		.cfi_endproc
 146              	.LFE11:
 147              		.size	_sbrk_r, .-_sbrk_r
 148              		.section	.text._fstat_r,"ax",%progbits
 149              		.align	2
 150              		.global	_fstat_r
 151              		.thumb
 152              		.thumb_func
 153              		.type	_fstat_r, %function
 154              	_fstat_r:
 155              	.LFB12:
 156              		.loc 1 158 0
 157              		.cfi_startproc
 158              		@ args = 0, pretend = 0, frame = 0
 159              		@ frame_needed = 0, uses_anonymous_args = 0
 160              	.LVL14:
 161 0000 10B5     		push	{r4, lr}
 162              		.cfi_def_cfa_offset 8
 163              		.cfi_offset 4, -8
 164              		.cfi_offset 14, -4
 165              		.loc 1 162 0
 166 0002 1046     		mov	r0, r2
 167              	.LVL15:
 168              		.loc 1 158 0
 169 0004 1446     		mov	r4, r2
 170              		.loc 1 162 0
 171 0006 0021     		movs	r1, #0
ARM GAS  /tmp/ccWqKJGf.s 			page 4


 172              	.LVL16:
 173 0008 3C22     		movs	r2, #60
 174              	.LVL17:
 175 000a FFF7FEFF 		bl	memset
 176              	.LVL18:
 177              		.loc 1 163 0
 178 000e 4FF40053 		mov	r3, #8192
 179 0012 6360     		str	r3, [r4, #4]
 180              		.loc 1 165 0
 181 0014 0020     		movs	r0, #0
 182 0016 10BD     		pop	{r4, pc}
 183              		.cfi_endproc
 184              	.LFE12:
 185              		.size	_fstat_r, .-_fstat_r
 186              		.section	.text._isatty_r,"ax",%progbits
 187              		.align	2
 188              		.global	_isatty_r
 189              		.thumb
 190              		.thumb_func
 191              		.type	_isatty_r, %function
 192              	_isatty_r:
 193              	.LFB13:
 194              		.loc 1 170 0
 195              		.cfi_startproc
 196              		@ args = 0, pretend = 0, frame = 0
 197              		@ frame_needed = 0, uses_anonymous_args = 0
 198              		@ link register save eliminated.
 199              	.LVL19:
 200              		.loc 1 175 0
 201 0000 0120     		movs	r0, #1
 202              	.LVL20:
 203 0002 7047     		bx	lr
 204              		.cfi_endproc
 205              	.LFE13:
 206              		.size	_isatty_r, .-_isatty_r
 207              		.text
 208              	.Letext0:
 209              		.file 2 "/usr/lib/gcc/arm-none-eabi/4.8.2/include/stddef.h"
 210              		.file 3 "/usr/include/newlib/sys/lock.h"
 211              		.file 4 "/usr/include/newlib/sys/_types.h"
 212              		.file 5 "/usr/include/newlib/sys/reent.h"
 213              		.file 6 "/usr/include/newlib/sys/types.h"
 214              		.file 7 "/usr/include/newlib/sys/stat.h"
 215              		.file 8 "/opt/ChibiOS_2.6.6/os/kernel/include/chmemcore.h"