ARM GAS  /tmp/ccLB3ATm.s 			page 1


   1              		.syntax unified
   2              		.cpu cortex-m3
   3              		.fpu softvfp
   4              		.eabi_attribute 20, 1
   5              		.eabi_attribute 21, 1
   6              		.eabi_attribute 23, 3
   7              		.eabi_attribute 24, 1
   8              		.eabi_attribute 25, 1
   9              		.eabi_attribute 26, 1
  10              		.eabi_attribute 30, 2
  11              		.eabi_attribute 34, 1
  12              		.eabi_attribute 18, 4
  13              		.thumb
  14              		.file	"testevt.c"
  15              		.text
  16              	.Ltext0:
  17              		.cfi_sections	.debug_frame
  18              		.section	.text.evt1_execute,"ax",%progbits
  19              		.align	2
  20              		.thumb
  21              		.thumb_func
  22              		.type	evt1_execute, %function
  23              	evt1_execute:
  24              	.LFB11:
  25              		.file 1 "/opt/ChibiOS_2.6.6/test/testevt.c"
  26              		.loc 1 85 0
  27              		.cfi_startproc
  28              		@ args = 0, pretend = 0, frame = 32
  29              		@ frame_needed = 0, uses_anonymous_args = 0
  30 0000 10B5     		push	{r4, lr}
  31              		.cfi_def_cfa_offset 8
  32              		.cfi_offset 4, -8
  33              		.cfi_offset 14, -4
  34              		.loc 1 91 0
  35 0002 40F20004 		movw	r4, #:lower16:.LANCHOR0
  36              		.loc 1 85 0
  37 0006 88B0     		sub	sp, sp, #32
  38              		.cfi_def_cfa_offset 40
  39              		.loc 1 91 0
  40 0008 C0F20004 		movt	r4, #:upper16:.LANCHOR0
  41              		.loc 1 92 0
  42 000c 2046     		mov	r0, r4
  43 000e 6946     		mov	r1, sp
  44 0010 0122     		movs	r2, #1
  45              		.loc 1 91 0
  46 0012 2460     		str	r4, [r4]
  47              		.loc 1 92 0
  48 0014 FFF7FEFF 		bl	chEvtRegisterMask
  49              	.LVL0:
  50              		.loc 1 93 0
  51 0018 2046     		mov	r0, r4
  52 001a 04A9     		add	r1, sp, #16
  53 001c 0222     		movs	r2, #2
  54 001e FFF7FEFF 		bl	chEvtRegisterMask
  55              	.LVL1:
  56              		.loc 1 94 0
  57 0022 2168     		ldr	r1, [r4]
ARM GAS  /tmp/ccLB3ATm.s 			page 2


  58 0024 0120     		movs	r0, #1
  59 0026 091B     		subs	r1, r1, r4
  60 0028 18BF     		it	ne
  61 002a 0121     		movne	r1, #1
  62 002c FFF7FEFF 		bl	_test_assert
  63              	.LVL2:
  64 0030 08B1     		cbz	r0, .L5
  65              	.L1:
  66              		.loc 1 105 0
  67 0032 08B0     		add	sp, sp, #32
  68              		@ sp needed
  69 0034 10BD     		pop	{r4, pc}
  70              	.L5:
  71              		.loc 1 95 0
  72 0036 6946     		mov	r1, sp
  73 0038 2046     		mov	r0, r4
  74 003a FFF7FEFF 		bl	chEvtUnregister
  75              	.LVL3:
  76              		.loc 1 96 0
  77 003e 2168     		ldr	r1, [r4]
  78 0040 0220     		movs	r0, #2
  79 0042 091B     		subs	r1, r1, r4
  80 0044 18BF     		it	ne
  81 0046 0121     		movne	r1, #1
  82 0048 FFF7FEFF 		bl	_test_assert
  83              	.LVL4:
  84 004c 0028     		cmp	r0, #0
  85 004e F0D1     		bne	.L1
  86              		.loc 1 97 0
  87 0050 04A9     		add	r1, sp, #16
  88 0052 2046     		mov	r0, r4
  89 0054 FFF7FEFF 		bl	chEvtUnregister
  90              	.LVL5:
  91              		.loc 1 98 0
  92 0058 2168     		ldr	r1, [r4]
  93 005a 0320     		movs	r0, #3
  94 005c 0B1B     		subs	r3, r1, r4
  95 005e 5942     		rsbs	r1, r3, #0
  96 0060 5941     		adcs	r1, r1, r3
  97 0062 FFF7FEFF 		bl	_test_assert
  98              	.LVL6:
  99 0066 0028     		cmp	r0, #0
 100 0068 E3D1     		bne	.L1
 101              		.loc 1 103 0
 102 006a 40F20000 		movw	r0, #:lower16:.LANCHOR1
 103 006e C0F20000 		movt	r0, #:upper16:.LANCHOR1
 104 0072 0721     		movs	r1, #7
 105 0074 FFF7FEFF 		bl	chEvtDispatch
 106              	.LVL7:
 107              		.loc 1 104 0
 108 0078 40F20001 		movw	r1, #:lower16:.LC0
 109 007c C0F20001 		movt	r1, #:upper16:.LC0
 110 0080 0420     		movs	r0, #4
 111 0082 FFF7FEFF 		bl	_test_assert_sequence
 112              	.LVL8:
 113 0086 D4E7     		b	.L1
 114              		.cfi_endproc
ARM GAS  /tmp/ccLB3ATm.s 			page 3


 115              	.LFE11:
 116              		.size	evt1_execute, .-evt1_execute
 117              		.section	.text.h3,"ax",%progbits
 118              		.align	2
 119              		.thumb
 120              		.thumb_func
 121              		.type	h3, %function
 122              	h3:
 123              	.LFB10:
 124              		.loc 1 82 0
 125              		.cfi_startproc
 126              		@ args = 0, pretend = 0, frame = 0
 127              		@ frame_needed = 0, uses_anonymous_args = 0
 128              		@ link register save eliminated.
 129              	.LVL9:
 130              		.loc 1 82 0
 131 0000 4320     		movs	r0, #67
 132              	.LVL10:
 133 0002 FFF7FEBF 		b	test_emit_token
 134              	.LVL11:
 135              		.cfi_endproc
 136              	.LFE10:
 137              		.size	h3, .-h3
 138 0006 00BF     		.section	.text.h2,"ax",%progbits
 139              		.align	2
 140              		.thumb
 141              		.thumb_func
 142              		.type	h2, %function
 143              	h2:
 144              	.LFB9:
 145              		.loc 1 81 0
 146              		.cfi_startproc
 147              		@ args = 0, pretend = 0, frame = 0
 148              		@ frame_needed = 0, uses_anonymous_args = 0
 149              		@ link register save eliminated.
 150              	.LVL12:
 151              		.loc 1 81 0
 152 0000 4220     		movs	r0, #66
 153              	.LVL13:
 154 0002 FFF7FEBF 		b	test_emit_token
 155              	.LVL14:
 156              		.cfi_endproc
 157              	.LFE9:
 158              		.size	h2, .-h2
 159 0006 00BF     		.section	.text.h1,"ax",%progbits
 160              		.align	2
 161              		.thumb
 162              		.thumb_func
 163              		.type	h1, %function
 164              	h1:
 165              	.LFB8:
 166              		.loc 1 80 0
 167              		.cfi_startproc
 168              		@ args = 0, pretend = 0, frame = 0
 169              		@ frame_needed = 0, uses_anonymous_args = 0
 170              		@ link register save eliminated.
 171              	.LVL15:
ARM GAS  /tmp/ccLB3ATm.s 			page 4


 172              		.loc 1 80 0
 173 0000 4120     		movs	r0, #65
 174              	.LVL16:
 175 0002 FFF7FEBF 		b	test_emit_token
 176              	.LVL17:
 177              		.cfi_endproc
 178              	.LFE8:
 179              		.size	h1, .-h1
 180 0006 00BF     		.section	.text.evt1_setup,"ax",%progbits
 181              		.align	2
 182              		.thumb
 183              		.thumb_func
 184              		.type	evt1_setup, %function
 185              	evt1_setup:
 186              	.LFB7:
 187              		.loc 1 75 0
 188              		.cfi_startproc
 189              		@ args = 0, pretend = 0, frame = 0
 190              		@ frame_needed = 0, uses_anonymous_args = 0
 191              		@ link register save eliminated.
 192              		.loc 1 77 0
 193 0000 4FF0FF30 		mov	r0, #-1
 194 0004 FFF7FEBF 		b	chEvtGetAndClearEvents
 195              	.LVL18:
 196              		.cfi_endproc
 197              	.LFE7:
 198              		.size	evt1_setup, .-evt1_setup
 199              		.section	.text.evt2_setup,"ax",%progbits
 200              		.align	2
 201              		.thumb
 202              		.thumb_func
 203              		.type	evt2_setup, %function
 204              	evt2_setup:
 205              	.LFB12:
 206              		.loc 1 128 0
 207              		.cfi_startproc
 208              		@ args = 0, pretend = 0, frame = 0
 209              		@ frame_needed = 0, uses_anonymous_args = 0
 210              		@ link register save eliminated.
 211              		.loc 1 130 0
 212 0000 4FF0FF30 		mov	r0, #-1
 213 0004 FFF7FEBF 		b	chEvtGetAndClearEvents
 214              	.LVL19:
 215              		.cfi_endproc
 216              	.LFE12:
 217              		.size	evt2_setup, .-evt2_setup
 218              		.section	.text.evt3_setup,"ax",%progbits
 219              		.align	2
 220              		.thumb
 221              		.thumb_func
 222              		.type	evt3_setup, %function
 223              	evt3_setup:
 224              	.LFB16:
 225              		.loc 1 247 0
 226              		.cfi_startproc
 227              		@ args = 0, pretend = 0, frame = 0
 228              		@ frame_needed = 0, uses_anonymous_args = 0
ARM GAS  /tmp/ccLB3ATm.s 			page 5


 229              		@ link register save eliminated.
 230              		.loc 1 249 0
 231 0000 4FF0FF30 		mov	r0, #-1
 232 0004 FFF7FEBF 		b	chEvtGetAndClearEvents
 233              	.LVL20:
 234              		.cfi_endproc
 235              	.LFE16:
 236              		.size	evt3_setup, .-evt3_setup
 237              		.section	.text.evt2_execute,"ax",%progbits
 238              		.align	2
 239              		.thumb
 240              		.thumb_func
 241              		.type	evt2_execute, %function
 242              	evt2_execute:
 243              	.LFB15:
 244              		.loc 1 149 0
 245              		.cfi_startproc
 246              		@ args = 0, pretend = 0, frame = 40
 247              		@ frame_needed = 0, uses_anonymous_args = 0
 248 0000 2DE9F043 		push	{r4, r5, r6, r7, r8, r9, lr}
 249              		.cfi_def_cfa_offset 28
 250              		.cfi_offset 4, -28
 251              		.cfi_offset 5, -24
 252              		.cfi_offset 6, -20
 253              		.cfi_offset 7, -16
 254              		.cfi_offset 8, -12
 255              		.cfi_offset 9, -8
 256              		.cfi_offset 14, -4
 257              		.loc 1 157 0
 258 0004 0520     		movs	r0, #5
 259              		.loc 1 149 0
 260 0006 8DB0     		sub	sp, sp, #52
 261              		.cfi_def_cfa_offset 80
 262              		.loc 1 157 0
 263 0008 FFF7FEFF 		bl	chEvtAddEvents
 264              	.LVL21:
 265              		.loc 1 158 0
 266 000c 4FF0FF30 		mov	r0, #-1
 267 0010 FFF7FEFF 		bl	chEvtWaitOne
 268              	.LVL22:
 269              		.loc 1 159 0
 270 0014 B0F10109 		subs	r9, r0, #1
 271 0018 D9F10001 		rsbs	r1, r9, #0
 272 001c 51EB0901 		adcs	r1, r1, r9
 273 0020 0120     		movs	r0, #1
 274              	.LVL23:
 275 0022 FFF7FEFF 		bl	_test_assert
 276              	.LVL24:
 277 0026 10B1     		cbz	r0, .L15
 278              	.LVL25:
 279              	.L12:
 280              		.loc 1 222 0
 281 0028 0DB0     		add	sp, sp, #52
 282              		@ sp needed
 283 002a BDE8F083 		pop	{r4, r5, r6, r7, r8, r9, pc}
 284              	.LVL26:
 285              	.L15:
ARM GAS  /tmp/ccLB3ATm.s 			page 6


 286              		.loc 1 160 0
 287 002e 4FF0FF30 		mov	r0, #-1
 288 0032 FFF7FEFF 		bl	chEvtWaitOne
 289              	.LVL27:
 290              		.loc 1 161 0
 291 0036 B0F10408 		subs	r8, r0, #4
 292 003a D8F10001 		rsbs	r1, r8, #0
 293 003e 51EB0801 		adcs	r1, r1, r8
 294 0042 0220     		movs	r0, #2
 295              	.LVL28:
 296 0044 FFF7FEFF 		bl	_test_assert
 297              	.LVL29:
 298 0048 0028     		cmp	r0, #0
 299 004a EDD1     		bne	.L12
 300              		.loc 1 162 0
 301 004c 4FF0FF30 		mov	r0, #-1
 302 0050 FFF7FEFF 		bl	chEvtGetAndClearEvents
 303              	.LVL30:
 304              		.loc 1 163 0
 305 0054 D0F10101 		rsbs	r1, r0, #1
 306 0058 38BF     		it	cc
 307 005a 0021     		movcc	r1, #0
 308 005c 0320     		movs	r0, #3
 309              	.LVL31:
 310 005e FFF7FEFF 		bl	_test_assert
 311              	.LVL32:
 312 0062 0028     		cmp	r0, #0
 313 0064 E0D1     		bne	.L12
 314              		.loc 1 170 0
 315 0066 40F20004 		movw	r4, #:lower16:rlist
 316              		.loc 1 168 0
 317 006a FFF7FEFF 		bl	test_wait_tick
 318              	.LVL33:
 319              		.loc 1 170 0
 320 006e C0F20004 		movt	r4, #:upper16:rlist
 321 0072 40F20003 		movw	r3, #:lower16:wa
 322 0076 A169     		ldr	r1, [r4, #24]
 323 0078 C0F20003 		movt	r3, #:upper16:wa
 324 007c 1B68     		ldr	r3, [r3]
 325 007e 8A68     		ldr	r2, [r1, #8]
 326 0080 0393     		str	r3, [sp, #12]
 327              		.loc 1 169 0
 328 0082 40F20006 		movw	r6, #:lower16:vtlist
 329              		.loc 1 170 0
 330 0086 40F20003 		movw	r3, #:lower16:thread1
 331 008a 013A     		subs	r2, r2, #1
 332 008c 0091     		str	r1, [sp]
 333 008e C0F20003 		movt	r3, #:upper16:thread1
 334 0092 4FF4A871 		mov	r1, #336
 335 0096 0398     		ldr	r0, [sp, #12]
 336              		.loc 1 169 0
 337 0098 C0F20006 		movt	r6, #:upper16:vtlist
 338 009c F768     		ldr	r7, [r6, #12]
 339              	.LVL34:
 340              		.loc 1 170 0
 341 009e FFF7FEFF 		bl	chThdCreateStatic
 342              	.LVL35:
ARM GAS  /tmp/ccLB3ATm.s 			page 7


 343 00a2 40F20005 		movw	r5, #:lower16:threads
 344 00a6 C0F20005 		movt	r5, #:upper16:threads
 345 00aa 2860     		str	r0, [r5]
 346              		.loc 1 172 0
 347 00ac 4FF0FF30 		mov	r0, #-1
 348 00b0 FFF7FEFF 		bl	chEvtWaitOne
 349              	.LVL36:
 350              		.loc 1 173 0
 351 00b4 07F13201 		add	r1, r7, #50
 352              	.LVL37:
 353              		.loc 1 172 0
 354 00b8 8146     		mov	r9, r0
 355              	.LVL38:
 356              		.loc 1 173 0
 357 00ba 07F13702 		add	r2, r7, #55
 358 00be 0420     		movs	r0, #4
 359              	.LVL39:
 360 00c0 FFF7FEFF 		bl	_test_assert_time_window
 361              	.LVL40:
 362 00c4 0028     		cmp	r0, #0
 363 00c6 AFD1     		bne	.L12
 364              		.loc 1 174 0
 365 00c8 B9F1010C 		subs	ip, r9, #1
 366 00cc DCF10001 		rsbs	r1, ip, #0
 367 00d0 51EB0C01 		adcs	r1, r1, ip
 368 00d4 0520     		movs	r0, #5
 369 00d6 FFF7FEFF 		bl	_test_assert
 370              	.LVL41:
 371 00da 0028     		cmp	r0, #0
 372 00dc A4D1     		bne	.L12
 373              		.loc 1 175 0
 374 00de 4FF0FF30 		mov	r0, #-1
 375 00e2 FFF7FEFF 		bl	chEvtGetAndClearEvents
 376              	.LVL42:
 377              		.loc 1 176 0
 378 00e6 D0F10101 		rsbs	r1, r0, #1
 379 00ea 38BF     		it	cc
 380 00ec 0021     		movcc	r1, #0
 381 00ee 0620     		movs	r0, #6
 382              	.LVL43:
 383 00f0 FFF7FEFF 		bl	_test_assert
 384              	.LVL44:
 385 00f4 0028     		cmp	r0, #0
 386 00f6 97D1     		bne	.L12
 387              		.loc 1 177 0
 388 00f8 FFF7FEFF 		bl	test_wait_threads
 389              	.LVL45:
 390              		.loc 1 182 0
 391 00fc 0520     		movs	r0, #5
 392 00fe FFF7FEFF 		bl	chEvtAddEvents
 393              	.LVL46:
 394              		.loc 1 183 0
 395 0102 4FF0FF30 		mov	r0, #-1
 396 0106 FFF7FEFF 		bl	chEvtWaitAny
 397              	.LVL47:
 398              		.loc 1 184 0
 399 010a B0F1050E 		subs	lr, r0, #5
ARM GAS  /tmp/ccLB3ATm.s 			page 8


 400 010e DEF10001 		rsbs	r1, lr, #0
 401 0112 51EB0E01 		adcs	r1, r1, lr
 402 0116 0720     		movs	r0, #7
 403              	.LVL48:
 404 0118 FFF7FEFF 		bl	_test_assert
 405              	.LVL49:
 406 011c 0028     		cmp	r0, #0
 407 011e 83D1     		bne	.L12
 408              		.loc 1 185 0
 409 0120 4FF0FF30 		mov	r0, #-1
 410 0124 FFF7FEFF 		bl	chEvtGetAndClearEvents
 411              	.LVL50:
 412              		.loc 1 186 0
 413 0128 D0F10101 		rsbs	r1, r0, #1
 414 012c 38BF     		it	cc
 415 012e 0021     		movcc	r1, #0
 416 0130 0820     		movs	r0, #8
 417              	.LVL51:
 418 0132 FFF7FEFF 		bl	_test_assert
 419              	.LVL52:
 420 0136 0028     		cmp	r0, #0
 421 0138 7FF476AF 		bne	.L12
 422              		.loc 1 191 0
 423 013c FFF7FEFF 		bl	test_wait_tick
 424              	.LVL53:
 425              		.loc 1 193 0
 426 0140 A169     		ldr	r1, [r4, #24]
 427 0142 40F20003 		movw	r3, #:lower16:thread1
 428 0146 8A68     		ldr	r2, [r1, #8]
 429 0148 C0F20003 		movt	r3, #:upper16:thread1
 430 014c 013A     		subs	r2, r2, #1
 431 014e 0091     		str	r1, [sp]
 432 0150 0398     		ldr	r0, [sp, #12]
 433 0152 4FF4A871 		mov	r1, #336
 434              		.loc 1 192 0
 435 0156 D6F80C80 		ldr	r8, [r6, #12]
 436              	.LVL54:
 437              		.loc 1 193 0
 438 015a FFF7FEFF 		bl	chThdCreateStatic
 439              	.LVL55:
 440 015e 2860     		str	r0, [r5]
 441              		.loc 1 195 0
 442 0160 4FF0FF30 		mov	r0, #-1
 443 0164 FFF7FEFF 		bl	chEvtWaitAny
 444              	.LVL56:
 445              		.loc 1 196 0
 446 0168 08F13201 		add	r1, r8, #50
 447              	.LVL57:
 448              		.loc 1 195 0
 449 016c 8146     		mov	r9, r0
 450              	.LVL58:
 451              		.loc 1 196 0
 452 016e 08F13702 		add	r2, r8, #55
 453 0172 0920     		movs	r0, #9
 454              	.LVL59:
 455 0174 FFF7FEFF 		bl	_test_assert_time_window
 456              	.LVL60:
ARM GAS  /tmp/ccLB3ATm.s 			page 9


 457 0178 0028     		cmp	r0, #0
 458 017a 7FF455AF 		bne	.L12
 459              		.loc 1 197 0
 460 017e B9F10107 		subs	r7, r9, #1
 461 0182 7942     		rsbs	r1, r7, #0
 462 0184 7941     		adcs	r1, r1, r7
 463 0186 0A20     		movs	r0, #10
 464 0188 FFF7FEFF 		bl	_test_assert
 465              	.LVL61:
 466 018c 0028     		cmp	r0, #0
 467 018e 7FF44BAF 		bne	.L12
 468              		.loc 1 198 0
 469 0192 4FF0FF30 		mov	r0, #-1
 470 0196 FFF7FEFF 		bl	chEvtGetAndClearEvents
 471              	.LVL62:
 472              		.loc 1 199 0
 473 019a D0F10101 		rsbs	r1, r0, #1
 474 019e 38BF     		it	cc
 475 01a0 0021     		movcc	r1, #0
 476 01a2 0B20     		movs	r0, #11
 477              	.LVL63:
 478 01a4 FFF7FEFF 		bl	_test_assert
 479              	.LVL64:
 480 01a8 0028     		cmp	r0, #0
 481 01aa 7FF43DAF 		bne	.L12
 482              		.loc 1 205 0
 483 01ae 40F20009 		movw	r9, #:lower16:.LANCHOR0
 484 01b2 C0F20009 		movt	r9, #:upper16:.LANCHOR0
 485              		.loc 1 206 0
 486 01b6 40F20008 		movw	r8, #:lower16:.LANCHOR2
 487              	.LVL65:
 488              		.loc 1 200 0
 489 01ba FFF7FEFF 		bl	test_wait_threads
 490              	.LVL66:
 491              		.loc 1 206 0
 492 01be C0F20008 		movt	r8, #:upper16:.LANCHOR2
 493              		.loc 1 207 0
 494 01c2 4846     		mov	r0, r9
 495 01c4 04A9     		add	r1, sp, #16
 496 01c6 0122     		movs	r2, #1
 497              		.loc 1 205 0
 498 01c8 C9F80090 		str	r9, [r9]
 499              		.loc 1 206 0
 500 01cc C8F80080 		str	r8, [r8]
 501              		.loc 1 207 0
 502 01d0 FFF7FEFF 		bl	chEvtRegisterMask
 503              	.LVL67:
 504              		.loc 1 208 0
 505 01d4 08A9     		add	r1, sp, #32
 506 01d6 0422     		movs	r2, #4
 507 01d8 4046     		mov	r0, r8
 508 01da FFF7FEFF 		bl	chEvtRegisterMask
 509              	.LVL68:
 510              		.loc 1 209 0
 511 01de FFF7FEFF 		bl	test_wait_tick
 512              	.LVL69:
 513              		.loc 1 211 0
ARM GAS  /tmp/ccLB3ATm.s 			page 10


 514 01e2 A369     		ldr	r3, [r4, #24]
 515 01e4 40F20001 		movw	r1, #:lower16:.LC1
 516 01e8 9A68     		ldr	r2, [r3, #8]
 517 01ea C0F20001 		movt	r1, #:upper16:.LC1
 518 01ee 40F20003 		movw	r3, #:lower16:thread2
 519 01f2 013A     		subs	r2, r2, #1
 520 01f4 0091     		str	r1, [sp]
 521 01f6 C0F20003 		movt	r3, #:upper16:thread2
 522 01fa 4FF4A871 		mov	r1, #336
 523 01fe 0398     		ldr	r0, [sp, #12]
 524              		.loc 1 210 0
 525 0200 F468     		ldr	r4, [r6, #12]
 526              	.LVL70:
 527              		.loc 1 211 0
 528 0202 FFF7FEFF 		bl	chThdCreateStatic
 529              	.LVL71:
 530 0206 2860     		str	r0, [r5]
 531              		.loc 1 213 0
 532 0208 0520     		movs	r0, #5
 533 020a FFF7FEFF 		bl	chEvtWaitAll
 534              	.LVL72:
 535              		.loc 1 214 0
 536 020e 04F13201 		add	r1, r4, #50
 537              	.LVL73:
 538 0212 04F13702 		add	r2, r4, #55
 539 0216 0C20     		movs	r0, #12
 540 0218 FFF7FEFF 		bl	_test_assert_time_window
 541              	.LVL74:
 542 021c 0028     		cmp	r0, #0
 543 021e 7FF403AF 		bne	.L12
 544              		.loc 1 215 0
 545 0222 4FF0FF30 		mov	r0, #-1
 546 0226 FFF7FEFF 		bl	chEvtGetAndClearEvents
 547              	.LVL75:
 548              		.loc 1 216 0
 549 022a D0F10101 		rsbs	r1, r0, #1
 550 022e 38BF     		it	cc
 551 0230 0021     		movcc	r1, #0
 552 0232 0D20     		movs	r0, #13
 553              	.LVL76:
 554 0234 FFF7FEFF 		bl	_test_assert
 555              	.LVL77:
 556 0238 0028     		cmp	r0, #0
 557 023a 7FF4F5AE 		bne	.L12
 558              		.loc 1 217 0
 559 023e FFF7FEFF 		bl	test_wait_threads
 560              	.LVL78:
 561              		.loc 1 218 0
 562 0242 4846     		mov	r0, r9
 563 0244 04A9     		add	r1, sp, #16
 564 0246 FFF7FEFF 		bl	chEvtUnregister
 565              	.LVL79:
 566              		.loc 1 219 0
 567 024a 4046     		mov	r0, r8
 568 024c 08A9     		add	r1, sp, #32
 569 024e FFF7FEFF 		bl	chEvtUnregister
 570              	.LVL80:
ARM GAS  /tmp/ccLB3ATm.s 			page 11


 571              		.loc 1 220 0
 572 0252 D9F80010 		ldr	r1, [r9]
 573 0256 0E20     		movs	r0, #14
 574 0258 B1EB0904 		subs	r4, r1, r9
 575              	.LVL81:
 576 025c 6142     		rsbs	r1, r4, #0
 577 025e 6141     		adcs	r1, r1, r4
 578 0260 FFF7FEFF 		bl	_test_assert
 579              	.LVL82:
 580 0264 0028     		cmp	r0, #0
 581 0266 7FF4DFAE 		bne	.L12
 582              		.loc 1 221 0
 583 026a D8F80010 		ldr	r1, [r8]
 584 026e 0F20     		movs	r0, #15
 585 0270 B1EB0802 		subs	r2, r1, r8
 586 0274 5142     		rsbs	r1, r2, #0
 587 0276 5141     		adcs	r1, r1, r2
 588 0278 FFF7FEFF 		bl	_test_assert
 589              	.LVL83:
 590 027c D4E6     		b	.L12
 591              		.cfi_endproc
 592              	.LFE15:
 593              		.size	evt2_execute, .-evt2_execute
 594 027e 00BF     		.section	.text.thread2,"ax",%progbits
 595              		.align	2
 596              		.thumb
 597              		.thumb_func
 598              		.type	thread2, %function
 599              	thread2:
 600              	.LFB14:
 601              		.loc 1 140 0
 602              		.cfi_startproc
 603              		@ args = 0, pretend = 0, frame = 0
 604              		@ frame_needed = 0, uses_anonymous_args = 0
 605              	.LVL84:
 606 0000 08B5     		push	{r3, lr}
 607              		.cfi_def_cfa_offset 8
 608              		.cfi_offset 3, -8
 609              		.cfi_offset 14, -4
 610              		.loc 1 143 0
 611 0002 40F20000 		movw	r0, #:lower16:.LANCHOR0
 612              	.LVL85:
 613 0006 0021     		movs	r1, #0
 614 0008 C0F20000 		movt	r0, #:upper16:.LANCHOR0
 615 000c FFF7FEFF 		bl	chEvtBroadcastFlags
 616              	.LVL86:
 617              		.loc 1 144 0
 618 0010 3220     		movs	r0, #50
 619 0012 FFF7FEFF 		bl	chThdSleep
 620              	.LVL87:
 621              		.loc 1 145 0
 622 0016 40F20000 		movw	r0, #:lower16:.LANCHOR2
 623 001a C0F20000 		movt	r0, #:upper16:.LANCHOR2
 624 001e 0021     		movs	r1, #0
 625 0020 FFF7FEFF 		bl	chEvtBroadcastFlags
 626              	.LVL88:
 627              		.loc 1 147 0
ARM GAS  /tmp/ccLB3ATm.s 			page 12


 628 0024 0020     		movs	r0, #0
 629 0026 08BD     		pop	{r3, pc}
 630              		.cfi_endproc
 631              	.LFE14:
 632              		.size	thread2, .-thread2
 633              		.section	.text.thread1,"ax",%progbits
 634              		.align	2
 635              		.thumb
 636              		.thumb_func
 637              		.type	thread1, %function
 638              	thread1:
 639              	.LFB13:
 640              		.loc 1 133 0
 641              		.cfi_startproc
 642              		@ args = 0, pretend = 0, frame = 0
 643              		@ frame_needed = 0, uses_anonymous_args = 0
 644              	.LVL89:
 645 0000 10B5     		push	{r4, lr}
 646              		.cfi_def_cfa_offset 8
 647              		.cfi_offset 4, -8
 648              		.cfi_offset 14, -4
 649              		.loc 1 133 0
 650 0002 0446     		mov	r4, r0
 651              		.loc 1 135 0
 652 0004 3220     		movs	r0, #50
 653              	.LVL90:
 654 0006 FFF7FEFF 		bl	chThdSleep
 655              	.LVL91:
 656              		.loc 1 136 0
 657 000a 2046     		mov	r0, r4
 658 000c 0121     		movs	r1, #1
 659 000e FFF7FEFF 		bl	chEvtSignal
 660              	.LVL92:
 661              		.loc 1 138 0
 662 0012 0020     		movs	r0, #0
 663 0014 10BD     		pop	{r4, pc}
 664              		.cfi_endproc
 665              	.LFE13:
 666              		.size	thread1, .-thread1
 667 0016 00BF     		.section	.text.evt3_execute,"ax",%progbits
 668              		.align	2
 669              		.thumb
 670              		.thumb_func
 671              		.type	evt3_execute, %function
 672              	evt3_execute:
 673              	.LFB17:
 674              		.loc 1 252 0
 675              		.cfi_startproc
 676              		@ args = 0, pretend = 0, frame = 0
 677              		@ frame_needed = 0, uses_anonymous_args = 0
 678 0000 08B5     		push	{r3, lr}
 679              		.cfi_def_cfa_offset 8
 680              		.cfi_offset 3, -8
 681              		.cfi_offset 14, -4
 682              		.loc 1 258 0
 683 0002 0021     		movs	r1, #0
 684 0004 4FF0FF30 		mov	r0, #-1
ARM GAS  /tmp/ccLB3ATm.s 			page 13


 685 0008 FFF7FEFF 		bl	chEvtWaitOneTimeout
 686              	.LVL93:
 687              		.loc 1 259 0
 688 000c D0F10101 		rsbs	r1, r0, #1
 689 0010 38BF     		it	cc
 690 0012 0021     		movcc	r1, #0
 691 0014 0120     		movs	r0, #1
 692              	.LVL94:
 693 0016 FFF7FEFF 		bl	_test_assert
 694              	.LVL95:
 695 001a 00B1     		cbz	r0, .L22
 696              	.L18:
 697 001c 08BD     		pop	{r3, pc}
 698              	.L22:
 699              		.loc 1 260 0
 700 001e 0146     		mov	r1, r0
 701 0020 4FF0FF30 		mov	r0, #-1
 702 0024 FFF7FEFF 		bl	chEvtWaitAnyTimeout
 703              	.LVL96:
 704              		.loc 1 261 0
 705 0028 D0F10101 		rsbs	r1, r0, #1
 706 002c 38BF     		it	cc
 707 002e 0021     		movcc	r1, #0
 708 0030 0220     		movs	r0, #2
 709              	.LVL97:
 710 0032 FFF7FEFF 		bl	_test_assert
 711              	.LVL98:
 712 0036 0028     		cmp	r0, #0
 713 0038 F0D1     		bne	.L18
 714              		.loc 1 262 0
 715 003a 0146     		mov	r1, r0
 716 003c 4FF0FF30 		mov	r0, #-1
 717 0040 FFF7FEFF 		bl	chEvtWaitAllTimeout
 718              	.LVL99:
 719              		.loc 1 263 0
 720 0044 D0F10101 		rsbs	r1, r0, #1
 721 0048 38BF     		it	cc
 722 004a 0021     		movcc	r1, #0
 723 004c 0320     		movs	r0, #3
 724              	.LVL100:
 725 004e FFF7FEFF 		bl	_test_assert
 726              	.LVL101:
 727 0052 0028     		cmp	r0, #0
 728 0054 E2D1     		bne	.L18
 729              	.LBB4:
 730              	.LBB5:
 731              		.loc 1 264 0
 732 0056 0A21     		movs	r1, #10
 733 0058 4FF0FF30 		mov	r0, #-1
 734 005c FFF7FEFF 		bl	chEvtWaitOneTimeout
 735              	.LVL102:
 736              		.loc 1 265 0
 737 0060 D0F10101 		rsbs	r1, r0, #1
 738 0064 38BF     		it	cc
 739 0066 0021     		movcc	r1, #0
 740 0068 0420     		movs	r0, #4
 741              	.LVL103:
ARM GAS  /tmp/ccLB3ATm.s 			page 14


 742 006a FFF7FEFF 		bl	_test_assert
 743              	.LVL104:
 744 006e 0028     		cmp	r0, #0
 745 0070 D4D1     		bne	.L18
 746              		.loc 1 266 0
 747 0072 0A21     		movs	r1, #10
 748 0074 4FF0FF30 		mov	r0, #-1
 749 0078 FFF7FEFF 		bl	chEvtWaitAnyTimeout
 750              	.LVL105:
 751              		.loc 1 267 0
 752 007c D0F10101 		rsbs	r1, r0, #1
 753 0080 38BF     		it	cc
 754 0082 0021     		movcc	r1, #0
 755 0084 0520     		movs	r0, #5
 756              	.LVL106:
 757 0086 FFF7FEFF 		bl	_test_assert
 758              	.LVL107:
 759 008a 0028     		cmp	r0, #0
 760 008c C6D1     		bne	.L18
 761              		.loc 1 268 0
 762 008e 0A21     		movs	r1, #10
 763 0090 4FF0FF30 		mov	r0, #-1
 764 0094 FFF7FEFF 		bl	chEvtWaitAllTimeout
 765              	.LVL108:
 766              	.LBE5:
 767              	.LBE4:
 768              		.loc 1 270 0
 769 0098 BDE80840 		pop	{r3, lr}
 770              	.LBB7:
 771              	.LBB6:
 772              		.loc 1 269 0
 773 009c D0F10101 		rsbs	r1, r0, #1
 774 00a0 38BF     		it	cc
 775 00a2 0021     		movcc	r1, #0
 776 00a4 0620     		movs	r0, #6
 777              	.LVL109:
 778 00a6 FFF7FEBF 		b	_test_assert
 779              	.LVL110:
 780              	.LBE6:
 781              	.LBE7:
 782              		.cfi_endproc
 783              	.LFE17:
 784              		.size	evt3_execute, .-evt3_execute
 785              		.global	patternevt
 786              		.global	testevt3
 787              		.global	testevt2
 788              		.global	testevt1
 789 00aa 00BF     		.section	.rodata.patternevt,"a",%progbits
 790              		.align	2
 791              		.type	patternevt, %object
 792              		.size	patternevt, 16
 793              	patternevt:
 794 0000 00000000 		.word	testevt1
 795 0004 00000000 		.word	testevt2
 796 0008 00000000 		.word	testevt3
 797 000c 00000000 		.word	0
 798              		.section	.rodata.testevt2,"a",%progbits
ARM GAS  /tmp/ccLB3ATm.s 			page 15


 799              		.align	2
 800              		.type	testevt2, %object
 801              		.size	testevt2, 16
 802              	testevt2:
 803 0000 1C000000 		.word	.LC3
 804 0004 00000000 		.word	evt2_setup
 805 0008 00000000 		.word	0
 806 000c 00000000 		.word	evt2_execute
 807              		.section	.rodata.str1.4,"aMS",%progbits,1
 808              		.align	2
 809              	.LC0:
 810 0000 41424300 		.ascii	"ABC\000"
 811              	.LC1:
 812 0004 4100     		.ascii	"A\000"
 813 0006 0000     		.space	2
 814              	.LC2:
 815 0008 4576656E 		.ascii	"Events, timeouts\000"
 815      74732C20 
 815      74696D65 
 815      6F757473 
 815      00
 816 0019 000000   		.space	3
 817              	.LC3:
 818 001c 4576656E 		.ascii	"Events, wait and broadcast\000"
 818      74732C20 
 818      77616974 
 818      20616E64 
 818      2062726F 
 819 0037 00       		.space	1
 820              	.LC4:
 821 0038 4576656E 		.ascii	"Events, registration and dispatch\000"
 821      74732C20 
 821      72656769 
 821      73747261 
 821      74696F6E 
 822 005a 0000     		.section	.rodata.testevt1,"a",%progbits
 823              		.align	2
 824              		.type	testevt1, %object
 825              		.size	testevt1, 16
 826              	testevt1:
 827 0000 38000000 		.word	.LC4
 828 0004 00000000 		.word	evt1_setup
 829 0008 00000000 		.word	0
 830 000c 00000000 		.word	evt1_execute
 831              		.section	.rodata.evhndl,"a",%progbits
 832              		.align	2
 833              		.set	.LANCHOR1,. + 0
 834              		.type	evhndl, %object
 835              		.size	evhndl, 12
 836              	evhndl:
 837 0000 00000000 		.word	h1
 838 0004 00000000 		.word	h2
 839 0008 00000000 		.word	h3
 840              		.section	.rodata.testevt3,"a",%progbits
 841              		.align	2
 842              		.type	testevt3, %object
 843              		.size	testevt3, 16
ARM GAS  /tmp/ccLB3ATm.s 			page 16


 844              	testevt3:
 845 0000 08000000 		.word	.LC2
 846 0004 00000000 		.word	evt3_setup
 847 0008 00000000 		.word	0
 848 000c 00000000 		.word	evt3_execute
 849              		.section	.data.es1,"aw",%progbits
 850              		.align	2
 851              		.set	.LANCHOR0,. + 0
 852              		.type	es1, %object
 853              		.size	es1, 4
 854              	es1:
 855 0000 00000000 		.word	es1
 856              		.section	.data.es2,"aw",%progbits
 857              		.align	2
 858              		.set	.LANCHOR2,. + 0
 859              		.type	es2, %object
 860              		.size	es2, 4
 861              	es2:
 862 0000 00000000 		.word	es2
 863              		.text
 864              	.Letext0:
 865              		.file 2 "/usr/lib/gcc/arm-none-eabi/4.8.2/include/stddef.h"
 866              		.file 3 "/usr/include/newlib/machine/_default_types.h"
 867              		.file 4 "/usr/include/newlib/stdint.h"
 868              		.file 5 "/opt/ChibiOS_2.6.6/os/ports/GCC/ARMCMx/chtypes.h"
 869              		.file 6 "/opt/ChibiOS_2.6.6/os/kernel/include/chlists.h"
 870              		.file 7 "/opt/ChibiOS_2.6.6/os/kernel/include/chthreads.h"
 871              		.file 8 "/opt/ChibiOS_2.6.6/os/ports/GCC/ARMCMx/chcore_v7m.h"
 872              		.file 9 "/opt/ChibiOS_2.6.6/os/kernel/include/chvt.h"
 873              		.file 10 "/opt/ChibiOS_2.6.6/os/kernel/include/chschd.h"
 874              		.file 11 "/opt/ChibiOS_2.6.6/os/kernel/include/chmtx.h"
 875              		.file 12 "/opt/ChibiOS_2.6.6/os/kernel/include/chevents.h"
 876              		.file 13 "/opt/ChibiOS_2.6.6/test/test.h"