ARM GAS  /tmp/cciQ7C4s.s 			page 1


   1              		.syntax unified
   2              		.cpu cortex-m3
   3              		.fpu softvfp
   4              		.eabi_attribute 20, 1
   5              		.eabi_attribute 21, 1
   6              		.eabi_attribute 23, 3
   7              		.eabi_attribute 24, 1
   8              		.eabi_attribute 25, 1
   9              		.eabi_attribute 26, 1
  10              		.eabi_attribute 30, 2
  11              		.eabi_attribute 34, 1
  12              		.eabi_attribute 18, 4
  13              		.thumb
  14              		.file	"testdyn.c"
  15              		.text
  16              	.Ltext0:
  17              		.cfi_sections	.debug_frame
  18              		.section	.text.dyn1_execute,"ax",%progbits
  19              		.align	2
  20              		.thumb
  21              		.thumb_func
  22              		.type	dyn1_execute, %function
  23              	dyn1_execute:
  24              	.LFB9:
  25              		.file 1 "/opt/ChibiOS_2.6.6/test/testdyn.c"
  26              		.loc 1 83 0
  27              		.cfi_startproc
  28              		@ args = 0, pretend = 0, frame = 8
  29              		@ frame_needed = 0, uses_anonymous_args = 0
  30 0000 70B5     		push	{r4, r5, r6, lr}
  31              		.cfi_def_cfa_offset 16
  32              		.cfi_offset 4, -16
  33              		.cfi_offset 5, -12
  34              		.cfi_offset 6, -8
  35              		.cfi_offset 14, -4
  36              		.loc 1 86 0
  37 0002 40F20003 		movw	r3, #:lower16:rlist
  38 0006 C0F20003 		movt	r3, #:upper16:rlist
  39              		.loc 1 83 0
  40 000a 84B0     		sub	sp, sp, #16
  41              		.cfi_def_cfa_offset 32
  42              		.loc 1 86 0
  43 000c 9B69     		ldr	r3, [r3, #24]
  44              		.loc 1 88 0
  45 000e 40F20000 		movw	r0, #:lower16:.LANCHOR0
  46 0012 03A9     		add	r1, sp, #12
  47 0014 C0F20000 		movt	r0, #:upper16:.LANCHOR0
  48              		.loc 1 86 0
  49 0018 9D68     		ldr	r5, [r3, #8]
  50              	.LVL0:
  51              		.loc 1 88 0
  52 001a FFF7FEFF 		bl	chHeapStatus
  53              	.LVL1:
  54              		.loc 1 90 0
  55 001e 40F20001 		movw	r1, #:lower16:.LC0
  56 0022 C0F20001 		movt	r1, #:upper16:.LC0
  57 0026 40F20000 		movw	r0, #:lower16:.LANCHOR0
ARM GAS  /tmp/cciQ7C4s.s 			page 2


  58 002a 40F20003 		movw	r3, #:lower16:thread
  59 002e 6A1E     		subs	r2, r5, #1
  60 0030 0091     		str	r1, [sp]
  61 0032 C0F20003 		movt	r3, #:upper16:thread
  62 0036 4FF4A871 		mov	r1, #336
  63 003a C0F20000 		movt	r0, #:upper16:.LANCHOR0
  64 003e FFF7FEFF 		bl	chThdCreateFromHeap
  65              	.LVL2:
  66 0042 40F20004 		movw	r4, #:lower16:threads
  67 0046 C0F20004 		movt	r4, #:upper16:threads
  68              		.loc 1 92 0
  69 004a 40F20001 		movw	r1, #:lower16:.LC1
  70              		.loc 1 90 0
  71 004e 2060     		str	r0, [r4]
  72              		.loc 1 92 0
  73 0050 C0F20001 		movt	r1, #:upper16:.LC1
  74 0054 40F20000 		movw	r0, #:lower16:.LANCHOR0
  75 0058 40F20003 		movw	r3, #:lower16:thread
  76 005c AA1E     		subs	r2, r5, #2
  77 005e C0F20003 		movt	r3, #:upper16:thread
  78 0062 0091     		str	r1, [sp]
  79 0064 C0F20000 		movt	r0, #:upper16:.LANCHOR0
  80 0068 4FF4A871 		mov	r1, #336
  81 006c FFF7FEFF 		bl	chThdCreateFromHeap
  82              	.LVL3:
  83 0070 6060     		str	r0, [r4, #4]
  84              		.loc 1 95 0
  85 0072 40F20000 		movw	r0, #:lower16:.LANCHOR0
  86 0076 02A9     		add	r1, sp, #8
  87 0078 C0F20000 		movt	r0, #:upper16:.LANCHOR0
  88 007c FFF7FEFF 		bl	chHeapStatus
  89              	.LVL4:
  90              		.loc 1 96 0
  91 0080 40F20000 		movw	r0, #:lower16:.LANCHOR0
  92 0084 0299     		ldr	r1, [sp, #8]
  93 0086 C0F20000 		movt	r0, #:upper16:.LANCHOR0
  94 008a FFF7FEFF 		bl	chHeapAlloc
  95              	.LVL5:
  96              		.loc 1 97 0
  97 008e 40F20001 		movw	r1, #:lower16:.LC2
  98              		.loc 1 96 0
  99 0092 0646     		mov	r6, r0
 100              	.LVL6:
 101              		.loc 1 97 0
 102 0094 C0F20001 		movt	r1, #:upper16:.LC2
 103 0098 40F20000 		movw	r0, #:lower16:.LANCHOR0
 104              	.LVL7:
 105 009c 40F20003 		movw	r3, #:lower16:thread
 106 00a0 EA1E     		subs	r2, r5, #3
 107 00a2 0091     		str	r1, [sp]
 108 00a4 C0F20003 		movt	r3, #:upper16:thread
 109 00a8 4FF4A871 		mov	r1, #336
 110 00ac C0F20000 		movt	r0, #:upper16:.LANCHOR0
 111 00b0 FFF7FEFF 		bl	chThdCreateFromHeap
 112              	.LVL8:
 113 00b4 A060     		str	r0, [r4, #8]
 114              		.loc 1 99 0
ARM GAS  /tmp/cciQ7C4s.s 			page 3


 115 00b6 3046     		mov	r0, r6
 116 00b8 FFF7FEFF 		bl	chHeapFree
 117              	.LVL9:
 118              		.loc 1 101 0
 119 00bc 2168     		ldr	r1, [r4]
 120 00be 21B1     		cbz	r1, .L2
 121              		.loc 1 101 0 is_stmt 0 discriminator 1
 122 00c0 6168     		ldr	r1, [r4, #4]
 123 00c2 11B1     		cbz	r1, .L2
 124 00c4 A168     		ldr	r1, [r4, #8]
 125 00c6 49B3     		cbz	r1, .L10
 126 00c8 0021     		movs	r1, #0
 127              	.L2:
 128              		.loc 1 101 0 discriminator 4
 129 00ca 0120     		movs	r0, #1
 130 00cc FFF7FEFF 		bl	_test_assert
 131              	.LVL10:
 132 00d0 08B1     		cbz	r0, .L11
 133              	.L1:
 134              		.loc 1 115 0 is_stmt 1
 135 00d2 04B0     		add	sp, sp, #16
 136              		@ sp needed
 137 00d4 70BD     		pop	{r4, r5, r6, pc}
 138              	.LVL11:
 139              	.L11:
 140              		.loc 1 109 0
 141 00d6 FFF7FEFF 		bl	test_wait_threads
 142              	.LVL12:
 143              		.loc 1 110 0
 144 00da 40F20001 		movw	r1, #:lower16:.LC3
 145 00de C0F20001 		movt	r1, #:upper16:.LC3
 146 00e2 0220     		movs	r0, #2
 147 00e4 FFF7FEFF 		bl	_test_assert_sequence
 148              	.LVL13:
 149 00e8 0028     		cmp	r0, #0
 150 00ea F2D1     		bne	.L1
 151              		.loc 1 113 0
 152 00ec 40F20000 		movw	r0, #:lower16:.LANCHOR0
 153 00f0 02A9     		add	r1, sp, #8
 154 00f2 C0F20000 		movt	r0, #:upper16:.LANCHOR0
 155 00f6 FFF7FEFF 		bl	chHeapStatus
 156              	.LVL14:
 157 00fa 421E     		subs	r2, r0, #1
 158 00fc 5142     		rsbs	r1, r2, #0
 159 00fe 5141     		adcs	r1, r1, r2
 160 0100 0320     		movs	r0, #3
 161 0102 FFF7FEFF 		bl	_test_assert
 162              	.LVL15:
 163 0106 0028     		cmp	r0, #0
 164 0108 E3D1     		bne	.L1
 165              		.loc 1 114 0
 166 010a 0299     		ldr	r1, [sp, #8]
 167 010c 039B     		ldr	r3, [sp, #12]
 168 010e 0420     		movs	r0, #4
 169 0110 CB1A     		subs	r3, r1, r3
 170 0112 5942     		rsbs	r1, r3, #0
 171 0114 5941     		adcs	r1, r1, r3
ARM GAS  /tmp/cciQ7C4s.s 			page 4


 172 0116 FFF7FEFF 		bl	_test_assert
 173              	.LVL16:
 174 011a DAE7     		b	.L1
 175              	.L10:
 176              		.loc 1 101 0 discriminator 1
 177 011c E368     		ldr	r3, [r4, #12]
 178 011e 002B     		cmp	r3, #0
 179 0120 D3D1     		bne	.L2
 180 0122 2169     		ldr	r1, [r4, #16]
 181 0124 D1F10101 		rsbs	r1, r1, #1
 182 0128 38BF     		it	cc
 183 012a 0021     		movcc	r1, #0
 184 012c CDE7     		b	.L2
 185              		.cfi_endproc
 186              	.LFE9:
 187              		.size	dyn1_execute, .-dyn1_execute
 188 012e 00BF     		.section	.text.thread,"ax",%progbits
 189              		.align	2
 190              		.thumb
 191              		.thumb_func
 192              		.type	thread, %function
 193              	thread:
 194              	.LFB7:
 195              		.loc 1 71 0
 196              		.cfi_startproc
 197              		@ args = 0, pretend = 0, frame = 0
 198              		@ frame_needed = 0, uses_anonymous_args = 0
 199              	.LVL17:
 200 0000 08B5     		push	{r3, lr}
 201              		.cfi_def_cfa_offset 8
 202              		.cfi_offset 3, -8
 203              		.cfi_offset 14, -4
 204              		.loc 1 73 0
 205 0002 0078     		ldrb	r0, [r0]	@ zero_extendqisi2
 206              	.LVL18:
 207 0004 FFF7FEFF 		bl	test_emit_token
 208              	.LVL19:
 209              		.loc 1 75 0
 210 0008 0020     		movs	r0, #0
 211 000a 08BD     		pop	{r3, pc}
 212              		.cfi_endproc
 213              	.LFE7:
 214              		.size	thread, .-thread
 215              		.section	.text.dyn1_setup,"ax",%progbits
 216              		.align	2
 217              		.thumb
 218              		.thumb_func
 219              		.type	dyn1_setup, %function
 220              	dyn1_setup:
 221              	.LFB8:
 222              		.loc 1 78 0
 223              		.cfi_startproc
 224              		@ args = 0, pretend = 0, frame = 0
 225              		@ frame_needed = 0, uses_anonymous_args = 0
 226              		@ link register save eliminated.
 227              		.loc 1 80 0
 228 0000 40F20000 		movw	r0, #:lower16:.LANCHOR0
ARM GAS  /tmp/cciQ7C4s.s 			page 5


 229 0004 40F20001 		movw	r1, #:lower16:test
 230 0008 C0F20000 		movt	r0, #:upper16:.LANCHOR0
 231 000c C0F20001 		movt	r1, #:upper16:test
 232 0010 4FF4D262 		mov	r2, #1680
 233 0014 FFF7FEBF 		b	chHeapInit
 234              	.LVL20:
 235              		.cfi_endproc
 236              	.LFE8:
 237              		.size	dyn1_setup, .-dyn1_setup
 238              		.section	.text.dyn3_setup,"ax",%progbits
 239              		.align	2
 240              		.thumb
 241              		.thumb_func
 242              		.type	dyn3_setup, %function
 243              	dyn3_setup:
 244              	.LFB13:
 245              		.loc 1 203 0
 246              		.cfi_startproc
 247              		@ args = 0, pretend = 0, frame = 0
 248              		@ frame_needed = 0, uses_anonymous_args = 0
 249              		@ link register save eliminated.
 250              		.loc 1 205 0
 251 0000 40F20000 		movw	r0, #:lower16:.LANCHOR0
 252 0004 40F20001 		movw	r1, #:lower16:test
 253 0008 C0F20000 		movt	r0, #:upper16:.LANCHOR0
 254 000c C0F20001 		movt	r1, #:upper16:test
 255 0010 4FF4D262 		mov	r2, #1680
 256 0014 FFF7FEBF 		b	chHeapInit
 257              	.LVL21:
 258              		.cfi_endproc
 259              	.LFE13:
 260              		.size	dyn3_setup, .-dyn3_setup
 261              		.section	.text.dyn2_execute,"ax",%progbits
 262              		.align	2
 263              		.thumb
 264              		.thumb_func
 265              		.type	dyn2_execute, %function
 266              	dyn2_execute:
 267              	.LFB11:
 268              		.loc 1 141 0
 269              		.cfi_startproc
 270              		@ args = 0, pretend = 0, frame = 0
 271              		@ frame_needed = 0, uses_anonymous_args = 0
 272              		.loc 1 143 0
 273 0000 40F20003 		movw	r3, #:lower16:rlist
 274 0004 C0F20003 		movt	r3, #:upper16:rlist
 275 0008 9B69     		ldr	r3, [r3, #24]
 276              		.loc 1 141 0
 277 000a 70B5     		push	{r4, r5, r6, lr}
 278              		.cfi_def_cfa_offset 16
 279              		.cfi_offset 4, -16
 280              		.cfi_offset 5, -12
 281              		.cfi_offset 6, -8
 282              		.cfi_offset 14, -4
 283 000c 4E4C     		ldr	r4, .L29
 284              		.loc 1 143 0
 285 000e 9D68     		ldr	r5, [r3, #8]
ARM GAS  /tmp/cciQ7C4s.s 			page 6


 286              	.LVL22:
 287 0010 04F11006 		add	r6, r4, #16
 288              	.LVL23:
 289              	.L17:
 290              		.loc 1 147 0 discriminator 2
 291 0014 54F8041F 		ldr	r1, [r4, #4]!
 292 0018 40F20000 		movw	r0, #:lower16:.LANCHOR1
 293 001c C0F20000 		movt	r0, #:upper16:.LANCHOR1
 294 0020 FFF7FEFF 		bl	chPoolFree
 295              	.LVL24:
 296              		.loc 1 146 0 discriminator 2
 297 0024 B442     		cmp	r4, r6
 298 0026 F5D1     		bne	.L17
 299              		.loc 1 150 0
 300 0028 40F20000 		movw	r0, #:lower16:.LANCHOR1
 301 002c 40F20002 		movw	r2, #:lower16:thread
 302 0030 40F20003 		movw	r3, #:lower16:.LC0
 303 0034 C0F20002 		movt	r2, #:upper16:thread
 304 0038 C0F20003 		movt	r3, #:upper16:.LC0
 305 003c 691E     		subs	r1, r5, #1
 306 003e C0F20000 		movt	r0, #:upper16:.LANCHOR1
 307 0042 FFF7FEFF 		bl	chThdCreateFromMemoryPool
 308              	.LVL25:
 309 0046 40F20004 		movw	r4, #:lower16:threads
 310 004a C0F20004 		movt	r4, #:upper16:threads
 311 004e 2060     		str	r0, [r4]
 312              		.loc 1 151 0
 313 0050 40F20002 		movw	r2, #:lower16:thread
 314 0054 40F20000 		movw	r0, #:lower16:.LANCHOR1
 315 0058 40F20003 		movw	r3, #:lower16:.LC1
 316 005c C0F20002 		movt	r2, #:upper16:thread
 317 0060 C0F20003 		movt	r3, #:upper16:.LC1
 318 0064 A91E     		subs	r1, r5, #2
 319 0066 C0F20000 		movt	r0, #:upper16:.LANCHOR1
 320 006a FFF7FEFF 		bl	chThdCreateFromMemoryPool
 321              	.LVL26:
 322              		.loc 1 152 0
 323 006e 40F20002 		movw	r2, #:lower16:thread
 324              		.loc 1 151 0
 325 0072 6060     		str	r0, [r4, #4]
 326              		.loc 1 152 0
 327 0074 40F20003 		movw	r3, #:lower16:.LC2
 328 0078 40F20000 		movw	r0, #:lower16:.LANCHOR1
 329 007c C0F20002 		movt	r2, #:upper16:thread
 330 0080 C0F20003 		movt	r3, #:upper16:.LC2
 331 0084 E91E     		subs	r1, r5, #3
 332 0086 C0F20000 		movt	r0, #:upper16:.LANCHOR1
 333 008a FFF7FEFF 		bl	chThdCreateFromMemoryPool
 334              	.LVL27:
 335              		.loc 1 153 0
 336 008e 40F20002 		movw	r2, #:lower16:thread
 337              		.loc 1 152 0
 338 0092 A060     		str	r0, [r4, #8]
 339              		.loc 1 153 0
 340 0094 40F20003 		movw	r3, #:lower16:.LC4
 341 0098 40F20000 		movw	r0, #:lower16:.LANCHOR1
 342 009c C0F20002 		movt	r2, #:upper16:thread
ARM GAS  /tmp/cciQ7C4s.s 			page 7


 343 00a0 C0F20003 		movt	r3, #:upper16:.LC4
 344 00a4 291F     		subs	r1, r5, #4
 345 00a6 C0F20000 		movt	r0, #:upper16:.LANCHOR1
 346 00aa FFF7FEFF 		bl	chThdCreateFromMemoryPool
 347              	.LVL28:
 348              		.loc 1 154 0
 349 00ae 40F20002 		movw	r2, #:lower16:thread
 350              		.loc 1 153 0
 351 00b2 E060     		str	r0, [r4, #12]
 352              		.loc 1 154 0
 353 00b4 40F20003 		movw	r3, #:lower16:.LC5
 354 00b8 40F20000 		movw	r0, #:lower16:.LANCHOR1
 355 00bc 691F     		subs	r1, r5, #5
 356 00be C0F20000 		movt	r0, #:upper16:.LANCHOR1
 357 00c2 C0F20002 		movt	r2, #:upper16:thread
 358 00c6 C0F20003 		movt	r3, #:upper16:.LC5
 359 00ca FFF7FEFF 		bl	chThdCreateFromMemoryPool
 360              	.LVL29:
 361              		.loc 1 156 0
 362 00ce 2168     		ldr	r1, [r4]
 363              		.loc 1 154 0
 364 00d0 2061     		str	r0, [r4, #16]
 365              		.loc 1 156 0
 366 00d2 49B1     		cbz	r1, .L18
 367              		.loc 1 156 0 is_stmt 0 discriminator 1
 368 00d4 6168     		ldr	r1, [r4, #4]
 369 00d6 39B1     		cbz	r1, .L18
 370 00d8 A168     		ldr	r1, [r4, #8]
 371 00da 29B1     		cbz	r1, .L18
 372 00dc E168     		ldr	r1, [r4, #12]
 373 00de 19B1     		cbz	r1, .L18
 374 00e0 D0F10101 		rsbs	r1, r0, #1
 375 00e4 38BF     		it	cc
 376 00e6 0021     		movcc	r1, #0
 377              	.L18:
 378              		.loc 1 156 0 discriminator 4
 379 00e8 0120     		movs	r0, #1
 380 00ea FFF7FEFF 		bl	_test_assert
 381              	.LVL30:
 382 00ee 00B1     		cbz	r0, .L28
 383              	.L15:
 384 00f0 70BD     		pop	{r4, r5, r6, pc}
 385              	.LVL31:
 386              	.L28:
 387              		.loc 1 164 0 is_stmt 1
 388 00f2 FFF7FEFF 		bl	test_wait_threads
 389              	.LVL32:
 390              		.loc 1 165 0
 391 00f6 40F20001 		movw	r1, #:lower16:.LC6
 392 00fa C0F20001 		movt	r1, #:upper16:.LC6
 393 00fe 0220     		movs	r0, #2
 394 0100 FFF7FEFF 		bl	_test_assert_sequence
 395              	.LVL33:
 396 0104 0028     		cmp	r0, #0
 397 0106 F3D1     		bne	.L15
 398 0108 0424     		movs	r4, #4
 399              	.L23:
ARM GAS  /tmp/cciQ7C4s.s 			page 8


 400              	.LVL34:
 401              		.loc 1 169 0
 402 010a 40F20000 		movw	r0, #:lower16:.LANCHOR1
 403 010e C0F20000 		movt	r0, #:upper16:.LANCHOR1
 404 0112 FFF7FEFF 		bl	chPoolAlloc
 405              	.LVL35:
 406 0116 011C     		adds	r1, r0, #0
 407 0118 18BF     		it	ne
 408 011a 0121     		movne	r1, #1
 409 011c 0320     		movs	r0, #3
 410 011e FFF7FEFF 		bl	_test_assert
 411              	.LVL36:
 412 0122 0028     		cmp	r0, #0
 413 0124 E4D1     		bne	.L15
 414              		.loc 1 168 0
 415 0126 013C     		subs	r4, r4, #1
 416              	.LVL37:
 417 0128 EFD1     		bne	.L23
 418              		.loc 1 170 0
 419 012a 40F20000 		movw	r0, #:lower16:.LANCHOR1
 420 012e C0F20000 		movt	r0, #:upper16:.LANCHOR1
 421 0132 FFF7FEFF 		bl	chPoolAlloc
 422              	.LVL38:
 423              		.loc 1 171 0
 424 0136 BDE87040 		pop	{r4, r5, r6, lr}
 425              	.LVL39:
 426              		.loc 1 170 0
 427 013a D0F10101 		rsbs	r1, r0, #1
 428 013e 38BF     		it	cc
 429 0140 0021     		movcc	r1, #0
 430 0142 0420     		movs	r0, #4
 431 0144 FFF7FEBF 		b	_test_assert
 432              	.LVL40:
 433              	.L30:
 434              		.align	2
 435              	.L29:
 436 0148 FCFFFFFF 		.word	wa-4
 437              		.cfi_endproc
 438              	.LFE11:
 439              		.size	dyn2_execute, .-dyn2_execute
 440              		.section	.text.dyn2_setup,"ax",%progbits
 441              		.align	2
 442              		.thumb
 443              		.thumb_func
 444              		.type	dyn2_setup, %function
 445              	dyn2_setup:
 446              	.LFB10:
 447              		.loc 1 136 0
 448              		.cfi_startproc
 449              		@ args = 0, pretend = 0, frame = 0
 450              		@ frame_needed = 0, uses_anonymous_args = 0
 451              		@ link register save eliminated.
 452              		.loc 1 138 0
 453 0000 40F20000 		movw	r0, #:lower16:.LANCHOR1
 454 0004 C0F20000 		movt	r0, #:upper16:.LANCHOR1
 455 0008 4FF4A871 		mov	r1, #336
 456 000c 0022     		movs	r2, #0
ARM GAS  /tmp/cciQ7C4s.s 			page 9


 457 000e FFF7FEBF 		b	chPoolInit
 458              	.LVL41:
 459              		.cfi_endproc
 460              	.LFE10:
 461              		.size	dyn2_setup, .-dyn2_setup
 462 0012 00BF     		.section	.text.regfind,"ax",%progbits
 463              		.align	2
 464              		.thumb
 465              		.thumb_func
 466              		.type	regfind, %function
 467              	regfind:
 468              	.LFB12:
 469              		.loc 1 191 0
 470              		.cfi_startproc
 471              		@ args = 0, pretend = 0, frame = 0
 472              		@ frame_needed = 0, uses_anonymous_args = 0
 473              	.LVL42:
 474 0000 38B5     		push	{r3, r4, r5, lr}
 475              		.cfi_def_cfa_offset 16
 476              		.cfi_offset 3, -16
 477              		.cfi_offset 4, -12
 478              		.cfi_offset 5, -8
 479              		.cfi_offset 14, -4
 480              		.loc 1 191 0
 481 0002 0546     		mov	r5, r0
 482              		.loc 1 195 0
 483 0004 FFF7FEFF 		bl	chRegFirstThread
 484              	.LVL43:
 485              		.loc 1 193 0
 486 0008 0024     		movs	r4, #0
 487              		.loc 1 195 0
 488 000a 0346     		mov	r3, r0
 489              	.LVL44:
 490              	.L34:
 491              		.loc 1 198 0 discriminator 1
 492 000c 1846     		mov	r0, r3
 493              		.loc 1 197 0 discriminator 1
 494 000e AB42     		cmp	r3, r5
 495 0010 08BF     		it	eq
 496 0012 44F00104 		orreq	r4, r4, #1
 497              	.LVL45:
 498              		.loc 1 198 0 discriminator 1
 499 0016 FFF7FEFF 		bl	chRegNextThread
 500              	.LVL46:
 501              		.loc 1 199 0 discriminator 1
 502 001a 0346     		mov	r3, r0
 503 001c 0028     		cmp	r0, #0
 504 001e F5D1     		bne	.L34
 505              		.loc 1 201 0
 506 0020 2046     		mov	r0, r4
 507              	.LVL47:
 508 0022 38BD     		pop	{r3, r4, r5, pc}
 509              		.cfi_endproc
 510              	.LFE12:
 511              		.size	regfind, .-regfind
 512              		.section	.text.dyn3_execute,"ax",%progbits
 513              		.align	2
ARM GAS  /tmp/cciQ7C4s.s 			page 10


 514              		.thumb
 515              		.thumb_func
 516              		.type	dyn3_execute, %function
 517              	dyn3_execute:
 518              	.LFB14:
 519              		.loc 1 208 0
 520              		.cfi_startproc
 521              		@ args = 0, pretend = 0, frame = 0
 522              		@ frame_needed = 0, uses_anonymous_args = 0
 523              	.LVL48:
 524 0000 10B5     		push	{r4, lr}
 525              		.cfi_def_cfa_offset 8
 526              		.cfi_offset 4, -8
 527              		.cfi_offset 14, -4
 528              		.loc 1 210 0
 529 0002 40F20003 		movw	r3, #:lower16:rlist
 530 0006 C0F20003 		movt	r3, #:upper16:rlist
 531 000a 9B69     		ldr	r3, [r3, #24]
 532              		.loc 1 213 0
 533 000c 40F20001 		movw	r1, #:lower16:.LC0
 534 0010 9A68     		ldr	r2, [r3, #8]
 535              		.loc 1 208 0
 536 0012 82B0     		sub	sp, sp, #8
 537              		.cfi_def_cfa_offset 16
 538              		.loc 1 213 0
 539 0014 C0F20001 		movt	r1, #:upper16:.LC0
 540 0018 40F20000 		movw	r0, #:lower16:.LANCHOR0
 541 001c 40F20003 		movw	r3, #:lower16:thread
 542 0020 013A     		subs	r2, r2, #1
 543 0022 0091     		str	r1, [sp]
 544              	.LVL49:
 545 0024 C0F20000 		movt	r0, #:upper16:.LANCHOR0
 546 0028 4FF4A871 		mov	r1, #336
 547 002c C0F20003 		movt	r3, #:upper16:thread
 548 0030 FFF7FEFF 		bl	chThdCreateFromHeap
 549              	.LVL50:
 550              		.loc 1 214 0
 551 0034 817F     		ldrb	r1, [r0, #30]	@ zero_extendqisi2
 552              		.loc 1 213 0
 553 0036 0446     		mov	r4, r0
 554              	.LVL51:
 555              		.loc 1 214 0
 556 0038 0120     		movs	r0, #1
 557              	.LVL52:
 558 003a 0A1A     		subs	r2, r1, r0
 559 003c 5142     		rsbs	r1, r2, #0
 560 003e 5141     		adcs	r1, r1, r2
 561 0040 FFF7FEFF 		bl	_test_assert
 562              	.LVL53:
 563 0044 08B1     		cbz	r0, .L39
 564              	.L35:
 565              		.loc 1 236 0
 566 0046 02B0     		add	sp, sp, #8
 567              		@ sp needed
 568 0048 10BD     		pop	{r4, pc}
 569              	.LVL54:
 570              	.L39:
ARM GAS  /tmp/cciQ7C4s.s 			page 11


 571              		.loc 1 215 0
 572 004a 2046     		mov	r0, r4
 573 004c FFF7FEFF 		bl	chThdAddRef
 574              	.LVL55:
 575              		.loc 1 216 0
 576 0050 A17F     		ldrb	r1, [r4, #30]	@ zero_extendqisi2
 577 0052 0220     		movs	r0, #2
 578 0054 0B1A     		subs	r3, r1, r0
 579 0056 5942     		rsbs	r1, r3, #0
 580 0058 5941     		adcs	r1, r1, r3
 581 005a FFF7FEFF 		bl	_test_assert
 582              	.LVL56:
 583 005e 0028     		cmp	r0, #0
 584 0060 F1D1     		bne	.L35
 585              		.loc 1 217 0
 586 0062 2046     		mov	r0, r4
 587 0064 FFF7FEFF 		bl	chThdRelease
 588              	.LVL57:
 589              		.loc 1 218 0
 590 0068 A17F     		ldrb	r1, [r4, #30]	@ zero_extendqisi2
 591 006a 0320     		movs	r0, #3
 592 006c B1F1010C 		subs	ip, r1, #1
 593 0070 DCF10001 		rsbs	r1, ip, #0
 594 0074 51EB0C01 		adcs	r1, r1, ip
 595 0078 FFF7FEFF 		bl	_test_assert
 596              	.LVL58:
 597 007c 0028     		cmp	r0, #0
 598 007e E2D1     		bne	.L35
 599              		.loc 1 221 0
 600 0080 2046     		mov	r0, r4
 601 0082 FFF7FEFF 		bl	regfind
 602              	.LVL59:
 603 0086 0146     		mov	r1, r0
 604 0088 0420     		movs	r0, #4
 605 008a FFF7FEFF 		bl	_test_assert
 606              	.LVL60:
 607 008e 0028     		cmp	r0, #0
 608 0090 D9D1     		bne	.L35
 609              		.loc 1 222 0
 610 0092 2046     		mov	r0, r4
 611 0094 FFF7FEFF 		bl	regfind
 612              	.LVL61:
 613 0098 0146     		mov	r1, r0
 614 009a 0520     		movs	r0, #5
 615 009c FFF7FEFF 		bl	_test_assert
 616              	.LVL62:
 617 00a0 0028     		cmp	r0, #0
 618 00a2 D0D1     		bne	.L35
 619              		.loc 1 225 0
 620 00a4 2046     		mov	r0, r4
 621 00a6 FFF7FEFF 		bl	chThdRelease
 622              	.LVL63:
 623              		.loc 1 226 0
 624 00aa A17F     		ldrb	r1, [r4, #30]	@ zero_extendqisi2
 625 00ac 0620     		movs	r0, #6
 626 00ae D1F10101 		rsbs	r1, r1, #1
 627 00b2 38BF     		it	cc
ARM GAS  /tmp/cciQ7C4s.s 			page 12


 628 00b4 0021     		movcc	r1, #0
 629 00b6 FFF7FEFF 		bl	_test_assert
 630              	.LVL64:
 631 00ba 0028     		cmp	r0, #0
 632 00bc C3D1     		bne	.L35
 633              		.loc 1 227 0
 634 00be 217F     		ldrb	r1, [r4, #28]	@ zero_extendqisi2
 635 00c0 0720     		movs	r0, #7
 636 00c2 D1F10101 		rsbs	r1, r1, #1
 637 00c6 38BF     		it	cc
 638 00c8 0021     		movcc	r1, #0
 639 00ca FFF7FEFF 		bl	_test_assert
 640              	.LVL65:
 641 00ce 0028     		cmp	r0, #0
 642 00d0 B9D1     		bne	.L35
 643              		.loc 1 228 0
 644 00d2 2046     		mov	r0, r4
 645 00d4 FFF7FEFF 		bl	regfind
 646              	.LVL66:
 647 00d8 0146     		mov	r1, r0
 648 00da 0820     		movs	r0, #8
 649 00dc FFF7FEFF 		bl	_test_assert
 650              	.LVL67:
 651 00e0 0028     		cmp	r0, #0
 652 00e2 B0D1     		bne	.L35
 653              		.loc 1 229 0
 654 00e4 2046     		mov	r0, r4
 655 00e6 FFF7FEFF 		bl	regfind
 656              	.LVL68:
 657 00ea 0146     		mov	r1, r0
 658 00ec 0920     		movs	r0, #9
 659 00ee FFF7FEFF 		bl	_test_assert
 660              	.LVL69:
 661 00f2 0028     		cmp	r0, #0
 662 00f4 A7D1     		bne	.L35
 663              		.loc 1 230 0
 664 00f6 3220     		movs	r0, #50
 665 00f8 FFF7FEFF 		bl	chThdSleep
 666              	.LVL70:
 667              		.loc 1 231 0
 668 00fc 217F     		ldrb	r1, [r4, #28]	@ zero_extendqisi2
 669 00fe 0A20     		movs	r0, #10
 670 0100 B1F10E0E 		subs	lr, r1, #14
 671 0104 DEF10001 		rsbs	r1, lr, #0
 672 0108 51EB0E01 		adcs	r1, r1, lr
 673 010c FFF7FEFF 		bl	_test_assert
 674              	.LVL71:
 675 0110 0028     		cmp	r0, #0
 676 0112 98D1     		bne	.L35
 677              		.loc 1 234 0
 678 0114 2046     		mov	r0, r4
 679 0116 FFF7FEFF 		bl	regfind
 680              	.LVL72:
 681 011a 0146     		mov	r1, r0
 682 011c 0B20     		movs	r0, #11
 683 011e FFF7FEFF 		bl	_test_assert
 684              	.LVL73:
ARM GAS  /tmp/cciQ7C4s.s 			page 13


 685 0122 0028     		cmp	r0, #0
 686 0124 8FD1     		bne	.L35
 687              		.loc 1 235 0
 688 0126 2046     		mov	r0, r4
 689 0128 FFF7FEFF 		bl	regfind
 690              	.LVL74:
 691 012c 80F00101 		eor	r1, r0, #1
 692 0130 C9B2     		uxtb	r1, r1
 693 0132 0C20     		movs	r0, #12
 694              		.loc 1 236 0
 695 0134 02B0     		add	sp, sp, #8
 696              		@ sp needed
 697 0136 BDE81040 		pop	{r4, lr}
 698              	.LVL75:
 699              		.loc 1 235 0
 700 013a FFF7FEBF 		b	_test_assert
 701              	.LVL76:
 702              		.cfi_endproc
 703              	.LFE14:
 704              		.size	dyn3_execute, .-dyn3_execute
 705              		.global	patterndyn
 706              		.global	testdyn3
 707              		.global	testdyn2
 708              		.global	testdyn1
 709 013e 00BF     		.section	.rodata.testdyn1,"a",%progbits
 710              		.align	2
 711              		.type	testdyn1, %object
 712              		.size	testdyn1, 16
 713              	testdyn1:
 714 0000 78000000 		.word	.LC9
 715 0004 00000000 		.word	dyn1_setup
 716 0008 00000000 		.word	0
 717 000c 00000000 		.word	dyn1_execute
 718              		.section	.rodata.testdyn2,"a",%progbits
 719              		.align	2
 720              		.type	testdyn2, %object
 721              		.size	testdyn2, 16
 722              	testdyn2:
 723 0000 48000000 		.word	.LC8
 724 0004 00000000 		.word	dyn2_setup
 725 0008 00000000 		.word	0
 726 000c 00000000 		.word	dyn2_execute
 727              		.section	.rodata.testdyn3,"a",%progbits
 728              		.align	2
 729              		.type	testdyn3, %object
 730              		.size	testdyn3, 16
 731              	testdyn3:
 732 0000 20000000 		.word	.LC7
 733 0004 00000000 		.word	dyn3_setup
 734 0008 00000000 		.word	0
 735 000c 00000000 		.word	dyn3_execute
 736              		.section	.bss.mp1,"aw",%nobits
 737              		.align	2
 738              		.set	.LANCHOR1,. + 0
 739              		.type	mp1, %object
 740              		.size	mp1, 12
 741              	mp1:
ARM GAS  /tmp/cciQ7C4s.s 			page 14


 742 0000 00000000 		.space	12
 742      00000000 
 742      00000000 
 743              		.section	.rodata.str1.4,"aMS",%progbits,1
 744              		.align	2
 745              	.LC0:
 746 0000 4100     		.ascii	"A\000"
 747 0002 0000     		.space	2
 748              	.LC1:
 749 0004 4200     		.ascii	"B\000"
 750 0006 0000     		.space	2
 751              	.LC2:
 752 0008 4300     		.ascii	"C\000"
 753 000a 0000     		.space	2
 754              	.LC3:
 755 000c 414200   		.ascii	"AB\000"
 756 000f 00       		.space	1
 757              	.LC4:
 758 0010 4400     		.ascii	"D\000"
 759 0012 0000     		.space	2
 760              	.LC5:
 761 0014 4500     		.ascii	"E\000"
 762 0016 0000     		.space	2
 763              	.LC6:
 764 0018 41424344 		.ascii	"ABCD\000"
 764      00
 765 001d 000000   		.space	3
 766              	.LC7:
 767 0020 44796E61 		.ascii	"Dynamic APIs, registry and references\000"
 767      6D696320 
 767      41504973 
 767      2C207265 
 767      67697374 
 768 0046 0000     		.space	2
 769              	.LC8:
 770 0048 44796E61 		.ascii	"Dynamic APIs, threads creation from memory pool\000"
 770      6D696320 
 770      41504973 
 770      2C207468 
 770      72656164 
 771              	.LC9:
 772 0078 44796E61 		.ascii	"Dynamic APIs, threads creation from heap\000"
 772      6D696320 
 772      41504973 
 772      2C207468 
 772      72656164 
 773 00a1 000000   		.section	.rodata.patterndyn,"a",%progbits
 774              		.align	2
 775              		.type	patterndyn, %object
 776              		.size	patterndyn, 16
 777              	patterndyn:
 778 0000 00000000 		.word	testdyn1
 779 0004 00000000 		.word	testdyn2
 780 0008 00000000 		.word	testdyn3
 781 000c 00000000 		.word	0
 782              		.section	.bss.heap1,"aw",%nobits
 783              		.align	3
ARM GAS  /tmp/cciQ7C4s.s 			page 15


 784              		.set	.LANCHOR0,. + 0
 785              		.type	heap1, %object
 786              		.size	heap1, 32
 787              	heap1:
 788 0000 00000000 		.space	32
 788      00000000 
 788      00000000 
 788      00000000 
 788      00000000 
 789              		.text
 790              	.Letext0:
 791              		.file 2 "/usr/lib/gcc/arm-none-eabi/4.8.2/include/stddef.h"
 792              		.file 3 "/usr/include/newlib/machine/_default_types.h"
 793              		.file 4 "/usr/include/newlib/stdint.h"
 794              		.file 5 "/opt/ChibiOS_2.6.6/os/ports/GCC/ARMCMx/chtypes.h"
 795              		.file 6 "/opt/ChibiOS_2.6.6/os/kernel/include/chlists.h"
 796              		.file 7 "/opt/ChibiOS_2.6.6/os/kernel/include/chthreads.h"
 797              		.file 8 "/opt/ChibiOS_2.6.6/os/ports/GCC/ARMCMx/chcore_v7m.h"
 798              		.file 9 "/opt/ChibiOS_2.6.6/os/kernel/include/chschd.h"
 799              		.file 10 "/opt/ChibiOS_2.6.6/os/kernel/include/chmtx.h"
 800              		.file 11 "/opt/ChibiOS_2.6.6/os/kernel/include/chmemcore.h"
 801              		.file 12 "/opt/ChibiOS_2.6.6/os/kernel/include/chheap.h"
 802              		.file 13 "/opt/ChibiOS_2.6.6/os/kernel/include/chmempools.h"
 803              		.file 14 "/opt/ChibiOS_2.6.6/test/test.h"
 804              		.file 15 "/opt/ChibiOS_2.6.6/os/kernel/include/chdynamic.h"
 805              		.file 16 "/opt/ChibiOS_2.6.6/os/kernel/include/chregistry.h"