ARM GAS  /tmp/cceUfChG.s 			page 1


   1              		.syntax unified
   2              		.cpu cortex-m3
   3              		.fpu softvfp
   4              		.eabi_attribute 20, 1
   5              		.eabi_attribute 21, 1
   6              		.eabi_attribute 23, 3
   7              		.eabi_attribute 24, 1
   8              		.eabi_attribute 25, 1
   9              		.eabi_attribute 26, 1
  10              		.eabi_attribute 30, 2
  11              		.eabi_attribute 34, 1
  12              		.eabi_attribute 18, 4
  13              		.thumb
  14              		.file	"testbmk.c"
  15              		.text
  16              	.Ltext0:
  17              		.cfi_sections	.debug_frame
  18              		.section	.text.thread2,"ax",%progbits
  19              		.align	2
  20              		.thumb
  21              		.thumb_func
  22              		.type	thread2, %function
  23              	thread2:
  24              	.LFB11:
  25              		.file 1 "/opt/ChibiOS_2.6.6/test/testbmk.c"
  26              		.loc 1 154 0
  27              		.cfi_startproc
  28              		@ args = 0, pretend = 0, frame = 0
  29              		@ frame_needed = 0, uses_anonymous_args = 0
  30              		@ link register save eliminated.
  31              	.LVL0:
  32              		.loc 1 157 0
  33 0000 7047     		bx	lr
  34              		.cfi_endproc
  35              	.LFE11:
  36              		.size	thread2, .-thread2
  37 0002 00BF     		.section	.text.tmo,"ax",%progbits
  38              		.align	2
  39              		.thumb
  40              		.thumb_func
  41              		.type	tmo, %function
  42              	tmo:
  43              	.LFB23:
  44              		.loc 1 502 0
  45              		.cfi_startproc
  46              		@ args = 0, pretend = 0, frame = 0
  47              		@ frame_needed = 0, uses_anonymous_args = 0
  48              		@ link register save eliminated.
  49              	.LVL1:
  50 0000 7047     		bx	lr
  51              		.cfi_endproc
  52              	.LFE23:
  53              		.size	tmo, .-tmo
  54 0002 00BF     		.section	.text.bmk13_execute,"ax",%progbits
  55              		.align	2
  56              		.thumb
  57              		.thumb_func
ARM GAS  /tmp/cceUfChG.s 			page 2


  58              		.type	bmk13_execute, %function
  59              	bmk13_execute:
  60              	.LFB29:
  61              		.loc 1 637 0
  62              		.cfi_startproc
  63              		@ args = 0, pretend = 0, frame = 0
  64              		@ frame_needed = 0, uses_anonymous_args = 0
  65              		.loc 1 639 0
  66 0000 40F20000 		movw	r0, #:lower16:.LC0
  67              		.loc 1 637 0
  68 0004 10B5     		push	{r4, lr}
  69              		.cfi_def_cfa_offset 8
  70              		.cfi_offset 4, -8
  71              		.cfi_offset 14, -4
  72              		.loc 1 639 0
  73 0006 C0F20000 		movt	r0, #:upper16:.LC0
  74              		.loc 1 645 0
  75 000a 40F20004 		movw	r4, #:lower16:.LC1
  76 000e C0F20004 		movt	r4, #:upper16:.LC1
  77              		.loc 1 639 0
  78 0012 FFF7FEFF 		bl	test_print
  79              	.LVL2:
  80              		.loc 1 640 0
  81 0016 4FF4EA70 		mov	r0, #468
  82 001a FFF7FEFF 		bl	test_printn
  83              	.LVL3:
  84              		.loc 1 645 0
  85 001e 2046     		mov	r0, r4
  86 0020 FFF7FEFF 		bl	test_println
  87              	.LVL4:
  88              		.loc 1 646 0
  89 0024 40F20000 		movw	r0, #:lower16:.LC2
  90 0028 C0F20000 		movt	r0, #:upper16:.LC2
  91 002c FFF7FEFF 		bl	test_print
  92              	.LVL5:
  93              		.loc 1 647 0
  94 0030 4820     		movs	r0, #72
  95 0032 FFF7FEFF 		bl	test_printn
  96              	.LVL6:
  97              		.loc 1 648 0
  98 0036 2046     		mov	r0, r4
  99 0038 FFF7FEFF 		bl	test_println
 100              	.LVL7:
 101              		.loc 1 649 0
 102 003c 40F20000 		movw	r0, #:lower16:.LC3
 103 0040 C0F20000 		movt	r0, #:upper16:.LC3
 104 0044 FFF7FEFF 		bl	test_print
 105              	.LVL8:
 106              		.loc 1 650 0
 107 0048 1420     		movs	r0, #20
 108 004a FFF7FEFF 		bl	test_printn
 109              	.LVL9:
 110              		.loc 1 651 0
 111 004e 2046     		mov	r0, r4
 112 0050 FFF7FEFF 		bl	test_println
 113              	.LVL10:
 114              		.loc 1 653 0
ARM GAS  /tmp/cceUfChG.s 			page 3


 115 0054 40F20000 		movw	r0, #:lower16:.LC4
 116 0058 C0F20000 		movt	r0, #:upper16:.LC4
 117 005c FFF7FEFF 		bl	test_print
 118              	.LVL11:
 119              		.loc 1 654 0
 120 0060 0C20     		movs	r0, #12
 121 0062 FFF7FEFF 		bl	test_printn
 122              	.LVL12:
 123              		.loc 1 655 0
 124 0066 2046     		mov	r0, r4
 125 0068 FFF7FEFF 		bl	test_println
 126              	.LVL13:
 127              		.loc 1 658 0
 128 006c 40F20000 		movw	r0, #:lower16:.LC5
 129 0070 C0F20000 		movt	r0, #:upper16:.LC5
 130 0074 FFF7FEFF 		bl	test_print
 131              	.LVL14:
 132              		.loc 1 659 0
 133 0078 0420     		movs	r0, #4
 134 007a FFF7FEFF 		bl	test_printn
 135              	.LVL15:
 136              		.loc 1 660 0
 137 007e 2046     		mov	r0, r4
 138 0080 FFF7FEFF 		bl	test_println
 139              	.LVL16:
 140              		.loc 1 661 0
 141 0084 40F20000 		movw	r0, #:lower16:.LC6
 142 0088 C0F20000 		movt	r0, #:upper16:.LC6
 143 008c FFF7FEFF 		bl	test_print
 144              	.LVL17:
 145              		.loc 1 662 0
 146 0090 1020     		movs	r0, #16
 147 0092 FFF7FEFF 		bl	test_printn
 148              	.LVL18:
 149              		.loc 1 663 0
 150 0096 2046     		mov	r0, r4
 151 0098 FFF7FEFF 		bl	test_println
 152              	.LVL19:
 153              		.loc 1 666 0
 154 009c 40F20000 		movw	r0, #:lower16:.LC7
 155 00a0 C0F20000 		movt	r0, #:upper16:.LC7
 156 00a4 FFF7FEFF 		bl	test_print
 157              	.LVL20:
 158              		.loc 1 667 0
 159 00a8 1020     		movs	r0, #16
 160 00aa FFF7FEFF 		bl	test_printn
 161              	.LVL21:
 162              		.loc 1 668 0
 163 00ae 2046     		mov	r0, r4
 164 00b0 FFF7FEFF 		bl	test_println
 165              	.LVL22:
 166              		.loc 1 671 0
 167 00b4 40F20000 		movw	r0, #:lower16:.LC8
 168 00b8 C0F20000 		movt	r0, #:upper16:.LC8
 169 00bc FFF7FEFF 		bl	test_print
 170              	.LVL23:
 171              		.loc 1 672 0
ARM GAS  /tmp/cceUfChG.s 			page 4


 172 00c0 0820     		movs	r0, #8
 173 00c2 FFF7FEFF 		bl	test_printn
 174              	.LVL24:
 175              		.loc 1 673 0
 176 00c6 2046     		mov	r0, r4
 177 00c8 FFF7FEFF 		bl	test_println
 178              	.LVL25:
 179              		.loc 1 676 0
 180 00cc 40F20000 		movw	r0, #:lower16:.LC9
 181 00d0 C0F20000 		movt	r0, #:upper16:.LC9
 182 00d4 FFF7FEFF 		bl	test_print
 183              	.LVL26:
 184              		.loc 1 677 0
 185 00d8 2420     		movs	r0, #36
 186 00da FFF7FEFF 		bl	test_printn
 187              	.LVL27:
 188              		.loc 1 678 0
 189 00de 2046     		mov	r0, r4
 190 00e0 FFF7FEFF 		bl	test_println
 191              	.LVL28:
 192              		.loc 1 681 0
 193 00e4 40F20000 		movw	r0, #:lower16:.LC10
 194 00e8 C0F20000 		movt	r0, #:upper16:.LC10
 195 00ec FFF7FEFF 		bl	test_print
 196              	.LVL29:
 197              		.loc 1 682 0
 198 00f0 2820     		movs	r0, #40
 199 00f2 FFF7FEFF 		bl	test_printn
 200              	.LVL30:
 201              		.loc 1 683 0
 202 00f6 2046     		mov	r0, r4
 203              		.loc 1 685 0
 204 00f8 BDE81040 		pop	{r4, lr}
 205              		.loc 1 683 0
 206 00fc FFF7FEBF 		b	test_println
 207              	.LVL31:
 208              		.cfi_endproc
 209              	.LFE29:
 210              		.size	bmk13_execute, .-bmk13_execute
 211              		.section	.text.thread1,"ax",%progbits
 212              		.align	2
 213              		.thumb
 214              		.thumb_func
 215              		.type	thread1, %function
 216              	thread1:
 217              	.LFB7:
 218              		.loc 1 64 0
 219              		.cfi_startproc
 220              		@ args = 0, pretend = 0, frame = 0
 221              		@ frame_needed = 0, uses_anonymous_args = 0
 222              	.LVL32:
 223 0000 10B5     		push	{r4, lr}
 224              		.cfi_def_cfa_offset 8
 225              		.cfi_offset 4, -8
 226              		.cfi_offset 14, -4
 227              	.LVL33:
 228              	.L6:
ARM GAS  /tmp/cceUfChG.s 			page 5


 229              		.loc 1 70 0 discriminator 1
 230 0002 FFF7FEFF 		bl	chMsgWait
 231              	.LVL34:
 232              		.loc 1 71 0 discriminator 1
 233 0006 446B     		ldr	r4, [r0, #52]
 234              	.LVL35:
 235              		.loc 1 72 0 discriminator 1
 236 0008 2146     		mov	r1, r4
 237 000a FFF7FEFF 		bl	chMsgRelease
 238              	.LVL36:
 239              		.loc 1 73 0 discriminator 1
 240 000e 002C     		cmp	r4, #0
 241 0010 F7D1     		bne	.L6
 242              		.loc 1 75 0
 243 0012 2046     		mov	r0, r4
 244 0014 10BD     		pop	{r4, pc}
 245              		.cfi_endproc
 246              	.LFE7:
 247              		.size	thread1, .-thread1
 248 0016 00BF     		.section	.text.bmk6_execute,"ax",%progbits
 249              		.align	2
 250              		.thumb
 251              		.thumb_func
 252              		.type	bmk6_execute, %function
 253              	bmk6_execute:
 254              	.LFB16:
 255              		.loc 1 304 0
 256              		.cfi_startproc
 257              		@ args = 0, pretend = 0, frame = 0
 258              		@ frame_needed = 0, uses_anonymous_args = 0
 259              	.LVL37:
 260 0000 2DE9F041 		push	{r4, r5, r6, r7, r8, lr}
 261              		.cfi_def_cfa_offset 24
 262              		.cfi_offset 4, -24
 263              		.cfi_offset 5, -20
 264              		.cfi_offset 6, -16
 265              		.cfi_offset 7, -12
 266              		.cfi_offset 8, -8
 267              		.cfi_offset 14, -4
 268              		.loc 1 308 0
 269 0004 40F20003 		movw	r3, #:lower16:rlist
 270 0008 C0F20003 		movt	r3, #:upper16:rlist
 271 000c 9A69     		ldr	r2, [r3, #24]
 272              		.loc 1 307 0
 273 000e 40F20003 		movw	r3, #:lower16:wa
 274              		.loc 1 308 0
 275 0012 9268     		ldr	r2, [r2, #8]
 276              		.loc 1 307 0
 277 0014 C0F20003 		movt	r3, #:upper16:wa
 278              		.loc 1 304 0
 279 0018 82B0     		sub	sp, sp, #8
 280              		.cfi_def_cfa_offset 32
 281              		.loc 1 308 0
 282 001a 02F10108 		add	r8, r2, #1
 283              		.loc 1 307 0
 284 001e 1F68     		ldr	r7, [r3]
 285              	.LVL38:
ARM GAS  /tmp/cceUfChG.s 			page 6


 286              		.loc 1 309 0
 287 0020 FFF7FEFF 		bl	test_wait_tick
 288              	.LVL39:
 289              		.loc 1 310 0
 290 0024 4FF47A70 		mov	r0, #1000
 291 0028 FFF7FEFF 		bl	test_start_timer
 292              	.LVL40:
 293              		.loc 1 306 0
 294 002c 0024     		movs	r4, #0
 295 002e 40F20005 		movw	r5, #:lower16:test_timer_done
 296              		.loc 1 312 0
 297 0032 2646     		mov	r6, r4
 298 0034 C0F20005 		movt	r5, #:upper16:test_timer_done
 299              	.LVL41:
 300              	.L10:
 301              		.loc 1 312 0 is_stmt 0 discriminator 1
 302 0038 40F20003 		movw	r3, #:lower16:thread2
 303 003c C0F20003 		movt	r3, #:upper16:thread2
 304 0040 0096     		str	r6, [sp]
 305 0042 3846     		mov	r0, r7
 306 0044 4FF4A871 		mov	r1, #336
 307 0048 4246     		mov	r2, r8
 308 004a FFF7FEFF 		bl	chThdCreateStatic
 309              	.LVL42:
 310              		.loc 1 317 0 is_stmt 1 discriminator 1
 311 004e 2B78     		ldrb	r3, [r5]	@ zero_extendqisi2
 312              		.loc 1 313 0 discriminator 1
 313 0050 0134     		adds	r4, r4, #1
 314              	.LVL43:
 315              		.loc 1 317 0 discriminator 1
 316 0052 002B     		cmp	r3, #0
 317 0054 F0D0     		beq	.L10
 318              		.loc 1 318 0
 319 0056 40F20000 		movw	r0, #:lower16:.LC11
 320 005a C0F20000 		movt	r0, #:upper16:.LC11
 321 005e FFF7FEFF 		bl	test_print
 322              	.LVL44:
 323              		.loc 1 319 0
 324 0062 2046     		mov	r0, r4
 325 0064 FFF7FEFF 		bl	test_printn
 326              	.LVL45:
 327              		.loc 1 320 0
 328 0068 40F20000 		movw	r0, #:lower16:.LC12
 329 006c C0F20000 		movt	r0, #:upper16:.LC12
 330              		.loc 1 321 0
 331 0070 02B0     		add	sp, sp, #8
 332              		@ sp needed
 333 0072 BDE8F041 		pop	{r4, r5, r6, r7, r8, lr}
 334              	.LVL46:
 335              		.loc 1 320 0
 336 0076 FFF7FEBF 		b	test_println
 337              	.LVL47:
 338              		.cfi_endproc
 339              	.LFE16:
 340              		.size	bmk6_execute, .-bmk6_execute
 341 007a 00BF     		.section	.text.msg_loop_test,"ax",%progbits
 342              		.align	2
ARM GAS  /tmp/cceUfChG.s 			page 7


 343              		.thumb
 344              		.thumb_func
 345              		.type	msg_loop_test, %function
 346              	msg_loop_test:
 347              	.LFB8:
 348              		.loc 1 80 0
 349              		.cfi_startproc
 350              		@ args = 0, pretend = 0, frame = 0
 351              		@ frame_needed = 0, uses_anonymous_args = 0
 352              	.LVL48:
 353 0000 70B5     		push	{r4, r5, r6, lr}
 354              		.cfi_def_cfa_offset 16
 355              		.cfi_offset 4, -16
 356              		.cfi_offset 5, -12
 357              		.cfi_offset 6, -8
 358              		.cfi_offset 14, -4
 359              		.loc 1 80 0
 360 0002 0646     		mov	r6, r0
 361              		.loc 1 83 0
 362 0004 FFF7FEFF 		bl	test_wait_tick
 363              	.LVL49:
 364              		.loc 1 84 0
 365 0008 4FF47A70 		mov	r0, #1000
 366 000c FFF7FEFF 		bl	test_start_timer
 367              	.LVL50:
 368 0010 40F20005 		movw	r5, #:lower16:test_timer_done
 369 0014 C0F20005 		movt	r5, #:upper16:test_timer_done
 370              		.loc 1 82 0
 371 0018 0024     		movs	r4, #0
 372              	.LVL51:
 373              	.L13:
 374              		.loc 1 86 0 discriminator 1
 375 001a 3046     		mov	r0, r6
 376 001c 0121     		movs	r1, #1
 377 001e FFF7FEFF 		bl	chMsgSend
 378              	.LVL52:
 379              		.loc 1 91 0 discriminator 1
 380 0022 2B78     		ldrb	r3, [r5]	@ zero_extendqisi2
 381              		.loc 1 87 0 discriminator 1
 382 0024 0134     		adds	r4, r4, #1
 383              	.LVL53:
 384              		.loc 1 91 0 discriminator 1
 385 0026 002B     		cmp	r3, #0
 386 0028 F7D0     		beq	.L13
 387              		.loc 1 92 0
 388 002a 3046     		mov	r0, r6
 389 002c 0021     		movs	r1, #0
 390 002e FFF7FEFF 		bl	chMsgSend
 391              	.LVL54:
 392              		.loc 1 94 0
 393 0032 2046     		mov	r0, r4
 394 0034 70BD     		pop	{r4, r5, r6, pc}
 395              		.cfi_endproc
 396              	.LFE8:
 397              		.size	msg_loop_test, .-msg_loop_test
 398 0036 00BF     		.section	.text.bmk1_execute,"ax",%progbits
 399              		.align	2
ARM GAS  /tmp/cceUfChG.s 			page 8


 400              		.thumb
 401              		.thumb_func
 402              		.type	bmk1_execute, %function
 403              	bmk1_execute:
 404              	.LFB9:
 405              		.loc 1 105 0
 406              		.cfi_startproc
 407              		@ args = 0, pretend = 0, frame = 0
 408              		@ frame_needed = 0, uses_anonymous_args = 0
 409 0000 10B5     		push	{r4, lr}
 410              		.cfi_def_cfa_offset 8
 411              		.cfi_offset 4, -8
 412              		.cfi_offset 14, -4
 413              		.loc 1 108 0
 414 0002 40F20003 		movw	r3, #:lower16:rlist
 415 0006 C0F20003 		movt	r3, #:upper16:rlist
 416 000a 9A69     		ldr	r2, [r3, #24]
 417 000c 40F20003 		movw	r3, #:lower16:wa
 418 0010 9268     		ldr	r2, [r2, #8]
 419 0012 C0F20003 		movt	r3, #:upper16:wa
 420              		.loc 1 105 0
 421 0016 82B0     		sub	sp, sp, #8
 422              		.cfi_def_cfa_offset 16
 423              		.loc 1 108 0
 424 0018 1868     		ldr	r0, [r3]
 425 001a 0021     		movs	r1, #0
 426 001c 40F20003 		movw	r3, #:lower16:thread1
 427 0020 013A     		subs	r2, r2, #1
 428 0022 0091     		str	r1, [sp]
 429 0024 C0F20003 		movt	r3, #:upper16:thread1
 430 0028 4FF4A871 		mov	r1, #336
 431 002c FFF7FEFF 		bl	chThdCreateStatic
 432              	.LVL55:
 433 0030 40F20003 		movw	r3, #:lower16:threads
 434 0034 C0F20003 		movt	r3, #:upper16:threads
 435 0038 1860     		str	r0, [r3]
 436              		.loc 1 109 0
 437 003a FFF7FEFF 		bl	msg_loop_test
 438              	.LVL56:
 439 003e 0446     		mov	r4, r0
 440              	.LVL57:
 441              		.loc 1 110 0
 442 0040 FFF7FEFF 		bl	test_wait_threads
 443              	.LVL58:
 444              		.loc 1 111 0
 445 0044 40F20000 		movw	r0, #:lower16:.LC11
 446 0048 C0F20000 		movt	r0, #:upper16:.LC11
 447 004c FFF7FEFF 		bl	test_print
 448              	.LVL59:
 449              		.loc 1 112 0
 450 0050 2046     		mov	r0, r4
 451 0052 FFF7FEFF 		bl	test_printn
 452              	.LVL60:
 453              		.loc 1 113 0
 454 0056 40F20000 		movw	r0, #:lower16:.LC13
 455 005a C0F20000 		movt	r0, #:upper16:.LC13
 456 005e FFF7FEFF 		bl	test_print
ARM GAS  /tmp/cceUfChG.s 			page 9


 457              	.LVL61:
 458              		.loc 1 114 0
 459 0062 6000     		lsls	r0, r4, #1
 460 0064 FFF7FEFF 		bl	test_printn
 461              	.LVL62:
 462              		.loc 1 115 0
 463 0068 40F20000 		movw	r0, #:lower16:.LC14
 464 006c C0F20000 		movt	r0, #:upper16:.LC14
 465              		.loc 1 116 0
 466 0070 02B0     		add	sp, sp, #8
 467              		@ sp needed
 468 0072 BDE81040 		pop	{r4, lr}
 469              	.LVL63:
 470              		.loc 1 115 0
 471 0076 FFF7FEBF 		b	test_println
 472              	.LVL64:
 473              		.cfi_endproc
 474              	.LFE9:
 475              		.size	bmk1_execute, .-bmk1_execute
 476 007a 00BF     		.section	.text.bmk2_execute,"ax",%progbits
 477              		.align	2
 478              		.thumb
 479              		.thumb_func
 480              		.type	bmk2_execute, %function
 481              	bmk2_execute:
 482              	.LFB10:
 483              		.loc 1 134 0
 484              		.cfi_startproc
 485              		@ args = 0, pretend = 0, frame = 0
 486              		@ frame_needed = 0, uses_anonymous_args = 0
 487 0000 10B5     		push	{r4, lr}
 488              		.cfi_def_cfa_offset 8
 489              		.cfi_offset 4, -8
 490              		.cfi_offset 14, -4
 491              		.loc 1 137 0
 492 0002 40F20003 		movw	r3, #:lower16:rlist
 493 0006 C0F20003 		movt	r3, #:upper16:rlist
 494 000a 9A69     		ldr	r2, [r3, #24]
 495 000c 40F20003 		movw	r3, #:lower16:wa
 496 0010 9268     		ldr	r2, [r2, #8]
 497 0012 C0F20003 		movt	r3, #:upper16:wa
 498              		.loc 1 134 0
 499 0016 82B0     		sub	sp, sp, #8
 500              		.cfi_def_cfa_offset 16
 501              		.loc 1 137 0
 502 0018 1868     		ldr	r0, [r3]
 503 001a 0021     		movs	r1, #0
 504 001c 40F20003 		movw	r3, #:lower16:thread1
 505 0020 0132     		adds	r2, r2, #1
 506 0022 0091     		str	r1, [sp]
 507 0024 C0F20003 		movt	r3, #:upper16:thread1
 508 0028 4FF4A871 		mov	r1, #336
 509 002c FFF7FEFF 		bl	chThdCreateStatic
 510              	.LVL65:
 511 0030 40F20003 		movw	r3, #:lower16:threads
 512 0034 C0F20003 		movt	r3, #:upper16:threads
 513 0038 1860     		str	r0, [r3]
ARM GAS  /tmp/cceUfChG.s 			page 10


 514              		.loc 1 138 0
 515 003a FFF7FEFF 		bl	msg_loop_test
 516              	.LVL66:
 517 003e 0446     		mov	r4, r0
 518              	.LVL67:
 519              		.loc 1 139 0
 520 0040 FFF7FEFF 		bl	test_wait_threads
 521              	.LVL68:
 522              		.loc 1 140 0
 523 0044 40F20000 		movw	r0, #:lower16:.LC11
 524 0048 C0F20000 		movt	r0, #:upper16:.LC11
 525 004c FFF7FEFF 		bl	test_print
 526              	.LVL69:
 527              		.loc 1 141 0
 528 0050 2046     		mov	r0, r4
 529 0052 FFF7FEFF 		bl	test_printn
 530              	.LVL70:
 531              		.loc 1 142 0
 532 0056 40F20000 		movw	r0, #:lower16:.LC13
 533 005a C0F20000 		movt	r0, #:upper16:.LC13
 534 005e FFF7FEFF 		bl	test_print
 535              	.LVL71:
 536              		.loc 1 143 0
 537 0062 6000     		lsls	r0, r4, #1
 538 0064 FFF7FEFF 		bl	test_printn
 539              	.LVL72:
 540              		.loc 1 144 0
 541 0068 40F20000 		movw	r0, #:lower16:.LC14
 542 006c C0F20000 		movt	r0, #:upper16:.LC14
 543              		.loc 1 145 0
 544 0070 02B0     		add	sp, sp, #8
 545              		@ sp needed
 546 0072 BDE81040 		pop	{r4, lr}
 547              	.LVL73:
 548              		.loc 1 144 0
 549 0076 FFF7FEBF 		b	test_println
 550              	.LVL74:
 551              		.cfi_endproc
 552              	.LFE10:
 553              		.size	bmk2_execute, .-bmk2_execute
 554 007a 00BF     		.section	.text.bmk3_execute,"ax",%progbits
 555              		.align	2
 556              		.thumb
 557              		.thumb_func
 558              		.type	bmk3_execute, %function
 559              	bmk3_execute:
 560              	.LFB12:
 561              		.loc 1 169 0
 562              		.cfi_startproc
 563              		@ args = 0, pretend = 0, frame = 0
 564              		@ frame_needed = 0, uses_anonymous_args = 0
 565 0000 2DE9F041 		push	{r4, r5, r6, r7, r8, lr}
 566              		.cfi_def_cfa_offset 24
 567              		.cfi_offset 4, -24
 568              		.cfi_offset 5, -20
 569              		.cfi_offset 6, -16
 570              		.cfi_offset 7, -12
ARM GAS  /tmp/cceUfChG.s 			page 11


 571              		.cfi_offset 8, -8
 572              		.cfi_offset 14, -4
 573              		.loc 1 172 0
 574 0004 40F20006 		movw	r6, #:lower16:rlist
 575 0008 C0F20006 		movt	r6, #:upper16:rlist
 576 000c B369     		ldr	r3, [r6, #24]
 577 000e 40F20005 		movw	r5, #:lower16:wa
 578 0012 9A68     		ldr	r2, [r3, #8]
 579              		.loc 1 169 0
 580 0014 82B0     		sub	sp, sp, #8
 581              		.cfi_def_cfa_offset 32
 582              		.loc 1 172 0
 583 0016 C0F20005 		movt	r5, #:upper16:wa
 584 001a 4FF00008 		mov	r8, #0
 585 001e 40F20003 		movw	r3, #:lower16:thread1
 586 0022 2868     		ldr	r0, [r5]
 587 0024 0132     		adds	r2, r2, #1
 588 0026 CDF80080 		str	r8, [sp]
 589 002a C0F20003 		movt	r3, #:upper16:thread1
 590 002e 4FF4A871 		mov	r1, #336
 591 0032 FFF7FEFF 		bl	chThdCreateStatic
 592              	.LVL75:
 593              		.loc 1 173 0
 594 0036 B369     		ldr	r3, [r6, #24]
 595              		.loc 1 172 0
 596 0038 40F20004 		movw	r4, #:lower16:threads
 597              		.loc 1 173 0
 598 003c 9A68     		ldr	r2, [r3, #8]
 599 003e 40F20007 		movw	r7, #:lower16:thread2
 600 0042 6B68     		ldr	r3, [r5, #4]
 601              		.loc 1 172 0
 602 0044 C0F20004 		movt	r4, #:upper16:threads
 603              		.loc 1 173 0
 604 0048 C0F20007 		movt	r7, #:upper16:thread2
 605              		.loc 1 172 0
 606 004c 2060     		str	r0, [r4]
 607              		.loc 1 173 0
 608 004e 023A     		subs	r2, r2, #2
 609 0050 CDF80080 		str	r8, [sp]
 610 0054 1846     		mov	r0, r3
 611 0056 4FF4A871 		mov	r1, #336
 612 005a 3B46     		mov	r3, r7
 613 005c FFF7FEFF 		bl	chThdCreateStatic
 614              	.LVL76:
 615              		.loc 1 174 0
 616 0060 B269     		ldr	r2, [r6, #24]
 617 0062 AB68     		ldr	r3, [r5, #8]
 618 0064 9268     		ldr	r2, [r2, #8]
 619 0066 4FF4A871 		mov	r1, #336
 620              		.loc 1 173 0
 621 006a 6060     		str	r0, [r4, #4]
 622              		.loc 1 174 0
 623 006c 033A     		subs	r2, r2, #3
 624 006e CDF80080 		str	r8, [sp]
 625 0072 1846     		mov	r0, r3
 626 0074 3B46     		mov	r3, r7
 627 0076 FFF7FEFF 		bl	chThdCreateStatic
ARM GAS  /tmp/cceUfChG.s 			page 12


 628              	.LVL77:
 629              		.loc 1 175 0
 630 007a B269     		ldr	r2, [r6, #24]
 631 007c EB68     		ldr	r3, [r5, #12]
 632 007e 9268     		ldr	r2, [r2, #8]
 633 0080 4FF4A871 		mov	r1, #336
 634              		.loc 1 174 0
 635 0084 A060     		str	r0, [r4, #8]
 636              		.loc 1 175 0
 637 0086 043A     		subs	r2, r2, #4
 638 0088 CDF80080 		str	r8, [sp]
 639 008c 1846     		mov	r0, r3
 640 008e 3B46     		mov	r3, r7
 641 0090 FFF7FEFF 		bl	chThdCreateStatic
 642              	.LVL78:
 643              		.loc 1 176 0
 644 0094 B269     		ldr	r2, [r6, #24]
 645 0096 2B69     		ldr	r3, [r5, #16]
 646 0098 9268     		ldr	r2, [r2, #8]
 647 009a 4FF4A871 		mov	r1, #336
 648 009e 053A     		subs	r2, r2, #5
 649              		.loc 1 175 0
 650 00a0 E060     		str	r0, [r4, #12]
 651              		.loc 1 176 0
 652 00a2 1846     		mov	r0, r3
 653 00a4 CDF80080 		str	r8, [sp]
 654 00a8 3B46     		mov	r3, r7
 655 00aa FFF7FEFF 		bl	chThdCreateStatic
 656              	.LVL79:
 657 00ae 2061     		str	r0, [r4, #16]
 658              		.loc 1 177 0
 659 00b0 2068     		ldr	r0, [r4]
 660 00b2 FFF7FEFF 		bl	msg_loop_test
 661              	.LVL80:
 662 00b6 0446     		mov	r4, r0
 663              	.LVL81:
 664              		.loc 1 178 0
 665 00b8 FFF7FEFF 		bl	test_wait_threads
 666              	.LVL82:
 667              		.loc 1 179 0
 668 00bc 40F20000 		movw	r0, #:lower16:.LC11
 669 00c0 C0F20000 		movt	r0, #:upper16:.LC11
 670 00c4 FFF7FEFF 		bl	test_print
 671              	.LVL83:
 672              		.loc 1 180 0
 673 00c8 2046     		mov	r0, r4
 674 00ca FFF7FEFF 		bl	test_printn
 675              	.LVL84:
 676              		.loc 1 181 0
 677 00ce 40F20000 		movw	r0, #:lower16:.LC13
 678 00d2 C0F20000 		movt	r0, #:upper16:.LC13
 679 00d6 FFF7FEFF 		bl	test_print
 680              	.LVL85:
 681              		.loc 1 182 0
 682 00da 6000     		lsls	r0, r4, #1
 683 00dc FFF7FEFF 		bl	test_printn
 684              	.LVL86:
ARM GAS  /tmp/cceUfChG.s 			page 13


 685              		.loc 1 183 0
 686 00e0 40F20000 		movw	r0, #:lower16:.LC14
 687 00e4 C0F20000 		movt	r0, #:upper16:.LC14
 688              		.loc 1 184 0
 689 00e8 02B0     		add	sp, sp, #8
 690              		@ sp needed
 691 00ea BDE8F041 		pop	{r4, r5, r6, r7, r8, lr}
 692              	.LVL87:
 693              		.loc 1 183 0
 694 00ee FFF7FEBF 		b	test_println
 695              	.LVL88:
 696              		.cfi_endproc
 697              	.LFE12:
 698              		.size	bmk3_execute, .-bmk3_execute
 699 00f2 00BF     		.section	.text.thread4,"ax",%progbits
 700              		.align	2
 701              		.global	thread4
 702              		.thumb
 703              		.thumb_func
 704              		.type	thread4, %function
 705              	thread4:
 706              	.LFB13:
 707              		.loc 1 203 0
 708              		.cfi_startproc
 709              		@ args = 0, pretend = 0, frame = 0
 710              		@ frame_needed = 0, uses_anonymous_args = 0
 711              	.LVL89:
 712              		.loc 1 205 0
 713 0000 40F20003 		movw	r3, #:lower16:rlist
 714 0004 C0F20003 		movt	r3, #:upper16:rlist
 715              		.loc 1 203 0
 716 0008 10B5     		push	{r4, lr}
 717              		.cfi_def_cfa_offset 8
 718              		.cfi_offset 4, -8
 719              		.cfi_offset 14, -4
 720              		.loc 1 205 0
 721 000a 9C69     		ldr	r4, [r3, #24]
 722              	.LVL90:
 723              	.LBB2:
 724              		.loc 1 208 0
 725 000c 2023     		movs	r3, #32
 726              	@ 208 "/opt/ChibiOS_2.6.6/test/testbmk.c" 1
 727 000e 83F31188 		msr     BASEPRI, r3
 728              	@ 0 "" 2
 729              	.LVL91:
 730              		.thumb
 731              	.L19:
 732              	.LBE2:
 733              		.loc 1 210 0 discriminator 1
 734 0012 0220     		movs	r0, #2
 735 0014 FFF7FEFF 		bl	chSchGoSleepS
 736              	.LVL92:
 737              		.loc 1 212 0 discriminator 1
 738 0018 636A     		ldr	r3, [r4, #36]
 739 001a 002B     		cmp	r3, #0
 740 001c F9D0     		beq	.L19
 741              	.LBB3:
ARM GAS  /tmp/cceUfChG.s 			page 14


 742              		.loc 1 213 0
 743 001e 0023     		movs	r3, #0
 744              	@ 213 "/opt/ChibiOS_2.6.6/test/testbmk.c" 1
 745 0020 83F31188 		msr     BASEPRI, r3
 746              	@ 0 "" 2
 747              		.thumb
 748              	.LBE3:
 749              		.loc 1 215 0
 750 0024 0020     		movs	r0, #0
 751 0026 10BD     		pop	{r4, pc}
 752              		.cfi_endproc
 753              	.LFE13:
 754              		.size	thread4, .-thread4
 755              		.section	.text.bmk4_execute,"ax",%progbits
 756              		.align	2
 757              		.thumb
 758              		.thumb_func
 759              		.type	bmk4_execute, %function
 760              	bmk4_execute:
 761              	.LFB14:
 762              		.loc 1 217 0
 763              		.cfi_startproc
 764              		@ args = 0, pretend = 0, frame = 0
 765              		@ frame_needed = 0, uses_anonymous_args = 0
 766 0000 70B5     		push	{r4, r5, r6, lr}
 767              		.cfi_def_cfa_offset 16
 768              		.cfi_offset 4, -16
 769              		.cfi_offset 5, -12
 770              		.cfi_offset 6, -8
 771              		.cfi_offset 14, -4
 772              		.loc 1 221 0
 773 0002 40F20003 		movw	r3, #:lower16:rlist
 774 0006 C0F20003 		movt	r3, #:upper16:rlist
 775 000a 9A69     		ldr	r2, [r3, #24]
 776 000c 40F20003 		movw	r3, #:lower16:wa
 777 0010 9268     		ldr	r2, [r2, #8]
 778 0012 C0F20003 		movt	r3, #:upper16:wa
 779              		.loc 1 217 0
 780 0016 82B0     		sub	sp, sp, #8
 781              		.cfi_def_cfa_offset 24
 782              		.loc 1 221 0
 783 0018 1868     		ldr	r0, [r3]
 784 001a 0025     		movs	r5, #0
 785 001c 40F20003 		movw	r3, #:lower16:thread4
 786 0020 0132     		adds	r2, r2, #1
 787 0022 4FF4A871 		mov	r1, #336
 788 0026 C0F20003 		movt	r3, #:upper16:thread4
 789 002a 0095     		str	r5, [sp]
 790 002c FFF7FEFF 		bl	chThdCreateStatic
 791              	.LVL93:
 792 0030 40F20003 		movw	r3, #:lower16:threads
 793 0034 C0F20003 		movt	r3, #:upper16:threads
 794 0038 1860     		str	r0, [r3]
 795 003a 0446     		mov	r4, r0
 796              	.LVL94:
 797              		.loc 1 223 0
 798 003c FFF7FEFF 		bl	test_wait_tick
ARM GAS  /tmp/cceUfChG.s 			page 15


 799              	.LVL95:
 800              		.loc 1 224 0
 801 0040 4FF47A70 		mov	r0, #1000
 802 0044 FFF7FEFF 		bl	test_start_timer
 803              	.LVL96:
 804 0048 40F20006 		movw	r6, #:lower16:test_timer_done
 805 004c C0F20006 		movt	r6, #:upper16:test_timer_done
 806              	.LVL97:
 807              	.L22:
 808              	.LBB4:
 809              		.loc 1 226 0 discriminator 1
 810 0050 2023     		movs	r3, #32
 811              	@ 226 "/opt/ChibiOS_2.6.6/test/testbmk.c" 1
 812 0052 83F31188 		msr     BASEPRI, r3
 813              	@ 0 "" 2
 814              		.thumb
 815              	.LBE4:
 816              		.loc 1 227 0 discriminator 1
 817 0056 0021     		movs	r1, #0
 818 0058 2046     		mov	r0, r4
 819 005a FFF7FEFF 		bl	chSchWakeupS
 820              	.LVL98:
 821              		.loc 1 228 0 discriminator 1
 822 005e 2046     		mov	r0, r4
 823 0060 0021     		movs	r1, #0
 824 0062 FFF7FEFF 		bl	chSchWakeupS
 825              	.LVL99:
 826              		.loc 1 229 0 discriminator 1
 827 0066 2046     		mov	r0, r4
 828 0068 0021     		movs	r1, #0
 829 006a FFF7FEFF 		bl	chSchWakeupS
 830              	.LVL100:
 831              		.loc 1 230 0 discriminator 1
 832 006e 2046     		mov	r0, r4
 833 0070 0021     		movs	r1, #0
 834 0072 FFF7FEFF 		bl	chSchWakeupS
 835              	.LVL101:
 836              	.LBB5:
 837              		.loc 1 231 0 discriminator 1
 838 0076 0023     		movs	r3, #0
 839              	@ 231 "/opt/ChibiOS_2.6.6/test/testbmk.c" 1
 840 0078 83F31188 		msr     BASEPRI, r3
 841              	@ 0 "" 2
 842              		.thumb
 843              	.LBE5:
 844              		.loc 1 236 0 discriminator 1
 845 007c 3378     		ldrb	r3, [r6]	@ zero_extendqisi2
 846              		.loc 1 232 0 discriminator 1
 847 007e 0435     		adds	r5, r5, #4
 848              	.LVL102:
 849              		.loc 1 236 0 discriminator 1
 850 0080 002B     		cmp	r3, #0
 851 0082 E5D0     		beq	.L22
 852              	.LBB6:
 853              		.loc 1 237 0
 854 0084 2023     		movs	r3, #32
 855              	@ 237 "/opt/ChibiOS_2.6.6/test/testbmk.c" 1
ARM GAS  /tmp/cceUfChG.s 			page 16


 856 0086 83F31188 		msr     BASEPRI, r3
 857              	@ 0 "" 2
 858              		.thumb
 859              	.LBE6:
 860              		.loc 1 238 0
 861 008a 4FF0FF31 		mov	r1, #-1
 862 008e 2046     		mov	r0, r4
 863 0090 FFF7FEFF 		bl	chSchWakeupS
 864              	.LVL103:
 865              	.LBB7:
 866              		.loc 1 239 0
 867 0094 0023     		movs	r3, #0
 868              	@ 239 "/opt/ChibiOS_2.6.6/test/testbmk.c" 1
 869 0096 83F31188 		msr     BASEPRI, r3
 870              	@ 0 "" 2
 871              		.thumb
 872              	.LBE7:
 873              		.loc 1 241 0
 874 009a FFF7FEFF 		bl	test_wait_threads
 875              	.LVL104:
 876              		.loc 1 242 0
 877 009e 40F20000 		movw	r0, #:lower16:.LC11
 878 00a2 C0F20000 		movt	r0, #:upper16:.LC11
 879 00a6 FFF7FEFF 		bl	test_print
 880              	.LVL105:
 881              		.loc 1 243 0
 882 00aa 6800     		lsls	r0, r5, #1
 883 00ac FFF7FEFF 		bl	test_printn
 884              	.LVL106:
 885              		.loc 1 244 0
 886 00b0 40F20000 		movw	r0, #:lower16:.LC14
 887 00b4 C0F20000 		movt	r0, #:upper16:.LC14
 888              		.loc 1 245 0
 889 00b8 02B0     		add	sp, sp, #8
 890              		@ sp needed
 891 00ba BDE87040 		pop	{r4, r5, r6, lr}
 892              	.LVL107:
 893              		.loc 1 244 0
 894 00be FFF7FEBF 		b	test_println
 895              	.LVL108:
 896              		.cfi_endproc
 897              	.LFE14:
 898              		.size	bmk4_execute, .-bmk4_execute
 899 00c2 00BF     		.section	.text.bmk5_execute,"ax",%progbits
 900              		.align	2
 901              		.thumb
 902              		.thumb_func
 903              		.type	bmk5_execute, %function
 904              	bmk5_execute:
 905              	.LFB15:
 906              		.loc 1 265 0
 907              		.cfi_startproc
 908              		@ args = 0, pretend = 0, frame = 0
 909              		@ frame_needed = 0, uses_anonymous_args = 0
 910              	.LVL109:
 911 0000 2DE9F041 		push	{r4, r5, r6, r7, r8, lr}
 912              		.cfi_def_cfa_offset 24
ARM GAS  /tmp/cceUfChG.s 			page 17


 913              		.cfi_offset 4, -24
 914              		.cfi_offset 5, -20
 915              		.cfi_offset 6, -16
 916              		.cfi_offset 7, -12
 917              		.cfi_offset 8, -8
 918              		.cfi_offset 14, -4
 919              		.loc 1 269 0
 920 0004 40F20003 		movw	r3, #:lower16:rlist
 921 0008 C0F20003 		movt	r3, #:upper16:rlist
 922 000c 9A69     		ldr	r2, [r3, #24]
 923              		.loc 1 268 0
 924 000e 40F20003 		movw	r3, #:lower16:wa
 925              		.loc 1 269 0
 926 0012 9268     		ldr	r2, [r2, #8]
 927              		.loc 1 268 0
 928 0014 C0F20003 		movt	r3, #:upper16:wa
 929              		.loc 1 265 0
 930 0018 82B0     		sub	sp, sp, #8
 931              		.cfi_def_cfa_offset 32
 932              		.loc 1 269 0
 933 001a 02F1FF38 		add	r8, r2, #-1
 934              		.loc 1 268 0
 935 001e 1F68     		ldr	r7, [r3]
 936              	.LVL110:
 937              		.loc 1 270 0
 938 0020 FFF7FEFF 		bl	test_wait_tick
 939              	.LVL111:
 940              		.loc 1 271 0
 941 0024 4FF47A70 		mov	r0, #1000
 942 0028 FFF7FEFF 		bl	test_start_timer
 943              	.LVL112:
 944              		.loc 1 267 0
 945 002c 0024     		movs	r4, #0
 946 002e 40F20005 		movw	r5, #:lower16:test_timer_done
 947              		.loc 1 273 0
 948 0032 2646     		mov	r6, r4
 949 0034 C0F20005 		movt	r5, #:upper16:test_timer_done
 950              	.LVL113:
 951              	.L25:
 952              		.loc 1 273 0 is_stmt 0 discriminator 1
 953 0038 40F20003 		movw	r3, #:lower16:thread2
 954 003c C0F20003 		movt	r3, #:upper16:thread2
 955 0040 4FF4A871 		mov	r1, #336
 956 0044 4246     		mov	r2, r8
 957 0046 0096     		str	r6, [sp]
 958 0048 3846     		mov	r0, r7
 959 004a FFF7FEFF 		bl	chThdCreateStatic
 960              	.LVL114:
 961 004e FFF7FEFF 		bl	chThdWait
 962              	.LVL115:
 963              		.loc 1 278 0 is_stmt 1 discriminator 1
 964 0052 2B78     		ldrb	r3, [r5]	@ zero_extendqisi2
 965              		.loc 1 274 0 discriminator 1
 966 0054 0134     		adds	r4, r4, #1
 967              	.LVL116:
 968              		.loc 1 278 0 discriminator 1
 969 0056 002B     		cmp	r3, #0
ARM GAS  /tmp/cceUfChG.s 			page 18


 970 0058 EED0     		beq	.L25
 971              		.loc 1 279 0
 972 005a 40F20000 		movw	r0, #:lower16:.LC11
 973 005e C0F20000 		movt	r0, #:upper16:.LC11
 974 0062 FFF7FEFF 		bl	test_print
 975              	.LVL117:
 976              		.loc 1 280 0
 977 0066 2046     		mov	r0, r4
 978 0068 FFF7FEFF 		bl	test_printn
 979              	.LVL118:
 980              		.loc 1 281 0
 981 006c 40F20000 		movw	r0, #:lower16:.LC12
 982 0070 C0F20000 		movt	r0, #:upper16:.LC12
 983              		.loc 1 282 0
 984 0074 02B0     		add	sp, sp, #8
 985              		@ sp needed
 986 0076 BDE8F041 		pop	{r4, r5, r6, r7, r8, lr}
 987              	.LVL119:
 988              		.loc 1 281 0
 989 007a FFF7FEBF 		b	test_println
 990              	.LVL120:
 991              		.cfi_endproc
 992              	.LFE15:
 993              		.size	bmk5_execute, .-bmk5_execute
 994 007e 00BF     		.section	.text.bmk7_execute,"ax",%progbits
 995              		.align	2
 996              		.thumb
 997              		.thumb_func
 998              		.type	bmk7_execute, %function
 999              	bmk7_execute:
 1000              	.LFB19:
 1001              		.loc 1 354 0
 1002              		.cfi_startproc
 1003              		@ args = 0, pretend = 0, frame = 0
 1004              		@ frame_needed = 0, uses_anonymous_args = 0
 1005 0000 F0B5     		push	{r4, r5, r6, r7, lr}
 1006              		.cfi_def_cfa_offset 20
 1007              		.cfi_offset 4, -20
 1008              		.cfi_offset 5, -16
 1009              		.cfi_offset 6, -12
 1010              		.cfi_offset 7, -8
 1011              		.cfi_offset 14, -4
 1012              		.loc 1 357 0
 1013 0002 40F20007 		movw	r7, #:lower16:rlist
 1014 0006 C0F20007 		movt	r7, #:upper16:rlist
 1015 000a BB69     		ldr	r3, [r7, #24]
 1016 000c 40F20006 		movw	r6, #:lower16:wa
 1017 0010 9A68     		ldr	r2, [r3, #8]
 1018              		.loc 1 354 0
 1019 0012 83B0     		sub	sp, sp, #12
 1020              		.cfi_def_cfa_offset 32
 1021              		.loc 1 357 0
 1022 0014 C0F20006 		movt	r6, #:upper16:wa
 1023 0018 0024     		movs	r4, #0
 1024 001a 40F20003 		movw	r3, #:lower16:thread3
 1025 001e 0532     		adds	r2, r2, #5
 1026 0020 C0F20003 		movt	r3, #:upper16:thread3
ARM GAS  /tmp/cceUfChG.s 			page 19


 1027 0024 4FF4A871 		mov	r1, #336
 1028 0028 3068     		ldr	r0, [r6]
 1029 002a 0094     		str	r4, [sp]
 1030 002c FFF7FEFF 		bl	chThdCreateStatic
 1031              	.LVL121:
 1032              		.loc 1 358 0
 1033 0030 BB69     		ldr	r3, [r7, #24]
 1034 0032 7168     		ldr	r1, [r6, #4]
 1035 0034 9A68     		ldr	r2, [r3, #8]
 1036              		.loc 1 357 0
 1037 0036 40F20005 		movw	r5, #:lower16:threads
 1038 003a C0F20005 		movt	r5, #:upper16:threads
 1039              		.loc 1 358 0
 1040 003e 40F20003 		movw	r3, #:lower16:thread3
 1041              		.loc 1 357 0
 1042 0042 2860     		str	r0, [r5]
 1043              		.loc 1 358 0
 1044 0044 0432     		adds	r2, r2, #4
 1045 0046 0846     		mov	r0, r1
 1046 0048 C0F20003 		movt	r3, #:upper16:thread3
 1047 004c 4FF4A871 		mov	r1, #336
 1048 0050 0094     		str	r4, [sp]
 1049 0052 FFF7FEFF 		bl	chThdCreateStatic
 1050              	.LVL122:
 1051              		.loc 1 359 0
 1052 0056 BB69     		ldr	r3, [r7, #24]
 1053 0058 B168     		ldr	r1, [r6, #8]
 1054 005a 9A68     		ldr	r2, [r3, #8]
 1055 005c 40F20003 		movw	r3, #:lower16:thread3
 1056              		.loc 1 358 0
 1057 0060 6860     		str	r0, [r5, #4]
 1058              		.loc 1 359 0
 1059 0062 0332     		adds	r2, r2, #3
 1060 0064 0846     		mov	r0, r1
 1061 0066 C0F20003 		movt	r3, #:upper16:thread3
 1062 006a 4FF4A871 		mov	r1, #336
 1063 006e 0094     		str	r4, [sp]
 1064 0070 FFF7FEFF 		bl	chThdCreateStatic
 1065              	.LVL123:
 1066              		.loc 1 360 0
 1067 0074 BB69     		ldr	r3, [r7, #24]
 1068 0076 F168     		ldr	r1, [r6, #12]
 1069 0078 9A68     		ldr	r2, [r3, #8]
 1070 007a 40F20003 		movw	r3, #:lower16:thread3
 1071              		.loc 1 359 0
 1072 007e A860     		str	r0, [r5, #8]
 1073              		.loc 1 360 0
 1074 0080 0232     		adds	r2, r2, #2
 1075 0082 0846     		mov	r0, r1
 1076 0084 C0F20003 		movt	r3, #:upper16:thread3
 1077 0088 4FF4A871 		mov	r1, #336
 1078 008c 0094     		str	r4, [sp]
 1079 008e FFF7FEFF 		bl	chThdCreateStatic
 1080              	.LVL124:
 1081              		.loc 1 361 0
 1082 0092 BB69     		ldr	r3, [r7, #24]
 1083 0094 3169     		ldr	r1, [r6, #16]
ARM GAS  /tmp/cceUfChG.s 			page 20


 1084 0096 9A68     		ldr	r2, [r3, #8]
 1085 0098 40F20003 		movw	r3, #:lower16:thread3
 1086              		.loc 1 360 0
 1087 009c E860     		str	r0, [r5, #12]
 1088              		.loc 1 361 0
 1089 009e 0132     		adds	r2, r2, #1
 1090 00a0 C0F20003 		movt	r3, #:upper16:thread3
 1091 00a4 0846     		mov	r0, r1
 1092 00a6 0094     		str	r4, [sp]
 1093 00a8 4FF4A871 		mov	r1, #336
 1094 00ac FFF7FEFF 		bl	chThdCreateStatic
 1095              	.LVL125:
 1096 00b0 2861     		str	r0, [r5, #16]
 1097              	.LVL126:
 1098              		.loc 1 364 0
 1099 00b2 FFF7FEFF 		bl	test_wait_tick
 1100              	.LVL127:
 1101              		.loc 1 365 0
 1102 00b6 4FF47A70 		mov	r0, #1000
 1103 00ba FFF7FEFF 		bl	test_start_timer
 1104              	.LVL128:
 1105 00be 40F20005 		movw	r5, #:lower16:test_timer_done
 1106 00c2 C0F20005 		movt	r5, #:upper16:test_timer_done
 1107              	.LVL129:
 1108              	.L28:
 1109              		.loc 1 367 0 discriminator 1
 1110 00c6 40F20000 		movw	r0, #:lower16:.LANCHOR0
 1111 00ca C0F20000 		movt	r0, #:upper16:.LANCHOR0
 1112 00ce 0021     		movs	r1, #0
 1113 00d0 FFF7FEFF 		bl	chSemReset
 1114              	.LVL130:
 1115              		.loc 1 372 0 discriminator 1
 1116 00d4 2B78     		ldrb	r3, [r5]	@ zero_extendqisi2
 1117              		.loc 1 368 0 discriminator 1
 1118 00d6 0134     		adds	r4, r4, #1
 1119              	.LVL131:
 1120              		.loc 1 372 0 discriminator 1
 1121 00d8 002B     		cmp	r3, #0
 1122 00da F4D0     		beq	.L28
 1123              		.loc 1 373 0
 1124 00dc FFF7FEFF 		bl	test_terminate_threads
 1125              	.LVL132:
 1126              		.loc 1 374 0
 1127 00e0 40F20000 		movw	r0, #:lower16:.LANCHOR0
 1128 00e4 0021     		movs	r1, #0
 1129 00e6 C0F20000 		movt	r0, #:upper16:.LANCHOR0
 1130 00ea FFF7FEFF 		bl	chSemReset
 1131              	.LVL133:
 1132              		.loc 1 375 0
 1133 00ee FFF7FEFF 		bl	test_wait_threads
 1134              	.LVL134:
 1135              		.loc 1 377 0
 1136 00f2 40F20000 		movw	r0, #:lower16:.LC11
 1137 00f6 C0F20000 		movt	r0, #:upper16:.LC11
 1138 00fa FFF7FEFF 		bl	test_print
 1139              	.LVL135:
 1140              		.loc 1 378 0
ARM GAS  /tmp/cceUfChG.s 			page 21


 1141 00fe 2046     		mov	r0, r4
 1142 0100 FFF7FEFF 		bl	test_printn
 1143              	.LVL136:
 1144              		.loc 1 379 0
 1145 0104 40F20000 		movw	r0, #:lower16:.LC15
 1146 0108 C0F20000 		movt	r0, #:upper16:.LC15
 1147 010c FFF7FEFF 		bl	test_print
 1148              	.LVL137:
 1149              		.loc 1 380 0
 1150 0110 04EB4400 		add	r0, r4, r4, lsl #1
 1151 0114 4000     		lsls	r0, r0, #1
 1152 0116 FFF7FEFF 		bl	test_printn
 1153              	.LVL138:
 1154              		.loc 1 381 0
 1155 011a 40F20000 		movw	r0, #:lower16:.LC14
 1156 011e C0F20000 		movt	r0, #:upper16:.LC14
 1157              		.loc 1 382 0
 1158 0122 03B0     		add	sp, sp, #12
 1159              		@ sp needed
 1160 0124 BDE8F040 		pop	{r4, r5, r6, r7, lr}
 1161              	.LVL139:
 1162              		.loc 1 381 0
 1163 0128 FFF7FEBF 		b	test_println
 1164              	.LVL140:
 1165              		.cfi_endproc
 1166              	.LFE19:
 1167              		.size	bmk7_execute, .-bmk7_execute
 1168              		.section	.text.thread3,"ax",%progbits
 1169              		.align	2
 1170              		.thumb
 1171              		.thumb_func
 1172              		.type	thread3, %function
 1173              	thread3:
 1174              	.LFB17:
 1175              		.loc 1 341 0
 1176              		.cfi_startproc
 1177              		@ args = 0, pretend = 0, frame = 0
 1178              		@ frame_needed = 0, uses_anonymous_args = 0
 1179              	.LVL141:
 1180 0000 10B5     		push	{r4, lr}
 1181              		.cfi_def_cfa_offset 8
 1182              		.cfi_offset 4, -8
 1183              		.cfi_offset 14, -4
 1184              		.loc 1 344 0
 1185 0002 40F20004 		movw	r4, #:lower16:rlist
 1186 0006 C0F20004 		movt	r4, #:upper16:rlist
 1187 000a A369     		ldr	r3, [r4, #24]
 1188 000c 5B7F     		ldrb	r3, [r3, #29]	@ zero_extendqisi2
 1189 000e 5A07     		lsls	r2, r3, #29
 1190 0010 09D4     		bmi	.L33
 1191              	.LVL142:
 1192              	.L32:
 1193              		.loc 1 345 0
 1194 0012 40F20000 		movw	r0, #:lower16:.LANCHOR0
 1195 0016 C0F20000 		movt	r0, #:upper16:.LANCHOR0
 1196 001a FFF7FEFF 		bl	chSemWait
 1197              	.LVL143:
ARM GAS  /tmp/cceUfChG.s 			page 22


 1198              		.loc 1 344 0
 1199 001e A369     		ldr	r3, [r4, #24]
 1200 0020 5B7F     		ldrb	r3, [r3, #29]	@ zero_extendqisi2
 1201 0022 5B07     		lsls	r3, r3, #29
 1202 0024 F5D5     		bpl	.L32
 1203              	.L33:
 1204              		.loc 1 347 0
 1205 0026 0020     		movs	r0, #0
 1206 0028 10BD     		pop	{r4, pc}
 1207              		.cfi_endproc
 1208              	.LFE17:
 1209              		.size	thread3, .-thread3
 1210 002a 00BF     		.section	.text.bmk7_setup,"ax",%progbits
 1211              		.align	2
 1212              		.thumb
 1213              		.thumb_func
 1214              		.type	bmk7_setup, %function
 1215              	bmk7_setup:
 1216              	.LFB18:
 1217              		.loc 1 349 0
 1218              		.cfi_startproc
 1219              		@ args = 0, pretend = 0, frame = 0
 1220              		@ frame_needed = 0, uses_anonymous_args = 0
 1221              		@ link register save eliminated.
 1222              		.loc 1 351 0
 1223 0000 40F20000 		movw	r0, #:lower16:.LANCHOR0
 1224 0004 C0F20000 		movt	r0, #:upper16:.LANCHOR0
 1225 0008 0021     		movs	r1, #0
 1226 000a FFF7FEBF 		b	chSemInit
 1227              	.LVL144:
 1228              		.cfi_endproc
 1229              	.LFE18:
 1230              		.size	bmk7_setup, .-bmk7_setup
 1231 000e 00BF     		.section	.text.bmk11_setup,"ax",%progbits
 1232              		.align	2
 1233              		.thumb
 1234              		.thumb_func
 1235              		.type	bmk11_setup, %function
 1236              	bmk11_setup:
 1237              	.LFB25:
 1238              		.loc 1 545 0
 1239              		.cfi_startproc
 1240              		@ args = 0, pretend = 0, frame = 0
 1241              		@ frame_needed = 0, uses_anonymous_args = 0
 1242              		@ link register save eliminated.
 1243              		.loc 1 547 0
 1244 0000 40F20000 		movw	r0, #:lower16:.LANCHOR0
 1245 0004 C0F20000 		movt	r0, #:upper16:.LANCHOR0
 1246 0008 0121     		movs	r1, #1
 1247 000a FFF7FEBF 		b	chSemInit
 1248              	.LVL145:
 1249              		.cfi_endproc
 1250              	.LFE25:
 1251              		.size	bmk11_setup, .-bmk11_setup
 1252 000e 00BF     		.section	.text.bmk8_execute,"ax",%progbits
 1253              		.align	2
 1254              		.thumb
ARM GAS  /tmp/cceUfChG.s 			page 23


 1255              		.thumb_func
 1256              		.type	bmk8_execute, %function
 1257              	bmk8_execute:
 1258              	.LFB21:
 1259              		.loc 1 416 0
 1260              		.cfi_startproc
 1261              		@ args = 0, pretend = 0, frame = 8
 1262              		@ frame_needed = 0, uses_anonymous_args = 0
 1263 0000 2DE9F041 		push	{r4, r5, r6, r7, r8, lr}
 1264              		.cfi_def_cfa_offset 24
 1265              		.cfi_offset 4, -24
 1266              		.cfi_offset 5, -20
 1267              		.cfi_offset 6, -16
 1268              		.cfi_offset 7, -12
 1269              		.cfi_offset 8, -8
 1270              		.cfi_offset 14, -4
 1271              		.loc 1 422 0
 1272 0004 40F20008 		movw	r8, #:lower16:rlist
 1273              		.loc 1 416 0
 1274 0008 84B0     		sub	sp, sp, #16
 1275              		.cfi_def_cfa_offset 40
 1276              		.loc 1 419 0
 1277 000a 04AC     		add	r4, sp, #16
 1278              		.loc 1 422 0
 1279 000c C0F20008 		movt	r8, #:upper16:rlist
 1280              		.loc 1 419 0
 1281 0010 0023     		movs	r3, #0
 1282 0012 44F8043D 		str	r3, [r4, #-4]!
 1283              		.loc 1 420 0
 1284 0016 FFF7FEFF 		bl	test_wait_tick
 1285              	.LVL146:
 1286              		.loc 1 422 0
 1287 001a D8F81830 		ldr	r3, [r8, #24]
 1288 001e 40F20007 		movw	r7, #:lower16:wa
 1289 0022 9A68     		ldr	r2, [r3, #8]
 1290 0024 40F20006 		movw	r6, #:lower16:thread8
 1291 0028 C0F20007 		movt	r7, #:upper16:wa
 1292 002c C0F20006 		movt	r6, #:upper16:thread8
 1293 0030 3346     		mov	r3, r6
 1294 0032 3868     		ldr	r0, [r7]
 1295 0034 013A     		subs	r2, r2, #1
 1296 0036 0094     		str	r4, [sp]
 1297 0038 4FF4A871 		mov	r1, #336
 1298 003c FFF7FEFF 		bl	chThdCreateStatic
 1299              	.LVL147:
 1300              		.loc 1 423 0
 1301 0040 D8F81830 		ldr	r3, [r8, #24]
 1302              		.loc 1 422 0
 1303 0044 40F20005 		movw	r5, #:lower16:threads
 1304              		.loc 1 423 0
 1305 0048 9A68     		ldr	r2, [r3, #8]
 1306 004a 7B68     		ldr	r3, [r7, #4]
 1307              		.loc 1 422 0
 1308 004c C0F20005 		movt	r5, #:upper16:threads
 1309 0050 2860     		str	r0, [r5]
 1310              		.loc 1 423 0
 1311 0052 013A     		subs	r2, r2, #1
ARM GAS  /tmp/cceUfChG.s 			page 24


 1312 0054 0094     		str	r4, [sp]
 1313 0056 1846     		mov	r0, r3
 1314 0058 4FF4A871 		mov	r1, #336
 1315 005c 3346     		mov	r3, r6
 1316 005e FFF7FEFF 		bl	chThdCreateStatic
 1317              	.LVL148:
 1318              		.loc 1 424 0
 1319 0062 D8F81820 		ldr	r2, [r8, #24]
 1320 0066 BB68     		ldr	r3, [r7, #8]
 1321 0068 9268     		ldr	r2, [r2, #8]
 1322 006a 4FF4A871 		mov	r1, #336
 1323              		.loc 1 423 0
 1324 006e 6860     		str	r0, [r5, #4]
 1325              		.loc 1 424 0
 1326 0070 013A     		subs	r2, r2, #1
 1327 0072 0094     		str	r4, [sp]
 1328 0074 1846     		mov	r0, r3
 1329 0076 3346     		mov	r3, r6
 1330 0078 FFF7FEFF 		bl	chThdCreateStatic
 1331              	.LVL149:
 1332              		.loc 1 425 0
 1333 007c D8F81820 		ldr	r2, [r8, #24]
 1334 0080 FB68     		ldr	r3, [r7, #12]
 1335 0082 9268     		ldr	r2, [r2, #8]
 1336 0084 4FF4A871 		mov	r1, #336
 1337              		.loc 1 424 0
 1338 0088 A860     		str	r0, [r5, #8]
 1339              		.loc 1 425 0
 1340 008a 013A     		subs	r2, r2, #1
 1341 008c 0094     		str	r4, [sp]
 1342 008e 1846     		mov	r0, r3
 1343 0090 3346     		mov	r3, r6
 1344 0092 FFF7FEFF 		bl	chThdCreateStatic
 1345              	.LVL150:
 1346              		.loc 1 426 0
 1347 0096 D8F81820 		ldr	r2, [r8, #24]
 1348 009a 3B69     		ldr	r3, [r7, #16]
 1349 009c 9268     		ldr	r2, [r2, #8]
 1350 009e 4FF4A871 		mov	r1, #336
 1351 00a2 013A     		subs	r2, r2, #1
 1352              		.loc 1 425 0
 1353 00a4 E860     		str	r0, [r5, #12]
 1354              		.loc 1 426 0
 1355 00a6 0094     		str	r4, [sp]
 1356 00a8 1846     		mov	r0, r3
 1357 00aa 3346     		mov	r3, r6
 1358 00ac FFF7FEFF 		bl	chThdCreateStatic
 1359              	.LVL151:
 1360 00b0 2861     		str	r0, [r5, #16]
 1361              		.loc 1 428 0
 1362 00b2 4FF47A70 		mov	r0, #1000
 1363 00b6 FFF7FEFF 		bl	chThdSleep
 1364              	.LVL152:
 1365              		.loc 1 429 0
 1366 00ba FFF7FEFF 		bl	test_terminate_threads
 1367              	.LVL153:
 1368              		.loc 1 430 0
ARM GAS  /tmp/cceUfChG.s 			page 25


 1369 00be FFF7FEFF 		bl	test_wait_threads
 1370              	.LVL154:
 1371              		.loc 1 432 0
 1372 00c2 40F20000 		movw	r0, #:lower16:.LC11
 1373 00c6 C0F20000 		movt	r0, #:upper16:.LC11
 1374 00ca FFF7FEFF 		bl	test_print
 1375              	.LVL155:
 1376              		.loc 1 433 0
 1377 00ce 0398     		ldr	r0, [sp, #12]
 1378 00d0 FFF7FEFF 		bl	test_printn
 1379              	.LVL156:
 1380              		.loc 1 434 0
 1381 00d4 40F20000 		movw	r0, #:lower16:.LC14
 1382 00d8 C0F20000 		movt	r0, #:upper16:.LC14
 1383 00dc FFF7FEFF 		bl	test_println
 1384              	.LVL157:
 1385              		.loc 1 435 0
 1386 00e0 04B0     		add	sp, sp, #16
 1387              		@ sp needed
 1388 00e2 BDE8F081 		pop	{r4, r5, r6, r7, r8, pc}
 1389              		.cfi_endproc
 1390              	.LFE21:
 1391              		.size	bmk8_execute, .-bmk8_execute
 1392 00e6 00BF     		.section	.text.thread8,"ax",%progbits
 1393              		.align	2
 1394              		.thumb
 1395              		.thumb_func
 1396              		.type	thread8, %function
 1397              	thread8:
 1398              	.LFB20:
 1399              		.loc 1 401 0
 1400              		.cfi_startproc
 1401              		@ args = 0, pretend = 0, frame = 0
 1402              		@ frame_needed = 0, uses_anonymous_args = 0
 1403              	.LVL158:
 1404 0000 38B5     		push	{r3, r4, r5, lr}
 1405              		.cfi_def_cfa_offset 16
 1406              		.cfi_offset 3, -16
 1407              		.cfi_offset 4, -12
 1408              		.cfi_offset 5, -8
 1409              		.cfi_offset 14, -4
 1410 0002 40F20005 		movw	r5, #:lower16:rlist
 1411              		.loc 1 401 0
 1412 0006 0446     		mov	r4, r0
 1413 0008 C0F20005 		movt	r5, #:upper16:rlist
 1414              	.LVL159:
 1415              	.L39:
 1416              		.loc 1 404 0 discriminator 1
 1417 000c FFF7FEFF 		bl	chThdYield
 1418              	.LVL160:
 1419              		.loc 1 405 0 discriminator 1
 1420 0010 FFF7FEFF 		bl	chThdYield
 1421              	.LVL161:
 1422              		.loc 1 406 0 discriminator 1
 1423 0014 FFF7FEFF 		bl	chThdYield
 1424              	.LVL162:
 1425              		.loc 1 407 0 discriminator 1
ARM GAS  /tmp/cceUfChG.s 			page 26


 1426 0018 FFF7FEFF 		bl	chThdYield
 1427              	.LVL163:
 1428              		.loc 1 408 0 discriminator 1
 1429 001c 2368     		ldr	r3, [r4]
 1430              		.loc 1 412 0 discriminator 1
 1431 001e AA69     		ldr	r2, [r5, #24]
 1432              		.loc 1 408 0 discriminator 1
 1433 0020 0433     		adds	r3, r3, #4
 1434 0022 2360     		str	r3, [r4]
 1435              		.loc 1 412 0 discriminator 1
 1436 0024 537F     		ldrb	r3, [r2, #29]	@ zero_extendqisi2
 1437 0026 5907     		lsls	r1, r3, #29
 1438 0028 F0D5     		bpl	.L39
 1439              		.loc 1 414 0
 1440 002a 0020     		movs	r0, #0
 1441 002c 38BD     		pop	{r3, r4, r5, pc}
 1442              		.cfi_endproc
 1443              	.LFE20:
 1444              		.size	thread8, .-thread8
 1445 002e 00BF     		.section	.text.bmk9_execute,"ax",%progbits
 1446              		.align	2
 1447              		.thumb
 1448              		.thumb_func
 1449              		.type	bmk9_execute, %function
 1450              	bmk9_execute:
 1451              	.LFB22:
 1452              		.loc 1 455 0
 1453              		.cfi_startproc
 1454              		@ args = 0, pretend = 0, frame = 0
 1455              		@ frame_needed = 0, uses_anonymous_args = 0
 1456 0000 30B5     		push	{r4, r5, lr}
 1457              		.cfi_def_cfa_offset 12
 1458              		.cfi_offset 4, -12
 1459              		.cfi_offset 5, -8
 1460              		.cfi_offset 14, -4
 1461              		.loc 1 460 0
 1462 0002 40F20000 		movw	r0, #:lower16:.LANCHOR1
 1463              		.loc 1 455 0
 1464 0006 83B0     		sub	sp, sp, #12
 1465              		.cfi_def_cfa_offset 24
 1466              		.loc 1 460 0
 1467 0008 0024     		movs	r4, #0
 1468 000a 40F20001 		movw	r1, #:lower16:.LANCHOR2
 1469 000e 2346     		mov	r3, r4
 1470 0010 C0F20001 		movt	r1, #:upper16:.LANCHOR2
 1471 0014 1022     		movs	r2, #16
 1472 0016 C0F20000 		movt	r0, #:upper16:.LANCHOR1
 1473 001a 0094     		str	r4, [sp]
 1474 001c FFF7FEFF 		bl	chIQInit
 1475              	.LVL164:
 1476              		.loc 1 462 0
 1477 0020 FFF7FEFF 		bl	test_wait_tick
 1478              	.LVL165:
 1479              		.loc 1 463 0
 1480 0024 4FF47A70 		mov	r0, #1000
 1481 0028 FFF7FEFF 		bl	test_start_timer
 1482              	.LVL166:
ARM GAS  /tmp/cceUfChG.s 			page 27


 1483 002c 40F20005 		movw	r5, #:lower16:test_timer_done
 1484 0030 C0F20005 		movt	r5, #:upper16:test_timer_done
 1485              	.LVL167:
 1486              	.L42:
 1487              	.LBB8:
 1488              		.loc 1 465 0 discriminator 1
 1489 0034 2023     		movs	r3, #32
 1490              	@ 465 "/opt/ChibiOS_2.6.6/test/testbmk.c" 1
 1491 0036 83F31188 		msr     BASEPRI, r3
 1492              	@ 0 "" 2
 1493              		.thumb
 1494              	.LBE8:
 1495              		.loc 1 466 0 discriminator 1
 1496 003a 40F20000 		movw	r0, #:lower16:.LANCHOR1
 1497 003e 0021     		movs	r1, #0
 1498 0040 C0F20000 		movt	r0, #:upper16:.LANCHOR1
 1499 0044 FFF7FEFF 		bl	chIQPutI
 1500              	.LVL168:
 1501              		.loc 1 467 0 discriminator 1
 1502 0048 40F20000 		movw	r0, #:lower16:.LANCHOR1
 1503 004c 0121     		movs	r1, #1
 1504 004e C0F20000 		movt	r0, #:upper16:.LANCHOR1
 1505 0052 FFF7FEFF 		bl	chIQPutI
 1506              	.LVL169:
 1507              		.loc 1 468 0 discriminator 1
 1508 0056 40F20000 		movw	r0, #:lower16:.LANCHOR1
 1509 005a 0221     		movs	r1, #2
 1510 005c C0F20000 		movt	r0, #:upper16:.LANCHOR1
 1511 0060 FFF7FEFF 		bl	chIQPutI
 1512              	.LVL170:
 1513              		.loc 1 469 0 discriminator 1
 1514 0064 40F20000 		movw	r0, #:lower16:.LANCHOR1
 1515 0068 0321     		movs	r1, #3
 1516 006a C0F20000 		movt	r0, #:upper16:.LANCHOR1
 1517 006e FFF7FEFF 		bl	chIQPutI
 1518              	.LVL171:
 1519              	.LBB9:
 1520              		.loc 1 470 0 discriminator 1
 1521 0072 0023     		movs	r3, #0
 1522              	@ 470 "/opt/ChibiOS_2.6.6/test/testbmk.c" 1
 1523 0074 83F31188 		msr     BASEPRI, r3
 1524              	@ 0 "" 2
 1525              		.thumb
 1526              	.LBE9:
 1527              		.loc 1 471 0 discriminator 1
 1528 0078 40F20000 		movw	r0, #:lower16:.LANCHOR1
 1529 007c 4FF0FF31 		mov	r1, #-1
 1530 0080 C0F20000 		movt	r0, #:upper16:.LANCHOR1
 1531 0084 FFF7FEFF 		bl	chIQGetTimeout
 1532              	.LVL172:
 1533              		.loc 1 472 0 discriminator 1
 1534 0088 40F20000 		movw	r0, #:lower16:.LANCHOR1
 1535 008c 4FF0FF31 		mov	r1, #-1
 1536 0090 C0F20000 		movt	r0, #:upper16:.LANCHOR1
 1537 0094 FFF7FEFF 		bl	chIQGetTimeout
 1538              	.LVL173:
 1539              		.loc 1 473 0 discriminator 1
ARM GAS  /tmp/cceUfChG.s 			page 28


 1540 0098 40F20000 		movw	r0, #:lower16:.LANCHOR1
 1541 009c 4FF0FF31 		mov	r1, #-1
 1542 00a0 C0F20000 		movt	r0, #:upper16:.LANCHOR1
 1543 00a4 FFF7FEFF 		bl	chIQGetTimeout
 1544              	.LVL174:
 1545              		.loc 1 474 0 discriminator 1
 1546 00a8 40F20000 		movw	r0, #:lower16:.LANCHOR1
 1547 00ac C0F20000 		movt	r0, #:upper16:.LANCHOR1
 1548 00b0 4FF0FF31 		mov	r1, #-1
 1549 00b4 FFF7FEFF 		bl	chIQGetTimeout
 1550              	.LVL175:
 1551              		.loc 1 479 0 discriminator 1
 1552 00b8 2B78     		ldrb	r3, [r5]	@ zero_extendqisi2
 1553              		.loc 1 475 0 discriminator 1
 1554 00ba 0134     		adds	r4, r4, #1
 1555              	.LVL176:
 1556              		.loc 1 479 0 discriminator 1
 1557 00bc 002B     		cmp	r3, #0
 1558 00be B9D0     		beq	.L42
 1559              		.loc 1 480 0
 1560 00c0 40F20000 		movw	r0, #:lower16:.LC11
 1561 00c4 C0F20000 		movt	r0, #:upper16:.LC11
 1562 00c8 FFF7FEFF 		bl	test_print
 1563              	.LVL177:
 1564              		.loc 1 481 0
 1565 00cc A000     		lsls	r0, r4, #2
 1566 00ce FFF7FEFF 		bl	test_printn
 1567              	.LVL178:
 1568              		.loc 1 482 0
 1569 00d2 40F20000 		movw	r0, #:lower16:.LC16
 1570 00d6 C0F20000 		movt	r0, #:upper16:.LC16
 1571              		.loc 1 483 0
 1572 00da 03B0     		add	sp, sp, #12
 1573              		@ sp needed
 1574 00dc BDE83040 		pop	{r4, r5, lr}
 1575              	.LVL179:
 1576              		.loc 1 482 0
 1577 00e0 FFF7FEBF 		b	test_println
 1578              	.LVL180:
 1579              		.cfi_endproc
 1580              	.LFE22:
 1581              		.size	bmk9_execute, .-bmk9_execute
 1582              		.section	.text.bmk10_execute,"ax",%progbits
 1583              		.align	2
 1584              		.thumb
 1585              		.thumb_func
 1586              		.type	bmk10_execute, %function
 1587              	bmk10_execute:
 1588              	.LFB24:
 1589              		.loc 1 504 0
 1590              		.cfi_startproc
 1591              		@ args = 0, pretend = 0, frame = 0
 1592              		@ frame_needed = 0, uses_anonymous_args = 0
 1593              	.LVL181:
 1594 0000 38B5     		push	{r3, r4, r5, lr}
 1595              		.cfi_def_cfa_offset 16
 1596              		.cfi_offset 3, -16
ARM GAS  /tmp/cceUfChG.s 			page 29


 1597              		.cfi_offset 4, -12
 1598              		.cfi_offset 5, -8
 1599              		.cfi_offset 14, -4
 1600              		.loc 1 508 0
 1601 0002 FFF7FEFF 		bl	test_wait_tick
 1602              	.LVL182:
 1603              		.loc 1 509 0
 1604 0006 4FF47A70 		mov	r0, #1000
 1605 000a FFF7FEFF 		bl	test_start_timer
 1606              	.LVL183:
 1607 000e 40F20005 		movw	r5, #:lower16:test_timer_done
 1608 0012 C0F20005 		movt	r5, #:upper16:test_timer_done
 1609              		.loc 1 506 0
 1610 0016 0024     		movs	r4, #0
 1611              	.LVL184:
 1612              	.L45:
 1613              	.LBB10:
 1614              		.loc 1 511 0 discriminator 1
 1615 0018 2023     		movs	r3, #32
 1616              	@ 511 "/opt/ChibiOS_2.6.6/test/testbmk.c" 1
 1617 001a 83F31188 		msr     BASEPRI, r3
 1618              	@ 0 "" 2
 1619              		.thumb
 1620              	.LBE10:
 1621              		.loc 1 512 0 discriminator 1
 1622 001e 40F20000 		movw	r0, #:lower16:.LANCHOR3
 1623 0022 40F20002 		movw	r2, #:lower16:tmo
 1624 0026 C0F20000 		movt	r0, #:upper16:.LANCHOR3
 1625 002a C0F20002 		movt	r2, #:upper16:tmo
 1626 002e 0121     		movs	r1, #1
 1627 0030 0023     		movs	r3, #0
 1628 0032 FFF7FEFF 		bl	chVTSetI
 1629              	.LVL185:
 1630              		.loc 1 513 0 discriminator 1
 1631 0036 40F20000 		movw	r0, #:lower16:.LANCHOR4
 1632 003a 40F20002 		movw	r2, #:lower16:tmo
 1633 003e C0F20002 		movt	r2, #:upper16:tmo
 1634 0042 42F21071 		movw	r1, #10000
 1635 0046 0023     		movs	r3, #0
 1636 0048 C0F20000 		movt	r0, #:upper16:.LANCHOR4
 1637 004c FFF7FEFF 		bl	chVTSetI
 1638              	.LVL186:
 1639              		.loc 1 514 0 discriminator 1
 1640 0050 40F20000 		movw	r0, #:lower16:.LANCHOR3
 1641 0054 C0F20000 		movt	r0, #:upper16:.LANCHOR3
 1642 0058 FFF7FEFF 		bl	chVTResetI
 1643              	.LVL187:
 1644              		.loc 1 515 0 discriminator 1
 1645 005c 40F20000 		movw	r0, #:lower16:.LANCHOR4
 1646 0060 C0F20000 		movt	r0, #:upper16:.LANCHOR4
 1647 0064 FFF7FEFF 		bl	chVTResetI
 1648              	.LVL188:
 1649              	.LBB11:
 1650              		.loc 1 516 0 discriminator 1
 1651 0068 0023     		movs	r3, #0
 1652              	@ 516 "/opt/ChibiOS_2.6.6/test/testbmk.c" 1
 1653 006a 83F31188 		msr     BASEPRI, r3
ARM GAS  /tmp/cceUfChG.s 			page 30


 1654              	@ 0 "" 2
 1655              		.thumb
 1656              	.LBE11:
 1657              		.loc 1 521 0 discriminator 1
 1658 006e 2B78     		ldrb	r3, [r5]	@ zero_extendqisi2
 1659              		.loc 1 517 0 discriminator 1
 1660 0070 0134     		adds	r4, r4, #1
 1661              	.LVL189:
 1662              		.loc 1 521 0 discriminator 1
 1663 0072 002B     		cmp	r3, #0
 1664 0074 D0D0     		beq	.L45
 1665              		.loc 1 522 0
 1666 0076 40F20000 		movw	r0, #:lower16:.LC11
 1667 007a C0F20000 		movt	r0, #:upper16:.LC11
 1668 007e FFF7FEFF 		bl	test_print
 1669              	.LVL190:
 1670              		.loc 1 523 0
 1671 0082 6000     		lsls	r0, r4, #1
 1672 0084 FFF7FEFF 		bl	test_printn
 1673              	.LVL191:
 1674              		.loc 1 525 0
 1675 0088 BDE83840 		pop	{r3, r4, r5, lr}
 1676              	.LVL192:
 1677              		.loc 1 524 0
 1678 008c 40F20000 		movw	r0, #:lower16:.LC17
 1679 0090 C0F20000 		movt	r0, #:upper16:.LC17
 1680 0094 FFF7FEBF 		b	test_println
 1681              	.LVL193:
 1682              		.cfi_endproc
 1683              	.LFE24:
 1684              		.size	bmk10_execute, .-bmk10_execute
 1685              		.section	.text.bmk11_execute,"ax",%progbits
 1686              		.align	2
 1687              		.thumb
 1688              		.thumb_func
 1689              		.type	bmk11_execute, %function
 1690              	bmk11_execute:
 1691              	.LFB26:
 1692              		.loc 1 550 0
 1693              		.cfi_startproc
 1694              		@ args = 0, pretend = 0, frame = 0
 1695              		@ frame_needed = 0, uses_anonymous_args = 0
 1696              	.LVL194:
 1697 0000 38B5     		push	{r3, r4, r5, lr}
 1698              		.cfi_def_cfa_offset 16
 1699              		.cfi_offset 3, -16
 1700              		.cfi_offset 4, -12
 1701              		.cfi_offset 5, -8
 1702              		.cfi_offset 14, -4
 1703              		.loc 1 553 0
 1704 0002 FFF7FEFF 		bl	test_wait_tick
 1705              	.LVL195:
 1706              		.loc 1 554 0
 1707 0006 4FF47A70 		mov	r0, #1000
 1708 000a FFF7FEFF 		bl	test_start_timer
 1709              	.LVL196:
 1710 000e 40F20005 		movw	r5, #:lower16:test_timer_done
ARM GAS  /tmp/cceUfChG.s 			page 31


 1711 0012 C0F20005 		movt	r5, #:upper16:test_timer_done
 1712              		.loc 1 551 0
 1713 0016 0024     		movs	r4, #0
 1714              	.LVL197:
 1715              	.L48:
 1716              		.loc 1 556 0 discriminator 1
 1717 0018 40F20000 		movw	r0, #:lower16:.LANCHOR0
 1718 001c C0F20000 		movt	r0, #:upper16:.LANCHOR0
 1719 0020 FFF7FEFF 		bl	chSemWait
 1720              	.LVL198:
 1721              		.loc 1 557 0 discriminator 1
 1722 0024 40F20000 		movw	r0, #:lower16:.LANCHOR0
 1723 0028 C0F20000 		movt	r0, #:upper16:.LANCHOR0
 1724 002c FFF7FEFF 		bl	chSemSignal
 1725              	.LVL199:
 1726              		.loc 1 558 0 discriminator 1
 1727 0030 40F20000 		movw	r0, #:lower16:.LANCHOR0
 1728 0034 C0F20000 		movt	r0, #:upper16:.LANCHOR0
 1729 0038 FFF7FEFF 		bl	chSemWait
 1730              	.LVL200:
 1731              		.loc 1 559 0 discriminator 1
 1732 003c 40F20000 		movw	r0, #:lower16:.LANCHOR0
 1733 0040 C0F20000 		movt	r0, #:upper16:.LANCHOR0
 1734 0044 FFF7FEFF 		bl	chSemSignal
 1735              	.LVL201:
 1736              		.loc 1 560 0 discriminator 1
 1737 0048 40F20000 		movw	r0, #:lower16:.LANCHOR0
 1738 004c C0F20000 		movt	r0, #:upper16:.LANCHOR0
 1739 0050 FFF7FEFF 		bl	chSemWait
 1740              	.LVL202:
 1741              		.loc 1 561 0 discriminator 1
 1742 0054 40F20000 		movw	r0, #:lower16:.LANCHOR0
 1743 0058 C0F20000 		movt	r0, #:upper16:.LANCHOR0
 1744 005c FFF7FEFF 		bl	chSemSignal
 1745              	.LVL203:
 1746              		.loc 1 562 0 discriminator 1
 1747 0060 40F20000 		movw	r0, #:lower16:.LANCHOR0
 1748 0064 C0F20000 		movt	r0, #:upper16:.LANCHOR0
 1749 0068 FFF7FEFF 		bl	chSemWait
 1750              	.LVL204:
 1751              		.loc 1 563 0 discriminator 1
 1752 006c 40F20000 		movw	r0, #:lower16:.LANCHOR0
 1753 0070 C0F20000 		movt	r0, #:upper16:.LANCHOR0
 1754 0074 FFF7FEFF 		bl	chSemSignal
 1755              	.LVL205:
 1756              		.loc 1 568 0 discriminator 1
 1757 0078 2B78     		ldrb	r3, [r5]	@ zero_extendqisi2
 1758              		.loc 1 564 0 discriminator 1
 1759 007a 0134     		adds	r4, r4, #1
 1760              	.LVL206:
 1761              		.loc 1 568 0 discriminator 1
 1762 007c 002B     		cmp	r3, #0
 1763 007e CBD0     		beq	.L48
 1764              		.loc 1 569 0
 1765 0080 40F20000 		movw	r0, #:lower16:.LC11
 1766 0084 C0F20000 		movt	r0, #:upper16:.LC11
 1767 0088 FFF7FEFF 		bl	test_print
ARM GAS  /tmp/cceUfChG.s 			page 32


 1768              	.LVL207:
 1769              		.loc 1 570 0
 1770 008c A000     		lsls	r0, r4, #2
 1771 008e FFF7FEFF 		bl	test_printn
 1772              	.LVL208:
 1773              		.loc 1 572 0
 1774 0092 BDE83840 		pop	{r3, r4, r5, lr}
 1775              	.LVL209:
 1776              		.loc 1 571 0
 1777 0096 40F20000 		movw	r0, #:lower16:.LC18
 1778 009a C0F20000 		movt	r0, #:upper16:.LC18
 1779 009e FFF7FEBF 		b	test_println
 1780              	.LVL210:
 1781              		.cfi_endproc
 1782              	.LFE26:
 1783              		.size	bmk11_execute, .-bmk11_execute
 1784 00a2 00BF     		.section	.text.bmk12_execute,"ax",%progbits
 1785              		.align	2
 1786              		.thumb
 1787              		.thumb_func
 1788              		.type	bmk12_execute, %function
 1789              	bmk12_execute:
 1790              	.LFB28:
 1791              		.loc 1 598 0
 1792              		.cfi_startproc
 1793              		@ args = 0, pretend = 0, frame = 0
 1794              		@ frame_needed = 0, uses_anonymous_args = 0
 1795              	.LVL211:
 1796 0000 38B5     		push	{r3, r4, r5, lr}
 1797              		.cfi_def_cfa_offset 16
 1798              		.cfi_offset 3, -16
 1799              		.cfi_offset 4, -12
 1800              		.cfi_offset 5, -8
 1801              		.cfi_offset 14, -4
 1802              		.loc 1 601 0
 1803 0002 FFF7FEFF 		bl	test_wait_tick
 1804              	.LVL212:
 1805              		.loc 1 602 0
 1806 0006 4FF47A70 		mov	r0, #1000
 1807 000a FFF7FEFF 		bl	test_start_timer
 1808              	.LVL213:
 1809 000e 40F20005 		movw	r5, #:lower16:test_timer_done
 1810 0012 C0F20005 		movt	r5, #:upper16:test_timer_done
 1811              		.loc 1 599 0
 1812 0016 0024     		movs	r4, #0
 1813              	.LVL214:
 1814              	.L51:
 1815              		.loc 1 604 0 discriminator 1
 1816 0018 40F20000 		movw	r0, #:lower16:.LANCHOR5
 1817 001c C0F20000 		movt	r0, #:upper16:.LANCHOR5
 1818 0020 FFF7FEFF 		bl	chMtxLock
 1819              	.LVL215:
 1820              		.loc 1 605 0 discriminator 1
 1821 0024 FFF7FEFF 		bl	chMtxUnlock
 1822              	.LVL216:
 1823              		.loc 1 606 0 discriminator 1
 1824 0028 40F20000 		movw	r0, #:lower16:.LANCHOR5
ARM GAS  /tmp/cceUfChG.s 			page 33


 1825 002c C0F20000 		movt	r0, #:upper16:.LANCHOR5
 1826 0030 FFF7FEFF 		bl	chMtxLock
 1827              	.LVL217:
 1828              		.loc 1 607 0 discriminator 1
 1829 0034 FFF7FEFF 		bl	chMtxUnlock
 1830              	.LVL218:
 1831              		.loc 1 608 0 discriminator 1
 1832 0038 40F20000 		movw	r0, #:lower16:.LANCHOR5
 1833 003c C0F20000 		movt	r0, #:upper16:.LANCHOR5
 1834 0040 FFF7FEFF 		bl	chMtxLock
 1835              	.LVL219:
 1836              		.loc 1 609 0 discriminator 1
 1837 0044 FFF7FEFF 		bl	chMtxUnlock
 1838              	.LVL220:
 1839              		.loc 1 610 0 discriminator 1
 1840 0048 40F20000 		movw	r0, #:lower16:.LANCHOR5
 1841 004c C0F20000 		movt	r0, #:upper16:.LANCHOR5
 1842 0050 FFF7FEFF 		bl	chMtxLock
 1843              	.LVL221:
 1844              		.loc 1 611 0 discriminator 1
 1845 0054 FFF7FEFF 		bl	chMtxUnlock
 1846              	.LVL222:
 1847              		.loc 1 616 0 discriminator 1
 1848 0058 2B78     		ldrb	r3, [r5]	@ zero_extendqisi2
 1849              		.loc 1 612 0 discriminator 1
 1850 005a 0134     		adds	r4, r4, #1
 1851              	.LVL223:
 1852              		.loc 1 616 0 discriminator 1
 1853 005c 002B     		cmp	r3, #0
 1854 005e DBD0     		beq	.L51
 1855              		.loc 1 617 0
 1856 0060 40F20000 		movw	r0, #:lower16:.LC11
 1857 0064 C0F20000 		movt	r0, #:upper16:.LC11
 1858 0068 FFF7FEFF 		bl	test_print
 1859              	.LVL224:
 1860              		.loc 1 618 0
 1861 006c A000     		lsls	r0, r4, #2
 1862 006e FFF7FEFF 		bl	test_printn
 1863              	.LVL225:
 1864              		.loc 1 620 0
 1865 0072 BDE83840 		pop	{r3, r4, r5, lr}
 1866              	.LVL226:
 1867              		.loc 1 619 0
 1868 0076 40F20000 		movw	r0, #:lower16:.LC19
 1869 007a C0F20000 		movt	r0, #:upper16:.LC19
 1870 007e FFF7FEBF 		b	test_println
 1871              	.LVL227:
 1872              		.cfi_endproc
 1873              	.LFE28:
 1874              		.size	bmk12_execute, .-bmk12_execute
 1875 0082 00BF     		.section	.text.bmk12_setup,"ax",%progbits
 1876              		.align	2
 1877              		.thumb
 1878              		.thumb_func
 1879              		.type	bmk12_setup, %function
 1880              	bmk12_setup:
 1881              	.LFB27:
ARM GAS  /tmp/cceUfChG.s 			page 34


 1882              		.loc 1 593 0
 1883              		.cfi_startproc
 1884              		@ args = 0, pretend = 0, frame = 0
 1885              		@ frame_needed = 0, uses_anonymous_args = 0
 1886              		@ link register save eliminated.
 1887              		.loc 1 595 0
 1888 0000 40F20000 		movw	r0, #:lower16:.LANCHOR5
 1889 0004 C0F20000 		movt	r0, #:upper16:.LANCHOR5
 1890 0008 FFF7FEBF 		b	chMtxInit
 1891              	.LVL228:
 1892              		.cfi_endproc
 1893              	.LFE27:
 1894              		.size	bmk12_setup, .-bmk12_setup
 1895              		.global	patternbmk
 1896              		.global	testbmk13
 1897              		.global	testbmk12
 1898              		.global	testbmk11
 1899              		.global	testbmk10
 1900              		.global	testbmk9
 1901              		.global	testbmk8
 1902              		.global	testbmk7
 1903              		.global	testbmk6
 1904              		.global	testbmk5
 1905              		.global	testbmk4
 1906              		.global	testbmk3
 1907              		.global	testbmk2
 1908              		.global	testbmk1
 1909              		.section	.rodata.testbmk8,"a",%progbits
 1910              		.align	2
 1911              		.type	testbmk8, %object
 1912              		.size	testbmk8, 16
 1913              	testbmk8:
 1914 0000 D0010000 		.word	.LC25
 1915 0004 00000000 		.word	0
 1916 0008 00000000 		.word	0
 1917 000c 00000000 		.word	bmk8_execute
 1918              		.section	.bss.ib.4941,"aw",%nobits
 1919              		.align	2
 1920              		.set	.LANCHOR2,. + 0
 1921              		.type	ib.4941, %object
 1922              		.size	ib.4941, 16
 1923              	ib.4941:
 1924 0000 00000000 		.space	16
 1924      00000000 
 1924      00000000 
 1924      00000000 
 1925              		.section	.bss.vt2.4955,"aw",%nobits
 1926              		.align	2
 1927              		.set	.LANCHOR4,. + 0
 1928              		.type	vt2.4955, %object
 1929              		.size	vt2.4955, 20
 1930              	vt2.4955:
 1931 0000 00000000 		.space	20
 1931      00000000 
 1931      00000000 
 1931      00000000 
 1931      00000000 
ARM GAS  /tmp/cceUfChG.s 			page 35


 1932              		.section	.rodata.testbmk2,"a",%progbits
 1933              		.align	2
 1934              		.type	testbmk2, %object
 1935              		.size	testbmk2, 16
 1936              	testbmk2:
 1937 0000 98020000 		.word	.LC31
 1938 0004 00000000 		.word	0
 1939 0008 00000000 		.word	0
 1940 000c 00000000 		.word	bmk2_execute
 1941              		.section	.rodata.testbmk10,"a",%progbits
 1942              		.align	2
 1943              		.type	testbmk10, %object
 1944              		.size	testbmk10, 16
 1945              	testbmk10:
 1946 0000 88010000 		.word	.LC23
 1947 0004 00000000 		.word	0
 1948 0008 00000000 		.word	0
 1949 000c 00000000 		.word	bmk10_execute
 1950              		.section	.bss.vt1.4954,"aw",%nobits
 1951              		.align	2
 1952              		.set	.LANCHOR3,. + 0
 1953              		.type	vt1.4954, %object
 1954              		.size	vt1.4954, 20
 1955              	vt1.4954:
 1956 0000 00000000 		.space	20
 1956      00000000 
 1956      00000000 
 1956      00000000 
 1956      00000000 
 1957              		.section	.rodata.testbmk4,"a",%progbits
 1958              		.align	2
 1959              		.type	testbmk4, %object
 1960              		.size	testbmk4, 16
 1961              	testbmk4:
 1962 0000 64020000 		.word	.LC29
 1963 0004 00000000 		.word	0
 1964 0008 00000000 		.word	0
 1965 000c 00000000 		.word	bmk4_execute
 1966              		.section	.bss.mtx1,"aw",%nobits
 1967              		.align	2
 1968              		.set	.LANCHOR5,. + 0
 1969              		.type	mtx1, %object
 1970              		.size	mtx1, 16
 1971              	mtx1:
 1972 0000 00000000 		.space	16
 1972      00000000 
 1972      00000000 
 1972      00000000 
 1973              		.section	.rodata.testbmk3,"a",%progbits
 1974              		.align	2
 1975              		.type	testbmk3, %object
 1976              		.size	testbmk3, 16
 1977              	testbmk3:
 1978 0000 80020000 		.word	.LC30
 1979 0004 00000000 		.word	0
 1980 0008 00000000 		.word	0
 1981 000c 00000000 		.word	bmk3_execute
ARM GAS  /tmp/cceUfChG.s 			page 36


 1982              		.section	.rodata.testbmk13,"a",%progbits
 1983              		.align	2
 1984              		.type	testbmk13, %object
 1985              		.size	testbmk13, 16
 1986              	testbmk13:
 1987 0000 28010000 		.word	.LC20
 1988 0004 00000000 		.word	0
 1989 0008 00000000 		.word	0
 1990 000c 00000000 		.word	bmk13_execute
 1991              		.section	.bss.iq.4942,"aw",%nobits
 1992              		.align	2
 1993              		.set	.LANCHOR1,. + 0
 1994              		.type	iq.4942, %object
 1995              		.size	iq.4942, 36
 1996              	iq.4942:
 1997 0000 00000000 		.space	36
 1997      00000000 
 1997      00000000 
 1997      00000000 
 1997      00000000 
 1998              		.section	.rodata.str1.4,"aMS",%progbits,1
 1999              		.align	2
 2000              	.LC0:
 2001 0000 2D2D2D20 		.ascii	"--- System: \000"
 2001      53797374 
 2001      656D3A20 
 2001      00
 2002 000d 000000   		.space	3
 2003              	.LC1:
 2004 0010 20627974 		.ascii	" bytes\000"
 2004      657300
 2005 0017 00       		.space	1
 2006              	.LC2:
 2007 0018 2D2D2D20 		.ascii	"--- Thread: \000"
 2007      54687265 
 2007      61643A20 
 2007      00
 2008 0025 000000   		.space	3
 2009              	.LC3:
 2010 0028 2D2D2D20 		.ascii	"--- Timer : \000"
 2010      54696D65 
 2010      72203A20 
 2010      00
 2011 0035 000000   		.space	3
 2012              	.LC4:
 2013 0038 2D2D2D20 		.ascii	"--- Semaph: \000"
 2013      53656D61 
 2013      70683A20 
 2013      00
 2014 0045 000000   		.space	3
 2015              	.LC5:
 2016 0048 2D2D2D20 		.ascii	"--- EventS: \000"
 2016      4576656E 
 2016      74533A20 
 2016      00
 2017 0055 000000   		.space	3
 2018              	.LC6:
ARM GAS  /tmp/cceUfChG.s 			page 37


 2019 0058 2D2D2D20 		.ascii	"--- EventL: \000"
 2019      4576656E 
 2019      744C3A20 
 2019      00
 2020 0065 000000   		.space	3
 2021              	.LC7:
 2022 0068 2D2D2D20 		.ascii	"--- Mutex : \000"
 2022      4D757465 
 2022      78203A20 
 2022      00
 2023 0075 000000   		.space	3
 2024              	.LC8:
 2025 0078 2D2D2D20 		.ascii	"--- CondV.: \000"
 2025      436F6E64 
 2025      562E3A20 
 2025      00
 2026 0085 000000   		.space	3
 2027              	.LC9:
 2028 0088 2D2D2D20 		.ascii	"--- Queue : \000"
 2028      51756575 
 2028      65203A20 
 2028      00
 2029 0095 000000   		.space	3
 2030              	.LC10:
 2031 0098 2D2D2D20 		.ascii	"--- MailB.: \000"
 2031      4D61696C 
 2031      422E3A20 
 2031      00
 2032 00a5 000000   		.space	3
 2033              	.LC11:
 2034 00a8 2D2D2D20 		.ascii	"--- Score : \000"
 2034      53636F72 
 2034      65203A20 
 2034      00
 2035 00b5 000000   		.space	3
 2036              	.LC12:
 2037 00b8 20746872 		.ascii	" threads/S\000"
 2037      65616473 
 2037      2F5300
 2038 00c3 00       		.space	1
 2039              	.LC13:
 2040 00c4 206D7367 		.ascii	" msgs/S, \000"
 2040      732F532C 
 2040      2000
 2041 00ce 0000     		.space	2
 2042              	.LC14:
 2043 00d0 20637478 		.ascii	" ctxswc/S\000"
 2043      7377632F 
 2043      5300
 2044 00da 0000     		.space	2
 2045              	.LC15:
 2046 00dc 20726573 		.ascii	" reschedules/S, \000"
 2046      63686564 
 2046      756C6573 
 2046      2F532C20 
 2046      00
 2047 00ed 000000   		.space	3
ARM GAS  /tmp/cceUfChG.s 			page 38


 2048              	.LC16:
 2049 00f0 20627974 		.ascii	" bytes/S\000"
 2049      65732F53 
 2049      00
 2050 00f9 000000   		.space	3
 2051              	.LC17:
 2052 00fc 2074696D 		.ascii	" timers/S\000"
 2052      6572732F 
 2052      5300
 2053 0106 0000     		.space	2
 2054              	.LC18:
 2055 0108 20776169 		.ascii	" wait+signal/S\000"
 2055      742B7369 
 2055      676E616C 
 2055      2F5300
 2056 0117 00       		.space	1
 2057              	.LC19:
 2058 0118 206C6F63 		.ascii	" lock+unlock/S\000"
 2058      6B2B756E 
 2058      6C6F636B 
 2058      2F5300
 2059 0127 00       		.space	1
 2060              	.LC20:
 2061 0128 42656E63 		.ascii	"Benchmark, RAM footprint\000"
 2061      686D6172 
 2061      6B2C2052 
 2061      414D2066 
 2061      6F6F7470 
 2062 0141 000000   		.space	3
 2063              	.LC21:
 2064 0144 42656E63 		.ascii	"Benchmark, mutexes lock/unlock\000"
 2064      686D6172 
 2064      6B2C206D 
 2064      75746578 
 2064      6573206C 
 2065 0163 00       		.space	1
 2066              	.LC22:
 2067 0164 42656E63 		.ascii	"Benchmark, semaphores wait/signal\000"
 2067      686D6172 
 2067      6B2C2073 
 2067      656D6170 
 2067      686F7265 
 2068 0186 0000     		.space	2
 2069              	.LC23:
 2070 0188 42656E63 		.ascii	"Benchmark, virtual timers set/reset\000"
 2070      686D6172 
 2070      6B2C2076 
 2070      69727475 
 2070      616C2074 
 2071              	.LC24:
 2072 01ac 42656E63 		.ascii	"Benchmark, I/O Queues throughput\000"
 2072      686D6172 
 2072      6B2C2049 
 2072      2F4F2051 
 2072      75657565 
 2073 01cd 000000   		.space	3
 2074              	.LC25:
ARM GAS  /tmp/cceUfChG.s 			page 39


 2075 01d0 42656E63 		.ascii	"Benchmark, round robin context switching\000"
 2075      686D6172 
 2075      6B2C2072 
 2075      6F756E64 
 2075      20726F62 
 2076 01f9 000000   		.space	3
 2077              	.LC26:
 2078 01fc 42656E63 		.ascii	"Benchmark, mass reschedule, 5 threads\000"
 2078      686D6172 
 2078      6B2C206D 
 2078      61737320 
 2078      72657363 
 2079 0222 0000     		.space	2
 2080              	.LC27:
 2081 0224 42656E63 		.ascii	"Benchmark, threads, create only\000"
 2081      686D6172 
 2081      6B2C2074 
 2081      68726561 
 2081      64732C20 
 2082              	.LC28:
 2083 0244 42656E63 		.ascii	"Benchmark, threads, full cycle\000"
 2083      686D6172 
 2083      6B2C2074 
 2083      68726561 
 2083      64732C20 
 2084 0263 00       		.space	1
 2085              	.LC29:
 2086 0264 42656E63 		.ascii	"Benchmark, context switch\000"
 2086      686D6172 
 2086      6B2C2063 
 2086      6F6E7465 
 2086      78742073 
 2087 027e 0000     		.space	2
 2088              	.LC30:
 2089 0280 42656E63 		.ascii	"Benchmark, messages #3\000"
 2089      686D6172 
 2089      6B2C206D 
 2089      65737361 
 2089      67657320 
 2090 0297 00       		.space	1
 2091              	.LC31:
 2092 0298 42656E63 		.ascii	"Benchmark, messages #2\000"
 2092      686D6172 
 2092      6B2C206D 
 2092      65737361 
 2092      67657320 
 2093 02af 00       		.space	1
 2094              	.LC32:
 2095 02b0 42656E63 		.ascii	"Benchmark, messages #1\000"
 2095      686D6172 
 2095      6B2C206D 
 2095      65737361 
 2095      67657320 
 2096 02c7 00       		.section	.rodata.testbmk9,"a",%progbits
 2097              		.align	2
 2098              		.type	testbmk9, %object
 2099              		.size	testbmk9, 16
ARM GAS  /tmp/cceUfChG.s 			page 40


 2100              	testbmk9:
 2101 0000 AC010000 		.word	.LC24
 2102 0004 00000000 		.word	0
 2103 0008 00000000 		.word	0
 2104 000c 00000000 		.word	bmk9_execute
 2105              		.section	.bss.sem1,"aw",%nobits
 2106              		.align	2
 2107              		.set	.LANCHOR0,. + 0
 2108              		.type	sem1, %object
 2109              		.size	sem1, 12
 2110              	sem1:
 2111 0000 00000000 		.space	12
 2111      00000000 
 2111      00000000 
 2112              		.section	.rodata.testbmk1,"a",%progbits
 2113              		.align	2
 2114              		.type	testbmk1, %object
 2115              		.size	testbmk1, 16
 2116              	testbmk1:
 2117 0000 B0020000 		.word	.LC32
 2118 0004 00000000 		.word	0
 2119 0008 00000000 		.word	0
 2120 000c 00000000 		.word	bmk1_execute
 2121              		.section	.rodata.testbmk11,"a",%progbits
 2122              		.align	2
 2123              		.type	testbmk11, %object
 2124              		.size	testbmk11, 16
 2125              	testbmk11:
 2126 0000 64010000 		.word	.LC22
 2127 0004 00000000 		.word	bmk11_setup
 2128 0008 00000000 		.word	0
 2129 000c 00000000 		.word	bmk11_execute
 2130              		.section	.rodata.testbmk12,"a",%progbits
 2131              		.align	2
 2132              		.type	testbmk12, %object
 2133              		.size	testbmk12, 16
 2134              	testbmk12:
 2135 0000 44010000 		.word	.LC21
 2136 0004 00000000 		.word	bmk12_setup
 2137 0008 00000000 		.word	0
 2138 000c 00000000 		.word	bmk12_execute
 2139              		.section	.rodata.patternbmk,"a",%progbits
 2140              		.align	2
 2141              		.type	patternbmk, %object
 2142              		.size	patternbmk, 56
 2143              	patternbmk:
 2144 0000 00000000 		.word	testbmk1
 2145 0004 00000000 		.word	testbmk2
 2146 0008 00000000 		.word	testbmk3
 2147 000c 00000000 		.word	testbmk4
 2148 0010 00000000 		.word	testbmk5
 2149 0014 00000000 		.word	testbmk6
 2150 0018 00000000 		.word	testbmk7
 2151 001c 00000000 		.word	testbmk8
 2152 0020 00000000 		.word	testbmk9
 2153 0024 00000000 		.word	testbmk10
 2154 0028 00000000 		.word	testbmk11
ARM GAS  /tmp/cceUfChG.s 			page 41


 2155 002c 00000000 		.word	testbmk12
 2156 0030 00000000 		.word	testbmk13
 2157 0034 00000000 		.word	0
 2158              		.section	.rodata.testbmk5,"a",%progbits
 2159              		.align	2
 2160              		.type	testbmk5, %object
 2161              		.size	testbmk5, 16
 2162              	testbmk5:
 2163 0000 44020000 		.word	.LC28
 2164 0004 00000000 		.word	0
 2165 0008 00000000 		.word	0
 2166 000c 00000000 		.word	bmk5_execute
 2167              		.section	.rodata.testbmk6,"a",%progbits
 2168              		.align	2
 2169              		.type	testbmk6, %object
 2170              		.size	testbmk6, 16
 2171              	testbmk6:
 2172 0000 24020000 		.word	.LC27
 2173 0004 00000000 		.word	0
 2174 0008 00000000 		.word	0
 2175 000c 00000000 		.word	bmk6_execute
 2176              		.section	.rodata.testbmk7,"a",%progbits
 2177              		.align	2
 2178              		.type	testbmk7, %object
 2179              		.size	testbmk7, 16
 2180              	testbmk7:
 2181 0000 FC010000 		.word	.LC26
 2182 0004 00000000 		.word	bmk7_setup
 2183 0008 00000000 		.word	0
 2184 000c 00000000 		.word	bmk7_execute
 2185              		.text
 2186              	.Letext0:
 2187              		.file 2 "/usr/lib/gcc/arm-none-eabi/4.8.2/include/stddef.h"
 2188              		.file 3 "/usr/include/newlib/machine/_default_types.h"
 2189              		.file 4 "/usr/include/newlib/stdint.h"
 2190              		.file 5 "/opt/ChibiOS_2.6.6/os/ports/GCC/ARMCMx/chtypes.h"
 2191              		.file 6 "/opt/ChibiOS_2.6.6/os/kernel/include/chlists.h"
 2192              		.file 7 "/opt/ChibiOS_2.6.6/os/kernel/include/chthreads.h"
 2193              		.file 8 "/opt/ChibiOS_2.6.6/os/ports/GCC/ARMCMx/chcore_v7m.h"
 2194              		.file 9 "/opt/ChibiOS_2.6.6/os/kernel/include/chvt.h"
 2195              		.file 10 "/opt/ChibiOS_2.6.6/os/kernel/include/chschd.h"
 2196              		.file 11 "/opt/ChibiOS_2.6.6/os/kernel/include/chsem.h"
 2197              		.file 12 "/opt/ChibiOS_2.6.6/os/kernel/include/chmtx.h"
 2198              		.file 13 "/opt/ChibiOS_2.6.6/os/kernel/include/chqueues.h"
 2199              		.file 14 "/opt/ChibiOS_2.6.6/test/test.h"
 2200              		.file 15 "/opt/ChibiOS_2.6.6/os/kernel/include/chmsg.h"