ARM GAS  /tmp/ccPjLiMW.s 			page 1


   1              		.syntax unified
   2              		.cpu cortex-m3
   3              		.fpu softvfp
   4              		.eabi_attribute 20, 1
   5              		.eabi_attribute 21, 1
   6              		.eabi_attribute 23, 3
   7              		.eabi_attribute 24, 1
   8              		.eabi_attribute 25, 1
   9              		.eabi_attribute 26, 1
  10              		.eabi_attribute 30, 2
  11              		.eabi_attribute 34, 1
  12              		.eabi_attribute 18, 4
  13              		.thumb
  14              		.file	"testmtx.c"
  15              		.text
  16              	.Ltext0:
  17              		.cfi_sections	.debug_frame
  18              		.section	.text.mtx1_execute,"ax",%progbits
  19              		.align	2
  20              		.thumb
  21              		.thumb_func
  22              		.type	mtx1_execute, %function
  23              	mtx1_execute:
  24              	.LFB9:
  25              		.file 1 "/opt/ChibiOS_2.6.6/test/testmtx.c"
  26              		.loc 1 97 0
  27              		.cfi_startproc
  28              		@ args = 0, pretend = 0, frame = 8
  29              		@ frame_needed = 0, uses_anonymous_args = 0
  30 0000 F0B5     		push	{r4, r5, r6, r7, lr}
  31              		.cfi_def_cfa_offset 20
  32              		.cfi_offset 4, -20
  33              		.cfi_offset 5, -16
  34              		.cfi_offset 6, -12
  35              		.cfi_offset 7, -8
  36              		.cfi_offset 14, -4
  37              		.loc 1 99 0
  38 0002 40F20007 		movw	r7, #:lower16:rlist
  39 0006 C0F20007 		movt	r7, #:upper16:rlist
  40 000a BB69     		ldr	r3, [r7, #24]
  41              		.loc 1 100 0
  42 000c 40F20000 		movw	r0, #:lower16:.LANCHOR0
  43              		.loc 1 97 0
  44 0010 85B0     		sub	sp, sp, #20
  45              		.cfi_def_cfa_offset 40
  46              		.loc 1 100 0
  47 0012 C0F20000 		movt	r0, #:upper16:.LANCHOR0
  48              		.loc 1 99 0
  49 0016 9E68     		ldr	r6, [r3, #8]
  50              	.LVL0:
  51              		.loc 1 101 0
  52 0018 40F20005 		movw	r5, #:lower16:wa
  53              		.loc 1 100 0
  54 001c FFF7FEFF 		bl	chMtxLock
  55              	.LVL1:
  56              		.loc 1 101 0
  57 0020 40F20001 		movw	r1, #:lower16:.LC0
ARM GAS  /tmp/ccPjLiMW.s 			page 2


  58 0024 C0F20005 		movt	r5, #:upper16:wa
  59 0028 C0F20001 		movt	r1, #:upper16:.LC0
  60 002c 40F20003 		movw	r3, #:lower16:thread1
  61 0030 2868     		ldr	r0, [r5]
  62 0032 721C     		adds	r2, r6, #1
  63 0034 0091     		str	r1, [sp]
  64 0036 C0F20003 		movt	r3, #:upper16:thread1
  65 003a 4FF4A871 		mov	r1, #336
  66 003e FFF7FEFF 		bl	chThdCreateStatic
  67              	.LVL2:
  68              		.loc 1 102 0
  69 0042 6B68     		ldr	r3, [r5, #4]
  70              		.loc 1 101 0
  71 0044 40F20004 		movw	r4, #:lower16:threads
  72              		.loc 1 102 0
  73 0048 40F20001 		movw	r1, #:lower16:.LC1
  74              		.loc 1 101 0
  75 004c C0F20004 		movt	r4, #:upper16:threads
  76              		.loc 1 102 0
  77 0050 0393     		str	r3, [sp, #12]
  78 0052 C0F20001 		movt	r1, #:upper16:.LC1
  79 0056 40F20003 		movw	r3, #:lower16:thread1
  80              		.loc 1 101 0
  81 005a 2060     		str	r0, [r4]
  82              		.loc 1 102 0
  83 005c B21C     		adds	r2, r6, #2
  84 005e 0091     		str	r1, [sp]
  85 0060 C0F20003 		movt	r3, #:upper16:thread1
  86 0064 4FF4A871 		mov	r1, #336
  87 0068 0398     		ldr	r0, [sp, #12]
  88 006a FFF7FEFF 		bl	chThdCreateStatic
  89              	.LVL3:
  90              		.loc 1 103 0
  91 006e AB68     		ldr	r3, [r5, #8]
  92 0070 40F20001 		movw	r1, #:lower16:.LC2
  93 0074 0393     		str	r3, [sp, #12]
  94 0076 C0F20001 		movt	r1, #:upper16:.LC2
  95 007a 40F20003 		movw	r3, #:lower16:thread1
  96              		.loc 1 102 0
  97 007e 6060     		str	r0, [r4, #4]
  98              		.loc 1 103 0
  99 0080 F21C     		adds	r2, r6, #3
 100 0082 0091     		str	r1, [sp]
 101 0084 C0F20003 		movt	r3, #:upper16:thread1
 102 0088 4FF4A871 		mov	r1, #336
 103 008c 0398     		ldr	r0, [sp, #12]
 104 008e FFF7FEFF 		bl	chThdCreateStatic
 105              	.LVL4:
 106              		.loc 1 104 0
 107 0092 EB68     		ldr	r3, [r5, #12]
 108 0094 40F20001 		movw	r1, #:lower16:.LC3
 109 0098 0393     		str	r3, [sp, #12]
 110 009a C0F20001 		movt	r1, #:upper16:.LC3
 111 009e 40F20003 		movw	r3, #:lower16:thread1
 112              		.loc 1 103 0
 113 00a2 A060     		str	r0, [r4, #8]
 114              		.loc 1 104 0
ARM GAS  /tmp/ccPjLiMW.s 			page 3


 115 00a4 321D     		adds	r2, r6, #4
 116 00a6 0091     		str	r1, [sp]
 117 00a8 C0F20003 		movt	r3, #:upper16:thread1
 118 00ac 4FF4A871 		mov	r1, #336
 119 00b0 0398     		ldr	r0, [sp, #12]
 120 00b2 FFF7FEFF 		bl	chThdCreateStatic
 121              	.LVL5:
 122              		.loc 1 105 0
 123 00b6 2D69     		ldr	r5, [r5, #16]
 124 00b8 40F20001 		movw	r1, #:lower16:.LC4
 125 00bc C0F20001 		movt	r1, #:upper16:.LC4
 126 00c0 40F20003 		movw	r3, #:lower16:thread1
 127 00c4 C0F20003 		movt	r3, #:upper16:thread1
 128 00c8 721D     		adds	r2, r6, #5
 129              		.loc 1 104 0
 130 00ca E060     		str	r0, [r4, #12]
 131              		.loc 1 105 0
 132 00cc 0091     		str	r1, [sp]
 133 00ce 2846     		mov	r0, r5
 134 00d0 4FF4A871 		mov	r1, #336
 135 00d4 FFF7FEFF 		bl	chThdCreateStatic
 136              	.LVL6:
 137 00d8 2061     		str	r0, [r4, #16]
 138              		.loc 1 106 0
 139 00da FFF7FEFF 		bl	chMtxUnlock
 140              	.LVL7:
 141              		.loc 1 107 0
 142 00de FFF7FEFF 		bl	test_wait_threads
 143              	.LVL8:
 144              		.loc 1 108 0
 145 00e2 BB69     		ldr	r3, [r7, #24]
 146 00e4 0120     		movs	r0, #1
 147 00e6 9968     		ldr	r1, [r3, #8]
 148 00e8 8B1B     		subs	r3, r1, r6
 149 00ea 5942     		rsbs	r1, r3, #0
 150 00ec 5941     		adcs	r1, r1, r3
 151 00ee FFF7FEFF 		bl	_test_assert
 152              	.LVL9:
 153 00f2 08B1     		cbz	r0, .L4
 154              		.loc 1 110 0
 155 00f4 05B0     		add	sp, sp, #20
 156              		@ sp needed
 157 00f6 F0BD     		pop	{r4, r5, r6, r7, pc}
 158              	.LVL10:
 159              	.L4:
 160              		.loc 1 109 0
 161 00f8 40F20001 		movw	r1, #:lower16:.LC5
 162 00fc C0F20001 		movt	r1, #:upper16:.LC5
 163 0100 0220     		movs	r0, #2
 164              		.loc 1 110 0
 165 0102 05B0     		add	sp, sp, #20
 166              		@ sp needed
 167 0104 BDE8F040 		pop	{r4, r5, r6, r7, lr}
 168              	.LVL11:
 169              		.loc 1 109 0
 170 0108 FFF7FEBF 		b	_test_assert_sequence
 171              	.LVL12:
ARM GAS  /tmp/ccPjLiMW.s 			page 4


 172              		.cfi_endproc
 173              	.LFE9:
 174              		.size	mtx1_execute, .-mtx1_execute
 175              		.section	.text.thread1,"ax",%progbits
 176              		.align	2
 177              		.thumb
 178              		.thumb_func
 179              		.type	thread1, %function
 180              	thread1:
 181              	.LFB8:
 182              		.loc 1 89 0
 183              		.cfi_startproc
 184              		@ args = 0, pretend = 0, frame = 0
 185              		@ frame_needed = 0, uses_anonymous_args = 0
 186              	.LVL13:
 187 0000 10B5     		push	{r4, lr}
 188              		.cfi_def_cfa_offset 8
 189              		.cfi_offset 4, -8
 190              		.cfi_offset 14, -4
 191              		.loc 1 89 0
 192 0002 0446     		mov	r4, r0
 193              		.loc 1 91 0
 194 0004 40F20000 		movw	r0, #:lower16:.LANCHOR0
 195              	.LVL14:
 196 0008 C0F20000 		movt	r0, #:upper16:.LANCHOR0
 197 000c FFF7FEFF 		bl	chMtxLock
 198              	.LVL15:
 199              		.loc 1 92 0
 200 0010 2078     		ldrb	r0, [r4]	@ zero_extendqisi2
 201 0012 FFF7FEFF 		bl	test_emit_token
 202              	.LVL16:
 203              		.loc 1 93 0
 204 0016 FFF7FEFF 		bl	chMtxUnlock
 205              	.LVL17:
 206              		.loc 1 95 0
 207 001a 0020     		movs	r0, #0
 208 001c 10BD     		pop	{r4, pc}
 209              		.cfi_endproc
 210              	.LFE8:
 211              		.size	thread1, .-thread1
 212 001e 00BF     		.section	.text.thread12,"ax",%progbits
 213              		.align	2
 214              		.thumb
 215              		.thumb_func
 216              		.type	thread12, %function
 217              	thread12:
 218              	.LFB35:
 219              		.loc 1 588 0
 220              		.cfi_startproc
 221              		@ args = 0, pretend = 0, frame = 0
 222              		@ frame_needed = 0, uses_anonymous_args = 0
 223              	.LVL18:
 224 0000 10B5     		push	{r4, lr}
 225              		.cfi_def_cfa_offset 8
 226              		.cfi_offset 4, -8
 227              		.cfi_offset 14, -4
 228              		.loc 1 588 0
ARM GAS  /tmp/ccPjLiMW.s 			page 5


 229 0002 0446     		mov	r4, r0
 230              		.loc 1 590 0
 231 0004 40F20000 		movw	r0, #:lower16:.LANCHOR1
 232              	.LVL19:
 233 0008 C0F20000 		movt	r0, #:upper16:.LANCHOR1
 234 000c FFF7FEFF 		bl	chMtxLock
 235              	.LVL20:
 236              		.loc 1 591 0
 237 0010 2078     		ldrb	r0, [r4]	@ zero_extendqisi2
 238 0012 FFF7FEFF 		bl	test_emit_token
 239              	.LVL21:
 240              		.loc 1 592 0
 241 0016 FFF7FEFF 		bl	chMtxUnlock
 242              	.LVL22:
 243              		.loc 1 594 0
 244 001a 0020     		movs	r0, #0
 245 001c 10BD     		pop	{r4, pc}
 246              		.cfi_endproc
 247              	.LFE35:
 248              		.size	thread12, .-thread12
 249 001e 00BF     		.section	.text.mtx1_setup,"ax",%progbits
 250              		.align	2
 251              		.thumb
 252              		.thumb_func
 253              		.type	mtx1_setup, %function
 254              	mtx1_setup:
 255              	.LFB7:
 256              		.loc 1 84 0
 257              		.cfi_startproc
 258              		@ args = 0, pretend = 0, frame = 0
 259              		@ frame_needed = 0, uses_anonymous_args = 0
 260              		@ link register save eliminated.
 261              		.loc 1 86 0
 262 0000 40F20000 		movw	r0, #:lower16:.LANCHOR0
 263 0004 C0F20000 		movt	r0, #:upper16:.LANCHOR0
 264 0008 FFF7FEBF 		b	chMtxInit
 265              	.LVL23:
 266              		.cfi_endproc
 267              	.LFE7:
 268              		.size	mtx1_setup, .-mtx1_setup
 269              		.section	.text.mtx2_setup,"ax",%progbits
 270              		.align	2
 271              		.thumb
 272              		.thumb_func
 273              		.type	mtx2_setup, %function
 274              	mtx2_setup:
 275              	.LFB10:
 276              		.loc 1 151 0
 277              		.cfi_startproc
 278              		@ args = 0, pretend = 0, frame = 0
 279              		@ frame_needed = 0, uses_anonymous_args = 0
 280              		@ link register save eliminated.
 281              		.loc 1 153 0
 282 0000 40F20000 		movw	r0, #:lower16:.LANCHOR0
 283 0004 C0F20000 		movt	r0, #:upper16:.LANCHOR0
 284 0008 FFF7FEBF 		b	chMtxInit
 285              	.LVL24:
ARM GAS  /tmp/ccPjLiMW.s 			page 6


 286              		.cfi_endproc
 287              	.LFE10:
 288              		.size	mtx2_setup, .-mtx2_setup
 289              		.section	.text.mtx3_setup,"ax",%progbits
 290              		.align	2
 291              		.thumb
 292              		.thumb_func
 293              		.type	mtx3_setup, %function
 294              	mtx3_setup:
 295              	.LFB15:
 296              		.loc 1 241 0
 297              		.cfi_startproc
 298              		@ args = 0, pretend = 0, frame = 0
 299              		@ frame_needed = 0, uses_anonymous_args = 0
 300 0000 08B5     		push	{r3, lr}
 301              		.cfi_def_cfa_offset 8
 302              		.cfi_offset 3, -8
 303              		.cfi_offset 14, -4
 304              		.loc 1 243 0
 305 0002 40F20000 		movw	r0, #:lower16:.LANCHOR0
 306 0006 C0F20000 		movt	r0, #:upper16:.LANCHOR0
 307 000a FFF7FEFF 		bl	chMtxInit
 308              	.LVL25:
 309              		.loc 1 245 0
 310 000e BDE80840 		pop	{r3, lr}
 311              		.loc 1 244 0
 312 0012 40F20000 		movw	r0, #:lower16:.LANCHOR1
 313 0016 C0F20000 		movt	r0, #:upper16:.LANCHOR1
 314 001a FFF7FEBF 		b	chMtxInit
 315              	.LVL26:
 316              		.cfi_endproc
 317              	.LFE15:
 318              		.size	mtx3_setup, .-mtx3_setup
 319 001e 00BF     		.section	.text.mtx4_setup,"ax",%progbits
 320              		.align	2
 321              		.thumb
 322              		.thumb_func
 323              		.type	mtx4_setup, %function
 324              	mtx4_setup:
 325              	.LFB22:
 326              		.loc 1 341 0
 327              		.cfi_startproc
 328              		@ args = 0, pretend = 0, frame = 0
 329              		@ frame_needed = 0, uses_anonymous_args = 0
 330 0000 08B5     		push	{r3, lr}
 331              		.cfi_def_cfa_offset 8
 332              		.cfi_offset 3, -8
 333              		.cfi_offset 14, -4
 334              		.loc 1 343 0
 335 0002 40F20000 		movw	r0, #:lower16:.LANCHOR0
 336 0006 C0F20000 		movt	r0, #:upper16:.LANCHOR0
 337 000a FFF7FEFF 		bl	chMtxInit
 338              	.LVL27:
 339              		.loc 1 345 0
 340 000e BDE80840 		pop	{r3, lr}
 341              		.loc 1 344 0
 342 0012 40F20000 		movw	r0, #:lower16:.LANCHOR1
ARM GAS  /tmp/ccPjLiMW.s 			page 7


 343 0016 C0F20000 		movt	r0, #:upper16:.LANCHOR1
 344 001a FFF7FEBF 		b	chMtxInit
 345              	.LVL28:
 346              		.cfi_endproc
 347              	.LFE22:
 348              		.size	mtx4_setup, .-mtx4_setup
 349 001e 00BF     		.section	.text.mtx5_setup,"ax",%progbits
 350              		.align	2
 351              		.thumb
 352              		.thumb_func
 353              		.type	mtx5_setup, %function
 354              	mtx5_setup:
 355              	.LFB26:
 356              		.loc 1 429 0
 357              		.cfi_startproc
 358              		@ args = 0, pretend = 0, frame = 0
 359              		@ frame_needed = 0, uses_anonymous_args = 0
 360              		@ link register save eliminated.
 361              		.loc 1 431 0
 362 0000 40F20000 		movw	r0, #:lower16:.LANCHOR0
 363 0004 C0F20000 		movt	r0, #:upper16:.LANCHOR0
 364 0008 FFF7FEBF 		b	chMtxInit
 365              	.LVL29:
 366              		.cfi_endproc
 367              	.LFE26:
 368              		.size	mtx5_setup, .-mtx5_setup
 369              		.section	.text.mtx2_execute,"ax",%progbits
 370              		.align	2
 371              		.thumb
 372              		.thumb_func
 373              		.type	mtx2_execute, %function
 374              	mtx2_execute:
 375              	.LFB14:
 376              		.loc 1 190 0
 377              		.cfi_startproc
 378              		@ args = 0, pretend = 0, frame = 0
 379              		@ frame_needed = 0, uses_anonymous_args = 0
 380 0000 2DE9F041 		push	{r4, r5, r6, r7, r8, lr}
 381              		.cfi_def_cfa_offset 24
 382              		.cfi_offset 4, -24
 383              		.cfi_offset 5, -20
 384              		.cfi_offset 6, -16
 385              		.cfi_offset 7, -12
 386              		.cfi_offset 8, -8
 387              		.cfi_offset 14, -4
 388              		.loc 1 195 0
 389 0004 40F20006 		movw	r6, #:lower16:rlist
 390              		.loc 1 190 0
 391 0008 82B0     		sub	sp, sp, #8
 392              		.cfi_def_cfa_offset 32
 393              		.loc 1 195 0
 394 000a C0F20006 		movt	r6, #:upper16:rlist
 395              		.loc 1 193 0
 396 000e FFF7FEFF 		bl	test_wait_tick
 397              	.LVL30:
 398              		.loc 1 195 0
 399 0012 B369     		ldr	r3, [r6, #24]
ARM GAS  /tmp/ccPjLiMW.s 			page 8


 400 0014 40F20005 		movw	r5, #:lower16:wa
 401 0018 9A68     		ldr	r2, [r3, #8]
 402 001a C0F20005 		movt	r5, #:upper16:wa
 403 001e 0027     		movs	r7, #0
 404              		.loc 1 194 0
 405 0020 40F20004 		movw	r4, #:lower16:vtlist
 406              		.loc 1 195 0
 407 0024 40F20003 		movw	r3, #:lower16:thread2H
 408 0028 013A     		subs	r2, r2, #1
 409              		.loc 1 194 0
 410 002a C0F20004 		movt	r4, #:upper16:vtlist
 411              		.loc 1 195 0
 412 002e 0097     		str	r7, [sp]
 413 0030 C0F20003 		movt	r3, #:upper16:thread2H
 414 0034 4FF4A871 		mov	r1, #336
 415 0038 2868     		ldr	r0, [r5]
 416              		.loc 1 194 0
 417 003a D4F80C80 		ldr	r8, [r4, #12]
 418              	.LVL31:
 419              		.loc 1 195 0
 420 003e FFF7FEFF 		bl	chThdCreateStatic
 421              	.LVL32:
 422              		.loc 1 196 0
 423 0042 B369     		ldr	r3, [r6, #24]
 424 0044 6968     		ldr	r1, [r5, #4]
 425 0046 9A68     		ldr	r2, [r3, #8]
 426              		.loc 1 195 0
 427 0048 40F20004 		movw	r4, #:lower16:threads
 428 004c C0F20004 		movt	r4, #:upper16:threads
 429              		.loc 1 196 0
 430 0050 40F20003 		movw	r3, #:lower16:thread2M
 431              		.loc 1 195 0
 432 0054 2060     		str	r0, [r4]
 433              		.loc 1 196 0
 434 0056 023A     		subs	r2, r2, #2
 435 0058 0846     		mov	r0, r1
 436 005a C0F20003 		movt	r3, #:upper16:thread2M
 437 005e 4FF4A871 		mov	r1, #336
 438 0062 0097     		str	r7, [sp]
 439 0064 FFF7FEFF 		bl	chThdCreateStatic
 440              	.LVL33:
 441              		.loc 1 197 0
 442 0068 B369     		ldr	r3, [r6, #24]
 443 006a A968     		ldr	r1, [r5, #8]
 444 006c 9A68     		ldr	r2, [r3, #8]
 445 006e 40F20003 		movw	r3, #:lower16:thread2L
 446              		.loc 1 196 0
 447 0072 6060     		str	r0, [r4, #4]
 448              		.loc 1 197 0
 449 0074 033A     		subs	r2, r2, #3
 450 0076 0846     		mov	r0, r1
 451 0078 C0F20003 		movt	r3, #:upper16:thread2L
 452 007c 4FF4A871 		mov	r1, #336
 453 0080 0097     		str	r7, [sp]
 454 0082 FFF7FEFF 		bl	chThdCreateStatic
 455              	.LVL34:
 456 0086 A060     		str	r0, [r4, #8]
ARM GAS  /tmp/ccPjLiMW.s 			page 9


 457              		.loc 1 198 0
 458 0088 FFF7FEFF 		bl	test_wait_threads
 459              	.LVL35:
 460              		.loc 1 199 0
 461 008c 40F20001 		movw	r1, #:lower16:.LC6
 462 0090 C0F20001 		movt	r1, #:upper16:.LC6
 463 0094 0120     		movs	r0, #1
 464 0096 FFF7FEFF 		bl	_test_assert_sequence
 465              	.LVL36:
 466 009a 10B1     		cbz	r0, .L14
 467              		.loc 1 201 0
 468 009c 02B0     		add	sp, sp, #8
 469              		@ sp needed
 470 009e BDE8F081 		pop	{r4, r5, r6, r7, r8, pc}
 471              	.LVL37:
 472              	.L14:
 473              		.loc 1 200 0
 474 00a2 0220     		movs	r0, #2
 475 00a4 08F16401 		add	r1, r8, #100
 476 00a8 08F16902 		add	r2, r8, #105
 477              		.loc 1 201 0
 478 00ac 02B0     		add	sp, sp, #8
 479              		@ sp needed
 480 00ae BDE8F041 		pop	{r4, r5, r6, r7, r8, lr}
 481              	.LVL38:
 482              		.loc 1 200 0
 483 00b2 FFF7FEBF 		b	_test_assert_time_window
 484              	.LVL39:
 485              		.cfi_endproc
 486              	.LFE14:
 487              		.size	mtx2_execute, .-mtx2_execute
 488 00b6 00BF     		.section	.text.mtx3_execute,"ax",%progbits
 489              		.align	2
 490              		.thumb
 491              		.thumb_func
 492              		.type	mtx3_execute, %function
 493              	mtx3_execute:
 494              	.LFB21:
 495              		.loc 1 308 0
 496              		.cfi_startproc
 497              		@ args = 0, pretend = 0, frame = 0
 498              		@ frame_needed = 0, uses_anonymous_args = 0
 499 0000 2DE9F041 		push	{r4, r5, r6, r7, r8, lr}
 500              		.cfi_def_cfa_offset 24
 501              		.cfi_offset 4, -24
 502              		.cfi_offset 5, -20
 503              		.cfi_offset 6, -16
 504              		.cfi_offset 7, -12
 505              		.cfi_offset 8, -8
 506              		.cfi_offset 14, -4
 507              		.loc 1 313 0
 508 0004 40F20006 		movw	r6, #:lower16:rlist
 509              		.loc 1 308 0
 510 0008 82B0     		sub	sp, sp, #8
 511              		.cfi_def_cfa_offset 32
 512              		.loc 1 313 0
 513 000a C0F20006 		movt	r6, #:upper16:rlist
ARM GAS  /tmp/ccPjLiMW.s 			page 10


 514              		.loc 1 311 0
 515 000e FFF7FEFF 		bl	test_wait_tick
 516              	.LVL40:
 517              		.loc 1 313 0
 518 0012 B369     		ldr	r3, [r6, #24]
 519 0014 40F20005 		movw	r5, #:lower16:wa
 520 0018 9A68     		ldr	r2, [r3, #8]
 521 001a C0F20005 		movt	r5, #:upper16:wa
 522 001e 0027     		movs	r7, #0
 523              		.loc 1 312 0
 524 0020 40F20004 		movw	r4, #:lower16:vtlist
 525              		.loc 1 313 0
 526 0024 40F20003 		movw	r3, #:lower16:thread3LL
 527 0028 053A     		subs	r2, r2, #5
 528              		.loc 1 312 0
 529 002a C0F20004 		movt	r4, #:upper16:vtlist
 530              		.loc 1 313 0
 531 002e 0097     		str	r7, [sp]
 532 0030 C0F20003 		movt	r3, #:upper16:thread3LL
 533 0034 4FF4A871 		mov	r1, #336
 534 0038 2868     		ldr	r0, [r5]
 535              		.loc 1 312 0
 536 003a D4F80C80 		ldr	r8, [r4, #12]
 537              	.LVL41:
 538              		.loc 1 313 0
 539 003e FFF7FEFF 		bl	chThdCreateStatic
 540              	.LVL42:
 541              		.loc 1 314 0
 542 0042 B369     		ldr	r3, [r6, #24]
 543 0044 6968     		ldr	r1, [r5, #4]
 544 0046 9A68     		ldr	r2, [r3, #8]
 545              		.loc 1 313 0
 546 0048 40F20004 		movw	r4, #:lower16:threads
 547 004c C0F20004 		movt	r4, #:upper16:threads
 548              		.loc 1 314 0
 549 0050 40F20003 		movw	r3, #:lower16:thread3L
 550              		.loc 1 313 0
 551 0054 2060     		str	r0, [r4]
 552              		.loc 1 314 0
 553 0056 043A     		subs	r2, r2, #4
 554 0058 0846     		mov	r0, r1
 555 005a C0F20003 		movt	r3, #:upper16:thread3L
 556 005e 4FF4A871 		mov	r1, #336
 557 0062 0097     		str	r7, [sp]
 558 0064 FFF7FEFF 		bl	chThdCreateStatic
 559              	.LVL43:
 560              		.loc 1 315 0
 561 0068 B369     		ldr	r3, [r6, #24]
 562 006a A968     		ldr	r1, [r5, #8]
 563 006c 9A68     		ldr	r2, [r3, #8]
 564 006e 40F20003 		movw	r3, #:lower16:thread3M
 565              		.loc 1 314 0
 566 0072 6060     		str	r0, [r4, #4]
 567              		.loc 1 315 0
 568 0074 033A     		subs	r2, r2, #3
 569 0076 0846     		mov	r0, r1
 570 0078 C0F20003 		movt	r3, #:upper16:thread3M
ARM GAS  /tmp/ccPjLiMW.s 			page 11


 571 007c 4FF4A871 		mov	r1, #336
 572 0080 0097     		str	r7, [sp]
 573 0082 FFF7FEFF 		bl	chThdCreateStatic
 574              	.LVL44:
 575              		.loc 1 316 0
 576 0086 B369     		ldr	r3, [r6, #24]
 577 0088 E968     		ldr	r1, [r5, #12]
 578 008a 9A68     		ldr	r2, [r3, #8]
 579 008c 40F20003 		movw	r3, #:lower16:thread3H
 580              		.loc 1 315 0
 581 0090 A060     		str	r0, [r4, #8]
 582              		.loc 1 316 0
 583 0092 023A     		subs	r2, r2, #2
 584 0094 0846     		mov	r0, r1
 585 0096 C0F20003 		movt	r3, #:upper16:thread3H
 586 009a 4FF4A871 		mov	r1, #336
 587 009e 0097     		str	r7, [sp]
 588 00a0 FFF7FEFF 		bl	chThdCreateStatic
 589              	.LVL45:
 590              		.loc 1 317 0
 591 00a4 B369     		ldr	r3, [r6, #24]
 592 00a6 2969     		ldr	r1, [r5, #16]
 593 00a8 9A68     		ldr	r2, [r3, #8]
 594 00aa 40F20003 		movw	r3, #:lower16:thread3HH
 595              		.loc 1 316 0
 596 00ae E060     		str	r0, [r4, #12]
 597              		.loc 1 317 0
 598 00b0 013A     		subs	r2, r2, #1
 599 00b2 0846     		mov	r0, r1
 600 00b4 C0F20003 		movt	r3, #:upper16:thread3HH
 601 00b8 4FF4A871 		mov	r1, #336
 602 00bc 0097     		str	r7, [sp]
 603 00be FFF7FEFF 		bl	chThdCreateStatic
 604              	.LVL46:
 605 00c2 2061     		str	r0, [r4, #16]
 606              		.loc 1 318 0
 607 00c4 FFF7FEFF 		bl	test_wait_threads
 608              	.LVL47:
 609              		.loc 1 319 0
 610 00c8 40F20001 		movw	r1, #:lower16:.LC5
 611 00cc C0F20001 		movt	r1, #:upper16:.LC5
 612 00d0 0120     		movs	r0, #1
 613 00d2 FFF7FEFF 		bl	_test_assert_sequence
 614              	.LVL48:
 615 00d6 10B1     		cbz	r0, .L17
 616              		.loc 1 321 0
 617 00d8 02B0     		add	sp, sp, #8
 618              		@ sp needed
 619 00da BDE8F081 		pop	{r4, r5, r6, r7, r8, pc}
 620              	.LVL49:
 621              	.L17:
 622              		.loc 1 320 0
 623 00de 0220     		movs	r0, #2
 624 00e0 08F16E01 		add	r1, r8, #110
 625 00e4 08F17302 		add	r2, r8, #115
 626              		.loc 1 321 0
 627 00e8 02B0     		add	sp, sp, #8
ARM GAS  /tmp/ccPjLiMW.s 			page 12


 628              		@ sp needed
 629 00ea BDE8F041 		pop	{r4, r5, r6, r7, r8, lr}
 630              	.LVL50:
 631              		.loc 1 320 0
 632 00ee FFF7FEBF 		b	_test_assert_time_window
 633              	.LVL51:
 634              		.cfi_endproc
 635              	.LFE21:
 636              		.size	mtx3_execute, .-mtx3_execute
 637 00f2 00BF     		.section	.text.thread2L,"ax",%progbits
 638              		.align	2
 639              		.thumb
 640              		.thumb_func
 641              		.type	thread2L, %function
 642              	thread2L:
 643              	.LFB11:
 644              		.loc 1 157 0
 645              		.cfi_startproc
 646              		@ args = 0, pretend = 0, frame = 0
 647              		@ frame_needed = 0, uses_anonymous_args = 0
 648              	.LVL52:
 649 0000 08B5     		push	{r3, lr}
 650              		.cfi_def_cfa_offset 8
 651              		.cfi_offset 3, -8
 652              		.cfi_offset 14, -4
 653              		.loc 1 160 0
 654 0002 40F20000 		movw	r0, #:lower16:.LANCHOR0
 655              	.LVL53:
 656 0006 C0F20000 		movt	r0, #:upper16:.LANCHOR0
 657 000a FFF7FEFF 		bl	chMtxLock
 658              	.LVL54:
 659              		.loc 1 161 0
 660 000e 2820     		movs	r0, #40
 661 0010 FFF7FEFF 		bl	test_cpu_pulse
 662              	.LVL55:
 663              		.loc 1 162 0
 664 0014 FFF7FEFF 		bl	chMtxUnlock
 665              	.LVL56:
 666              		.loc 1 163 0
 667 0018 0A20     		movs	r0, #10
 668 001a FFF7FEFF 		bl	test_cpu_pulse
 669              	.LVL57:
 670              		.loc 1 164 0
 671 001e 4320     		movs	r0, #67
 672 0020 FFF7FEFF 		bl	test_emit_token
 673              	.LVL58:
 674              		.loc 1 166 0
 675 0024 0020     		movs	r0, #0
 676 0026 08BD     		pop	{r3, pc}
 677              		.cfi_endproc
 678              	.LFE11:
 679              		.size	thread2L, .-thread2L
 680              		.section	.text.thread3LL,"ax",%progbits
 681              		.align	2
 682              		.thumb
 683              		.thumb_func
 684              		.type	thread3LL, %function
ARM GAS  /tmp/ccPjLiMW.s 			page 13


 685              	thread3LL:
 686              	.LFB16:
 687              		.loc 1 248 0
 688              		.cfi_startproc
 689              		@ args = 0, pretend = 0, frame = 0
 690              		@ frame_needed = 0, uses_anonymous_args = 0
 691              	.LVL59:
 692 0000 08B5     		push	{r3, lr}
 693              		.cfi_def_cfa_offset 8
 694              		.cfi_offset 3, -8
 695              		.cfi_offset 14, -4
 696              		.loc 1 251 0
 697 0002 40F20000 		movw	r0, #:lower16:.LANCHOR0
 698              	.LVL60:
 699 0006 C0F20000 		movt	r0, #:upper16:.LANCHOR0
 700 000a FFF7FEFF 		bl	chMtxLock
 701              	.LVL61:
 702              		.loc 1 252 0
 703 000e 1E20     		movs	r0, #30
 704 0010 FFF7FEFF 		bl	test_cpu_pulse
 705              	.LVL62:
 706              		.loc 1 253 0
 707 0014 FFF7FEFF 		bl	chMtxUnlock
 708              	.LVL63:
 709              		.loc 1 254 0
 710 0018 4520     		movs	r0, #69
 711 001a FFF7FEFF 		bl	test_emit_token
 712              	.LVL64:
 713              		.loc 1 256 0
 714 001e 0020     		movs	r0, #0
 715 0020 08BD     		pop	{r3, pc}
 716              		.cfi_endproc
 717              	.LFE16:
 718              		.size	thread3LL, .-thread3LL
 719 0022 00BF     		.section	.text.thread2M,"ax",%progbits
 720              		.align	2
 721              		.thumb
 722              		.thumb_func
 723              		.type	thread2M, %function
 724              	thread2M:
 725              	.LFB12:
 726              		.loc 1 169 0
 727              		.cfi_startproc
 728              		@ args = 0, pretend = 0, frame = 0
 729              		@ frame_needed = 0, uses_anonymous_args = 0
 730              	.LVL65:
 731 0000 08B5     		push	{r3, lr}
 732              		.cfi_def_cfa_offset 8
 733              		.cfi_offset 3, -8
 734              		.cfi_offset 14, -4
 735              		.loc 1 172 0
 736 0002 1420     		movs	r0, #20
 737              	.LVL66:
 738 0004 FFF7FEFF 		bl	chThdSleep
 739              	.LVL67:
 740              		.loc 1 173 0
 741 0008 2820     		movs	r0, #40
ARM GAS  /tmp/ccPjLiMW.s 			page 14


 742 000a FFF7FEFF 		bl	test_cpu_pulse
 743              	.LVL68:
 744              		.loc 1 174 0
 745 000e 4220     		movs	r0, #66
 746 0010 FFF7FEFF 		bl	test_emit_token
 747              	.LVL69:
 748              		.loc 1 176 0
 749 0014 0020     		movs	r0, #0
 750 0016 08BD     		pop	{r3, pc}
 751              		.cfi_endproc
 752              	.LFE12:
 753              		.size	thread2M, .-thread2M
 754              		.section	.text.thread2H,"ax",%progbits
 755              		.align	2
 756              		.thumb
 757              		.thumb_func
 758              		.type	thread2H, %function
 759              	thread2H:
 760              	.LFB13:
 761              		.loc 1 179 0
 762              		.cfi_startproc
 763              		@ args = 0, pretend = 0, frame = 0
 764              		@ frame_needed = 0, uses_anonymous_args = 0
 765              	.LVL70:
 766 0000 08B5     		push	{r3, lr}
 767              		.cfi_def_cfa_offset 8
 768              		.cfi_offset 3, -8
 769              		.cfi_offset 14, -4
 770              		.loc 1 182 0
 771 0002 2820     		movs	r0, #40
 772              	.LVL71:
 773 0004 FFF7FEFF 		bl	chThdSleep
 774              	.LVL72:
 775              		.loc 1 183 0
 776 0008 40F20000 		movw	r0, #:lower16:.LANCHOR0
 777 000c C0F20000 		movt	r0, #:upper16:.LANCHOR0
 778 0010 FFF7FEFF 		bl	chMtxLock
 779              	.LVL73:
 780              		.loc 1 184 0
 781 0014 0A20     		movs	r0, #10
 782 0016 FFF7FEFF 		bl	test_cpu_pulse
 783              	.LVL74:
 784              		.loc 1 185 0
 785 001a FFF7FEFF 		bl	chMtxUnlock
 786              	.LVL75:
 787              		.loc 1 186 0
 788 001e 4120     		movs	r0, #65
 789 0020 FFF7FEFF 		bl	test_emit_token
 790              	.LVL76:
 791              		.loc 1 188 0
 792 0024 0020     		movs	r0, #0
 793 0026 08BD     		pop	{r3, pc}
 794              		.cfi_endproc
 795              	.LFE13:
 796              		.size	thread2H, .-thread2H
 797              		.section	.text.thread3HH,"ax",%progbits
 798              		.align	2
ARM GAS  /tmp/ccPjLiMW.s 			page 15


 799              		.thumb
 800              		.thumb_func
 801              		.type	thread3HH, %function
 802              	thread3HH:
 803              	.LFB20:
 804              		.loc 1 297 0
 805              		.cfi_startproc
 806              		@ args = 0, pretend = 0, frame = 0
 807              		@ frame_needed = 0, uses_anonymous_args = 0
 808              	.LVL77:
 809 0000 08B5     		push	{r3, lr}
 810              		.cfi_def_cfa_offset 8
 811              		.cfi_offset 3, -8
 812              		.cfi_offset 14, -4
 813              		.loc 1 300 0
 814 0002 3220     		movs	r0, #50
 815              	.LVL78:
 816 0004 FFF7FEFF 		bl	chThdSleep
 817              	.LVL79:
 818              		.loc 1 301 0
 819 0008 40F20000 		movw	r0, #:lower16:.LANCHOR1
 820 000c C0F20000 		movt	r0, #:upper16:.LANCHOR1
 821 0010 FFF7FEFF 		bl	chMtxLock
 822              	.LVL80:
 823              		.loc 1 302 0
 824 0014 0A20     		movs	r0, #10
 825 0016 FFF7FEFF 		bl	test_cpu_pulse
 826              	.LVL81:
 827              		.loc 1 303 0
 828 001a FFF7FEFF 		bl	chMtxUnlock
 829              	.LVL82:
 830              		.loc 1 304 0
 831 001e 4120     		movs	r0, #65
 832 0020 FFF7FEFF 		bl	test_emit_token
 833              	.LVL83:
 834              		.loc 1 306 0
 835 0024 0020     		movs	r0, #0
 836 0026 08BD     		pop	{r3, pc}
 837              		.cfi_endproc
 838              	.LFE20:
 839              		.size	thread3HH, .-thread3HH
 840              		.section	.text.thread3H,"ax",%progbits
 841              		.align	2
 842              		.thumb
 843              		.thumb_func
 844              		.type	thread3H, %function
 845              	thread3H:
 846              	.LFB19:
 847              		.loc 1 287 0
 848              		.cfi_startproc
 849              		@ args = 0, pretend = 0, frame = 0
 850              		@ frame_needed = 0, uses_anonymous_args = 0
 851              	.LVL84:
 852 0000 08B5     		push	{r3, lr}
 853              		.cfi_def_cfa_offset 8
 854              		.cfi_offset 3, -8
 855              		.cfi_offset 14, -4
ARM GAS  /tmp/ccPjLiMW.s 			page 16


 856              		.loc 1 290 0
 857 0002 2820     		movs	r0, #40
 858              	.LVL85:
 859 0004 FFF7FEFF 		bl	chThdSleep
 860              	.LVL86:
 861              		.loc 1 291 0
 862 0008 1420     		movs	r0, #20
 863 000a FFF7FEFF 		bl	test_cpu_pulse
 864              	.LVL87:
 865              		.loc 1 292 0
 866 000e 4220     		movs	r0, #66
 867 0010 FFF7FEFF 		bl	test_emit_token
 868              	.LVL88:
 869              		.loc 1 294 0
 870 0014 0020     		movs	r0, #0
 871 0016 08BD     		pop	{r3, pc}
 872              		.cfi_endproc
 873              	.LFE19:
 874              		.size	thread3H, .-thread3H
 875              		.section	.text.thread3M,"ax",%progbits
 876              		.align	2
 877              		.thumb
 878              		.thumb_func
 879              		.type	thread3M, %function
 880              	thread3M:
 881              	.LFB18:
 882              		.loc 1 275 0
 883              		.cfi_startproc
 884              		@ args = 0, pretend = 0, frame = 0
 885              		@ frame_needed = 0, uses_anonymous_args = 0
 886              	.LVL89:
 887 0000 08B5     		push	{r3, lr}
 888              		.cfi_def_cfa_offset 8
 889              		.cfi_offset 3, -8
 890              		.cfi_offset 14, -4
 891              		.loc 1 278 0
 892 0002 1420     		movs	r0, #20
 893              	.LVL90:
 894 0004 FFF7FEFF 		bl	chThdSleep
 895              	.LVL91:
 896              		.loc 1 279 0
 897 0008 40F20000 		movw	r0, #:lower16:.LANCHOR1
 898 000c C0F20000 		movt	r0, #:upper16:.LANCHOR1
 899 0010 FFF7FEFF 		bl	chMtxLock
 900              	.LVL92:
 901              		.loc 1 280 0
 902 0014 0A20     		movs	r0, #10
 903 0016 FFF7FEFF 		bl	test_cpu_pulse
 904              	.LVL93:
 905              		.loc 1 281 0
 906 001a FFF7FEFF 		bl	chMtxUnlock
 907              	.LVL94:
 908              		.loc 1 282 0
 909 001e 4320     		movs	r0, #67
 910 0020 FFF7FEFF 		bl	test_emit_token
 911              	.LVL95:
 912              		.loc 1 284 0
ARM GAS  /tmp/ccPjLiMW.s 			page 17


 913 0024 0020     		movs	r0, #0
 914 0026 08BD     		pop	{r3, pc}
 915              		.cfi_endproc
 916              	.LFE18:
 917              		.size	thread3M, .-thread3M
 918              		.section	.text.thread3L,"ax",%progbits
 919              		.align	2
 920              		.thumb
 921              		.thumb_func
 922              		.type	thread3L, %function
 923              	thread3L:
 924              	.LFB17:
 925              		.loc 1 259 0
 926              		.cfi_startproc
 927              		@ args = 0, pretend = 0, frame = 0
 928              		@ frame_needed = 0, uses_anonymous_args = 0
 929              	.LVL96:
 930 0000 08B5     		push	{r3, lr}
 931              		.cfi_def_cfa_offset 8
 932              		.cfi_offset 3, -8
 933              		.cfi_offset 14, -4
 934              		.loc 1 262 0
 935 0002 0A20     		movs	r0, #10
 936              	.LVL97:
 937 0004 FFF7FEFF 		bl	chThdSleep
 938              	.LVL98:
 939              		.loc 1 263 0
 940 0008 40F20000 		movw	r0, #:lower16:.LANCHOR1
 941 000c C0F20000 		movt	r0, #:upper16:.LANCHOR1
 942 0010 FFF7FEFF 		bl	chMtxLock
 943              	.LVL99:
 944              		.loc 1 264 0
 945 0014 1420     		movs	r0, #20
 946 0016 FFF7FEFF 		bl	test_cpu_pulse
 947              	.LVL100:
 948              		.loc 1 265 0
 949 001a 40F20000 		movw	r0, #:lower16:.LANCHOR0
 950 001e C0F20000 		movt	r0, #:upper16:.LANCHOR0
 951 0022 FFF7FEFF 		bl	chMtxLock
 952              	.LVL101:
 953              		.loc 1 266 0
 954 0026 0A20     		movs	r0, #10
 955 0028 FFF7FEFF 		bl	test_cpu_pulse
 956              	.LVL102:
 957              		.loc 1 267 0
 958 002c FFF7FEFF 		bl	chMtxUnlock
 959              	.LVL103:
 960              		.loc 1 268 0
 961 0030 0A20     		movs	r0, #10
 962 0032 FFF7FEFF 		bl	test_cpu_pulse
 963              	.LVL104:
 964              		.loc 1 269 0
 965 0036 FFF7FEFF 		bl	chMtxUnlock
 966              	.LVL105:
 967              		.loc 1 270 0
 968 003a 4420     		movs	r0, #68
 969 003c FFF7FEFF 		bl	test_emit_token
ARM GAS  /tmp/ccPjLiMW.s 			page 18


 970              	.LVL106:
 971              		.loc 1 272 0
 972 0040 0020     		movs	r0, #0
 973 0042 08BD     		pop	{r3, pc}
 974              		.cfi_endproc
 975              	.LFE17:
 976              		.size	thread3L, .-thread3L
 977              		.section	.text.thread4b,"ax",%progbits
 978              		.align	2
 979              		.thumb
 980              		.thumb_func
 981              		.type	thread4b, %function
 982              	thread4b:
 983              	.LFB24:
 984              		.loc 1 356 0
 985              		.cfi_startproc
 986              		@ args = 0, pretend = 0, frame = 0
 987              		@ frame_needed = 0, uses_anonymous_args = 0
 988              	.LVL107:
 989 0000 08B5     		push	{r3, lr}
 990              		.cfi_def_cfa_offset 8
 991              		.cfi_offset 3, -8
 992              		.cfi_offset 14, -4
 993              		.loc 1 359 0
 994 0002 9620     		movs	r0, #150
 995              	.LVL108:
 996 0004 FFF7FEFF 		bl	chThdSleep
 997              	.LVL109:
 998              		.loc 1 360 0
 999 0008 40F20000 		movw	r0, #:lower16:.LANCHOR0
 1000 000c C0F20000 		movt	r0, #:upper16:.LANCHOR0
 1001 0010 FFF7FEFF 		bl	chMtxLock
 1002              	.LVL110:
 1003              		.loc 1 361 0
 1004 0014 FFF7FEFF 		bl	chMtxUnlock
 1005              	.LVL111:
 1006              		.loc 1 363 0
 1007 0018 0020     		movs	r0, #0
 1008 001a 08BD     		pop	{r3, pc}
 1009              		.cfi_endproc
 1010              	.LFE24:
 1011              		.size	thread4b, .-thread4b
 1012              		.section	.text.thread4a,"ax",%progbits
 1013              		.align	2
 1014              		.thumb
 1015              		.thumb_func
 1016              		.type	thread4a, %function
 1017              	thread4a:
 1018              	.LFB23:
 1019              		.loc 1 347 0
 1020              		.cfi_startproc
 1021              		@ args = 0, pretend = 0, frame = 0
 1022              		@ frame_needed = 0, uses_anonymous_args = 0
 1023              	.LVL112:
 1024 0000 08B5     		push	{r3, lr}
 1025              		.cfi_def_cfa_offset 8
 1026              		.cfi_offset 3, -8
ARM GAS  /tmp/ccPjLiMW.s 			page 19


 1027              		.cfi_offset 14, -4
 1028              		.loc 1 350 0
 1029 0002 3220     		movs	r0, #50
 1030              	.LVL113:
 1031 0004 FFF7FEFF 		bl	chThdSleep
 1032              	.LVL114:
 1033              		.loc 1 351 0
 1034 0008 40F20000 		movw	r0, #:lower16:.LANCHOR1
 1035 000c C0F20000 		movt	r0, #:upper16:.LANCHOR1
 1036 0010 FFF7FEFF 		bl	chMtxLock
 1037              	.LVL115:
 1038              		.loc 1 352 0
 1039 0014 FFF7FEFF 		bl	chMtxUnlock
 1040              	.LVL116:
 1041              		.loc 1 354 0
 1042 0018 0020     		movs	r0, #0
 1043 001a 08BD     		pop	{r3, pc}
 1044              		.cfi_endproc
 1045              	.LFE23:
 1046              		.size	thread4a, .-thread4a
 1047              		.section	.text.mtx4_execute,"ax",%progbits
 1048              		.align	2
 1049              		.thumb
 1050              		.thumb_func
 1051              		.type	mtx4_execute, %function
 1052              	mtx4_execute:
 1053              	.LFB25:
 1054              		.loc 1 365 0
 1055              		.cfi_startproc
 1056              		@ args = 0, pretend = 0, frame = 8
 1057              		@ frame_needed = 0, uses_anonymous_args = 0
 1058 0000 2DE9F046 		push	{r4, r5, r6, r7, r9, r10, lr}
 1059              		.cfi_def_cfa_offset 28
 1060              		.cfi_offset 4, -28
 1061              		.cfi_offset 5, -24
 1062              		.cfi_offset 6, -20
 1063              		.cfi_offset 7, -16
 1064              		.cfi_offset 9, -12
 1065              		.cfi_offset 10, -8
 1066              		.cfi_offset 14, -4
 1067              		.loc 1 368 0
 1068 0004 40F20004 		movw	r4, #:lower16:rlist
 1069 0008 C0F20004 		movt	r4, #:upper16:rlist
 1070 000c A369     		ldr	r3, [r4, #24]
 1071              		.loc 1 371 0
 1072 000e 40F20006 		movw	r6, #:lower16:wa
 1073 0012 C0F20006 		movt	r6, #:upper16:wa
 1074              		.loc 1 368 0
 1075 0016 9F68     		ldr	r7, [r3, #8]
 1076              	.LVL117:
 1077              		.loc 1 371 0
 1078 0018 3368     		ldr	r3, [r6]
 1079              		.loc 1 365 0
 1080 001a 85B0     		sub	sp, sp, #20
 1081              		.cfi_def_cfa_offset 48
 1082              		.loc 1 371 0
 1083 001c 40F20001 		movw	r1, #:lower16:.LC3
ARM GAS  /tmp/ccPjLiMW.s 			page 20


 1084 0020 0393     		str	r3, [sp, #12]
 1085 0022 C0F20001 		movt	r1, #:upper16:.LC3
 1086              		.loc 1 369 0
 1087 0026 07F10109 		add	r9, r7, #1
 1088              	.LVL118:
 1089              		.loc 1 371 0
 1090 002a 40F20003 		movw	r3, #:lower16:thread4a
 1091 002e 4A46     		mov	r2, r9
 1092 0030 0091     		str	r1, [sp]
 1093 0032 C0F20003 		movt	r3, #:upper16:thread4a
 1094 0036 4FF4A871 		mov	r1, #336
 1095 003a 0398     		ldr	r0, [sp, #12]
 1096 003c FFF7FEFF 		bl	chThdCreateStatic
 1097              	.LVL119:
 1098 0040 40F20005 		movw	r5, #:lower16:threads
 1099              		.loc 1 372 0
 1100 0044 7668     		ldr	r6, [r6, #4]
 1101 0046 40F20001 		movw	r1, #:lower16:.LC4
 1102              		.loc 1 371 0
 1103 004a C0F20005 		movt	r5, #:upper16:threads
 1104              		.loc 1 372 0
 1105 004e C0F20001 		movt	r1, #:upper16:.LC4
 1106              		.loc 1 370 0
 1107 0052 07F1020A 		add	r10, r7, #2
 1108              	.LVL120:
 1109              		.loc 1 372 0
 1110 0056 40F20003 		movw	r3, #:lower16:thread4b
 1111              		.loc 1 371 0
 1112 005a 2860     		str	r0, [r5]
 1113              		.loc 1 372 0
 1114 005c C0F20003 		movt	r3, #:upper16:thread4b
 1115 0060 5246     		mov	r2, r10
 1116 0062 0091     		str	r1, [sp]
 1117 0064 3046     		mov	r0, r6
 1118 0066 4FF4A871 		mov	r1, #336
 1119 006a FFF7FEFF 		bl	chThdCreateStatic
 1120              	.LVL121:
 1121 006e 6860     		str	r0, [r5, #4]
 1122              		.loc 1 373 0
 1123 0070 40F20000 		movw	r0, #:lower16:.LANCHOR1
 1124 0074 C0F20000 		movt	r0, #:upper16:.LANCHOR1
 1125 0078 FFF7FEFF 		bl	chMtxLock
 1126              	.LVL122:
 1127              		.loc 1 374 0
 1128 007c A369     		ldr	r3, [r4, #24]
 1129 007e 0120     		movs	r0, #1
 1130 0080 9968     		ldr	r1, [r3, #8]
 1131 0082 CB1B     		subs	r3, r1, r7
 1132 0084 5942     		rsbs	r1, r3, #0
 1133 0086 5941     		adcs	r1, r1, r3
 1134 0088 FFF7FEFF 		bl	_test_assert
 1135              	.LVL123:
 1136 008c 10B1     		cbz	r0, .L32
 1137              	.L28:
 1138              		.loc 1 410 0
 1139 008e 05B0     		add	sp, sp, #20
 1140              		@ sp needed
ARM GAS  /tmp/ccPjLiMW.s 			page 21


 1141 0090 BDE8F086 		pop	{r4, r5, r6, r7, r9, r10, pc}
 1142              	.LVL124:
 1143              	.L32:
 1144              		.loc 1 375 0
 1145 0094 6420     		movs	r0, #100
 1146 0096 FFF7FEFF 		bl	chThdSleep
 1147              	.LVL125:
 1148              		.loc 1 376 0
 1149 009a A369     		ldr	r3, [r4, #24]
 1150 009c 0220     		movs	r0, #2
 1151 009e 9968     		ldr	r1, [r3, #8]
 1152 00a0 B1EB090C 		subs	ip, r1, r9
 1153 00a4 DCF10001 		rsbs	r1, ip, #0
 1154 00a8 51EB0C01 		adcs	r1, r1, ip
 1155 00ac FFF7FEFF 		bl	_test_assert
 1156              	.LVL126:
 1157 00b0 0028     		cmp	r0, #0
 1158 00b2 ECD1     		bne	.L28
 1159              		.loc 1 377 0
 1160 00b4 40F20000 		movw	r0, #:lower16:.LANCHOR0
 1161 00b8 C0F20000 		movt	r0, #:upper16:.LANCHOR0
 1162 00bc FFF7FEFF 		bl	chMtxLock
 1163              	.LVL127:
 1164              		.loc 1 378 0
 1165 00c0 A369     		ldr	r3, [r4, #24]
 1166 00c2 0320     		movs	r0, #3
 1167 00c4 9968     		ldr	r1, [r3, #8]
 1168 00c6 B1EB090E 		subs	lr, r1, r9
 1169 00ca DEF10001 		rsbs	r1, lr, #0
 1170 00ce 51EB0E01 		adcs	r1, r1, lr
 1171 00d2 FFF7FEFF 		bl	_test_assert
 1172              	.LVL128:
 1173 00d6 0028     		cmp	r0, #0
 1174 00d8 D9D1     		bne	.L28
 1175              		.loc 1 379 0
 1176 00da 6420     		movs	r0, #100
 1177 00dc FFF7FEFF 		bl	chThdSleep
 1178              	.LVL129:
 1179              		.loc 1 380 0
 1180 00e0 A369     		ldr	r3, [r4, #24]
 1181 00e2 0420     		movs	r0, #4
 1182 00e4 9968     		ldr	r1, [r3, #8]
 1183 00e6 B1EB0A02 		subs	r2, r1, r10
 1184 00ea 5142     		rsbs	r1, r2, #0
 1185 00ec 5141     		adcs	r1, r1, r2
 1186 00ee FFF7FEFF 		bl	_test_assert
 1187              	.LVL130:
 1188 00f2 0028     		cmp	r0, #0
 1189 00f4 CBD1     		bne	.L28
 1190              		.loc 1 381 0
 1191 00f6 FFF7FEFF 		bl	chMtxUnlock
 1192              	.LVL131:
 1193              		.loc 1 382 0
 1194 00fa A369     		ldr	r3, [r4, #24]
 1195 00fc 0520     		movs	r0, #5
 1196 00fe 9968     		ldr	r1, [r3, #8]
 1197 0100 B1EB0903 		subs	r3, r1, r9
ARM GAS  /tmp/ccPjLiMW.s 			page 22


 1198 0104 5942     		rsbs	r1, r3, #0
 1199 0106 5941     		adcs	r1, r1, r3
 1200 0108 FFF7FEFF 		bl	_test_assert
 1201              	.LVL132:
 1202 010c 0028     		cmp	r0, #0
 1203 010e BED1     		bne	.L28
 1204              		.loc 1 383 0
 1205 0110 6420     		movs	r0, #100
 1206 0112 FFF7FEFF 		bl	chThdSleep
 1207              	.LVL133:
 1208              		.loc 1 384 0
 1209 0116 A369     		ldr	r3, [r4, #24]
 1210 0118 0620     		movs	r0, #6
 1211 011a 9968     		ldr	r1, [r3, #8]
 1212 011c B1EB090C 		subs	ip, r1, r9
 1213 0120 DCF10001 		rsbs	r1, ip, #0
 1214 0124 51EB0C01 		adcs	r1, r1, ip
 1215 0128 FFF7FEFF 		bl	_test_assert
 1216              	.LVL134:
 1217 012c 0028     		cmp	r0, #0
 1218 012e AED1     		bne	.L28
 1219              		.loc 1 385 0
 1220 0130 FFF7FEFF 		bl	chMtxUnlockAll
 1221              	.LVL135:
 1222              		.loc 1 386 0
 1223 0134 A369     		ldr	r3, [r4, #24]
 1224 0136 0720     		movs	r0, #7
 1225 0138 9968     		ldr	r1, [r3, #8]
 1226 013a B1EB070E 		subs	lr, r1, r7
 1227 013e DEF10001 		rsbs	r1, lr, #0
 1228 0142 51EB0E01 		adcs	r1, r1, lr
 1229 0146 FFF7FEFF 		bl	_test_assert
 1230              	.LVL136:
 1231 014a 0028     		cmp	r0, #0
 1232 014c 9FD1     		bne	.L28
 1233              		.loc 1 387 0
 1234 014e FFF7FEFF 		bl	test_wait_threads
 1235              	.LVL137:
 1236              		.loc 1 390 0
 1237 0152 40F20002 		movw	r2, #:lower16:.LC1
 1238 0156 C0F20002 		movt	r2, #:upper16:.LC1
 1239 015a 40F20003 		movw	r3, #:lower16:thread4a
 1240 015e 0092     		str	r2, [sp]
 1241 0160 C0F20003 		movt	r3, #:upper16:thread4a
 1242 0164 4FF4A871 		mov	r1, #336
 1243 0168 4A46     		mov	r2, r9
 1244 016a 0398     		ldr	r0, [sp, #12]
 1245 016c FFF7FEFF 		bl	chThdCreateStatic
 1246              	.LVL138:
 1247              		.loc 1 391 0
 1248 0170 40F20002 		movw	r2, #:lower16:.LC2
 1249 0174 C0F20002 		movt	r2, #:upper16:.LC2
 1250 0178 40F20003 		movw	r3, #:lower16:thread4b
 1251              		.loc 1 390 0
 1252 017c 2860     		str	r0, [r5]
 1253              		.loc 1 391 0
 1254 017e C0F20003 		movt	r3, #:upper16:thread4b
ARM GAS  /tmp/ccPjLiMW.s 			page 23


 1255 0182 4FF4A871 		mov	r1, #336
 1256 0186 0092     		str	r2, [sp]
 1257 0188 3046     		mov	r0, r6
 1258 018a 5246     		mov	r2, r10
 1259 018c FFF7FEFF 		bl	chThdCreateStatic
 1260              	.LVL139:
 1261 0190 6860     		str	r0, [r5, #4]
 1262              		.loc 1 392 0
 1263 0192 40F20000 		movw	r0, #:lower16:.LANCHOR1
 1264 0196 C0F20000 		movt	r0, #:upper16:.LANCHOR1
 1265 019a FFF7FEFF 		bl	chMtxLock
 1266              	.LVL140:
 1267              		.loc 1 393 0
 1268 019e A369     		ldr	r3, [r4, #24]
 1269 01a0 0820     		movs	r0, #8
 1270 01a2 9968     		ldr	r1, [r3, #8]
 1271 01a4 CA1B     		subs	r2, r1, r7
 1272 01a6 5142     		rsbs	r1, r2, #0
 1273 01a8 5141     		adcs	r1, r1, r2
 1274 01aa FFF7FEFF 		bl	_test_assert
 1275              	.LVL141:
 1276 01ae 0028     		cmp	r0, #0
 1277 01b0 7FF46DAF 		bne	.L28
 1278              		.loc 1 394 0
 1279 01b4 6420     		movs	r0, #100
 1280 01b6 FFF7FEFF 		bl	chThdSleep
 1281              	.LVL142:
 1282              		.loc 1 395 0
 1283 01ba A369     		ldr	r3, [r4, #24]
 1284 01bc 0920     		movs	r0, #9
 1285 01be 9968     		ldr	r1, [r3, #8]
 1286 01c0 B1EB0903 		subs	r3, r1, r9
 1287 01c4 5942     		rsbs	r1, r3, #0
 1288 01c6 5941     		adcs	r1, r1, r3
 1289 01c8 FFF7FEFF 		bl	_test_assert
 1290              	.LVL143:
 1291 01cc 0028     		cmp	r0, #0
 1292 01ce 7FF45EAF 		bne	.L28
 1293              		.loc 1 396 0
 1294 01d2 40F20000 		movw	r0, #:lower16:.LANCHOR0
 1295 01d6 C0F20000 		movt	r0, #:upper16:.LANCHOR0
 1296 01da FFF7FEFF 		bl	chMtxLock
 1297              	.LVL144:
 1298              		.loc 1 397 0
 1299 01de A369     		ldr	r3, [r4, #24]
 1300 01e0 0A20     		movs	r0, #10
 1301 01e2 9968     		ldr	r1, [r3, #8]
 1302 01e4 B1EB090C 		subs	ip, r1, r9
 1303 01e8 DCF10001 		rsbs	r1, ip, #0
 1304 01ec 51EB0C01 		adcs	r1, r1, ip
 1305 01f0 FFF7FEFF 		bl	_test_assert
 1306              	.LVL145:
 1307 01f4 0028     		cmp	r0, #0
 1308 01f6 7FF44AAF 		bne	.L28
 1309              		.loc 1 398 0
 1310 01fa 6420     		movs	r0, #100
 1311 01fc FFF7FEFF 		bl	chThdSleep
ARM GAS  /tmp/ccPjLiMW.s 			page 24


 1312              	.LVL146:
 1313              		.loc 1 399 0
 1314 0200 A369     		ldr	r3, [r4, #24]
 1315 0202 0B20     		movs	r0, #11
 1316 0204 9968     		ldr	r1, [r3, #8]
 1317 0206 B1EB0A0E 		subs	lr, r1, r10
 1318 020a DEF10001 		rsbs	r1, lr, #0
 1319 020e 51EB0E01 		adcs	r1, r1, lr
 1320 0212 FFF7FEFF 		bl	_test_assert
 1321              	.LVL147:
 1322 0216 0028     		cmp	r0, #0
 1323 0218 7FF439AF 		bne	.L28
 1324              	.LBB2:
 1325              		.loc 1 400 0
 1326 021c 2023     		movs	r3, #32
 1327              	@ 400 "/opt/ChibiOS_2.6.6/test/testmtx.c" 1
 1328 021e 83F31188 		msr     BASEPRI, r3
 1329              	@ 0 "" 2
 1330              		.thumb
 1331              	.LBE2:
 1332              		.loc 1 401 0
 1333 0222 FFF7FEFF 		bl	chMtxUnlockS
 1334              	.LVL148:
 1335              		.loc 1 402 0
 1336 0226 FFF7FEFF 		bl	chSchRescheduleS
 1337              	.LVL149:
 1338              	.LBB3:
 1339              		.loc 1 403 0
 1340 022a 0023     		movs	r3, #0
 1341              	@ 403 "/opt/ChibiOS_2.6.6/test/testmtx.c" 1
 1342 022c 83F31188 		msr     BASEPRI, r3
 1343              	@ 0 "" 2
 1344              		.thumb
 1345              	.LBE3:
 1346              		.loc 1 404 0
 1347 0230 A369     		ldr	r3, [r4, #24]
 1348 0232 0C20     		movs	r0, #12
 1349 0234 9968     		ldr	r1, [r3, #8]
 1350 0236 40F20004 		movw	r4, #:lower16:rlist
 1351 023a B1EB0906 		subs	r6, r1, r9
 1352 023e 7142     		rsbs	r1, r6, #0
 1353 0240 7141     		adcs	r1, r1, r6
 1354 0242 C0F20004 		movt	r4, #:upper16:rlist
 1355 0246 FFF7FEFF 		bl	_test_assert
 1356              	.LVL150:
 1357 024a 0028     		cmp	r0, #0
 1358 024c 7FF41FAF 		bne	.L28
 1359              		.loc 1 405 0
 1360 0250 6420     		movs	r0, #100
 1361 0252 FFF7FEFF 		bl	chThdSleep
 1362              	.LVL151:
 1363              		.loc 1 406 0
 1364 0256 A369     		ldr	r3, [r4, #24]
 1365 0258 0D20     		movs	r0, #13
 1366 025a 9968     		ldr	r1, [r3, #8]
 1367 025c B1EB0905 		subs	r5, r1, r9
 1368 0260 6942     		rsbs	r1, r5, #0
ARM GAS  /tmp/ccPjLiMW.s 			page 25


 1369 0262 6941     		adcs	r1, r1, r5
 1370 0264 FFF7FEFF 		bl	_test_assert
 1371              	.LVL152:
 1372 0268 0028     		cmp	r0, #0
 1373 026a 7FF410AF 		bne	.L28
 1374              		.loc 1 407 0
 1375 026e FFF7FEFF 		bl	chMtxUnlockAll
 1376              	.LVL153:
 1377              		.loc 1 408 0
 1378 0272 A369     		ldr	r3, [r4, #24]
 1379 0274 0E20     		movs	r0, #14
 1380 0276 9968     		ldr	r1, [r3, #8]
 1381 0278 CA1B     		subs	r2, r1, r7
 1382 027a 5142     		rsbs	r1, r2, #0
 1383 027c 5141     		adcs	r1, r1, r2
 1384 027e FFF7FEFF 		bl	_test_assert
 1385              	.LVL154:
 1386 0282 0028     		cmp	r0, #0
 1387 0284 7FF403AF 		bne	.L28
 1388              		.loc 1 410 0
 1389 0288 05B0     		add	sp, sp, #20
 1390              		@ sp needed
 1391 028a BDE8F046 		pop	{r4, r5, r6, r7, r9, r10, lr}
 1392              	.LVL155:
 1393              		.loc 1 409 0
 1394 028e FFF7FEBF 		b	test_wait_threads
 1395              	.LVL156:
 1396              		.cfi_endproc
 1397              	.LFE25:
 1398              		.size	mtx4_execute, .-mtx4_execute
 1399 0292 00BF     		.section	.text.mtx5_execute,"ax",%progbits
 1400              		.align	2
 1401              		.thumb
 1402              		.thumb_func
 1403              		.type	mtx5_execute, %function
 1404              	mtx5_execute:
 1405              	.LFB27:
 1406              		.loc 1 434 0
 1407              		.cfi_startproc
 1408              		@ args = 0, pretend = 0, frame = 0
 1409              		@ frame_needed = 0, uses_anonymous_args = 0
 1410 0000 F8B5     		push	{r3, r4, r5, r6, r7, lr}
 1411              		.cfi_def_cfa_offset 24
 1412              		.cfi_offset 3, -24
 1413              		.cfi_offset 4, -20
 1414              		.cfi_offset 5, -16
 1415              		.cfi_offset 6, -12
 1416              		.cfi_offset 7, -8
 1417              		.cfi_offset 14, -4
 1418              		.loc 1 438 0
 1419 0002 40F20005 		movw	r5, #:lower16:rlist
 1420 0006 C0F20005 		movt	r5, #:upper16:rlist
 1421              		.loc 1 440 0
 1422 000a 40F20004 		movw	r4, #:lower16:.LANCHOR0
 1423              		.loc 1 438 0
 1424 000e AB69     		ldr	r3, [r5, #24]
 1425              		.loc 1 440 0
ARM GAS  /tmp/ccPjLiMW.s 			page 26


 1426 0010 C0F20004 		movt	r4, #:upper16:.LANCHOR0
 1427 0014 2046     		mov	r0, r4
 1428              		.loc 1 438 0
 1429 0016 9E68     		ldr	r6, [r3, #8]
 1430              	.LVL157:
 1431              		.loc 1 440 0
 1432 0018 FFF7FEFF 		bl	chMtxTryLock
 1433              	.LVL158:
 1434              		.loc 1 441 0
 1435 001c 0146     		mov	r1, r0
 1436 001e 0120     		movs	r0, #1
 1437              	.LVL159:
 1438 0020 FFF7FEFF 		bl	_test_assert
 1439              	.LVL160:
 1440 0024 00B1     		cbz	r0, .L37
 1441              	.L33:
 1442 0026 F8BD     		pop	{r3, r4, r5, r6, r7, pc}
 1443              	.LVL161:
 1444              	.L37:
 1445              		.loc 1 443 0
 1446 0028 2046     		mov	r0, r4
 1447 002a FFF7FEFF 		bl	chMtxTryLock
 1448              	.LVL162:
 1449              		.loc 1 444 0
 1450 002e 80F00101 		eor	r1, r0, #1
 1451 0032 C9B2     		uxtb	r1, r1
 1452 0034 0220     		movs	r0, #2
 1453              	.LVL163:
 1454 0036 FFF7FEFF 		bl	_test_assert
 1455              	.LVL164:
 1456 003a 0028     		cmp	r0, #0
 1457 003c F3D1     		bne	.L33
 1458              	.LBB4:
 1459              		.loc 1 446 0
 1460 003e 2023     		movs	r3, #32
 1461              	@ 446 "/opt/ChibiOS_2.6.6/test/testmtx.c" 1
 1462 0040 83F31188 		msr     BASEPRI, r3
 1463              	@ 0 "" 2
 1464              		.thumb
 1465              	.LBE4:
 1466              		.loc 1 447 0
 1467 0044 FFF7FEFF 		bl	chMtxUnlockS
 1468              	.LVL165:
 1469              	.LBB5:
 1470              		.loc 1 448 0
 1471 0048 0023     		movs	r3, #0
 1472              	@ 448 "/opt/ChibiOS_2.6.6/test/testmtx.c" 1
 1473 004a 83F31188 		msr     BASEPRI, r3
 1474              	@ 0 "" 2
 1475              		.thumb
 1476              	.LBE5:
 1477              		.loc 1 450 0
 1478 004e 2168     		ldr	r1, [r4]
 1479 0050 40F20007 		movw	r7, #:lower16:.LANCHOR0
 1480 0054 B1EB040E 		subs	lr, r1, r4
 1481 0058 DEF10001 		rsbs	r1, lr, #0
 1482 005c 51EB0E01 		adcs	r1, r1, lr
ARM GAS  /tmp/ccPjLiMW.s 			page 27


 1483 0060 0320     		movs	r0, #3
 1484 0062 C0F20007 		movt	r7, #:upper16:.LANCHOR0
 1485 0066 FFF7FEFF 		bl	_test_assert
 1486              	.LVL166:
 1487 006a 0028     		cmp	r0, #0
 1488 006c DBD1     		bne	.L33
 1489              		.loc 1 451 0
 1490 006e B968     		ldr	r1, [r7, #8]
 1491 0070 0420     		movs	r0, #4
 1492 0072 D1F10101 		rsbs	r1, r1, #1
 1493 0076 38BF     		it	cc
 1494 0078 0021     		movcc	r1, #0
 1495 007a FFF7FEFF 		bl	_test_assert
 1496              	.LVL167:
 1497 007e 0028     		cmp	r0, #0
 1498 0080 D1D1     		bne	.L33
 1499              		.loc 1 452 0
 1500 0082 AB69     		ldr	r3, [r5, #24]
 1501 0084 0520     		movs	r0, #5
 1502 0086 9968     		ldr	r1, [r3, #8]
 1503 0088 8C1B     		subs	r4, r1, r6
 1504 008a 6142     		rsbs	r1, r4, #0
 1505 008c 6141     		adcs	r1, r1, r4
 1506 008e FFF7FEFF 		bl	_test_assert
 1507              	.LVL168:
 1508 0092 0028     		cmp	r0, #0
 1509 0094 C7D1     		bne	.L33
 1510              		.loc 1 454 0
 1511 0096 3846     		mov	r0, r7
 1512 0098 FFF7FEFF 		bl	chMtxLock
 1513              	.LVL169:
 1514              		.loc 1 455 0
 1515 009c FFF7FEFF 		bl	chMtxUnlockAll
 1516              	.LVL170:
 1517              		.loc 1 456 0
 1518 00a0 3968     		ldr	r1, [r7]
 1519 00a2 0620     		movs	r0, #6
 1520 00a4 CA1B     		subs	r2, r1, r7
 1521 00a6 5142     		rsbs	r1, r2, #0
 1522 00a8 5141     		adcs	r1, r1, r2
 1523 00aa FFF7FEFF 		bl	_test_assert
 1524              	.LVL171:
 1525 00ae 0028     		cmp	r0, #0
 1526 00b0 B9D1     		bne	.L33
 1527              		.loc 1 457 0
 1528 00b2 B968     		ldr	r1, [r7, #8]
 1529 00b4 0720     		movs	r0, #7
 1530 00b6 D1F10101 		rsbs	r1, r1, #1
 1531 00ba 38BF     		it	cc
 1532 00bc 0021     		movcc	r1, #0
 1533              		.loc 1 458 0
 1534 00be BDE8F840 		pop	{r3, r4, r5, r6, r7, lr}
 1535              	.LVL172:
 1536              		.loc 1 457 0
 1537 00c2 FFF7FEBF 		b	_test_assert
 1538              	.LVL173:
 1539              		.cfi_endproc
ARM GAS  /tmp/ccPjLiMW.s 			page 28


 1540              	.LFE27:
 1541              		.size	mtx5_execute, .-mtx5_execute
 1542 00c6 00BF     		.section	.text.mtx6_execute,"ax",%progbits
 1543              		.align	2
 1544              		.thumb
 1545              		.thumb_func
 1546              		.type	mtx6_execute, %function
 1547              	mtx6_execute:
 1548              	.LFB30:
 1549              		.loc 1 494 0
 1550              		.cfi_startproc
 1551              		@ args = 0, pretend = 0, frame = 0
 1552              		@ frame_needed = 0, uses_anonymous_args = 0
 1553 0000 F0B5     		push	{r4, r5, r6, r7, lr}
 1554              		.cfi_def_cfa_offset 20
 1555              		.cfi_offset 4, -20
 1556              		.cfi_offset 5, -16
 1557              		.cfi_offset 6, -12
 1558              		.cfi_offset 7, -8
 1559              		.cfi_offset 14, -4
 1560              		.loc 1 496 0
 1561 0002 40F20003 		movw	r3, #:lower16:rlist
 1562 0006 C0F20003 		movt	r3, #:upper16:rlist
 1563 000a 9B69     		ldr	r3, [r3, #24]
 1564              		.loc 1 497 0
 1565 000c 40F20006 		movw	r6, #:lower16:wa
 1566              		.loc 1 496 0
 1567 0010 9F68     		ldr	r7, [r3, #8]
 1568              	.LVL174:
 1569              		.loc 1 497 0
 1570 0012 40F20005 		movw	r5, #:lower16:thread10
 1571 0016 40F20001 		movw	r1, #:lower16:.LC0
 1572              		.loc 1 494 0
 1573 001a 83B0     		sub	sp, sp, #12
 1574              		.cfi_def_cfa_offset 32
 1575              		.loc 1 497 0
 1576 001c C0F20006 		movt	r6, #:upper16:wa
 1577 0020 C0F20005 		movt	r5, #:upper16:thread10
 1578 0024 C0F20001 		movt	r1, #:upper16:.LC0
 1579 0028 7A1C     		adds	r2, r7, #1
 1580 002a 2B46     		mov	r3, r5
 1581 002c 0091     		str	r1, [sp]
 1582 002e 3068     		ldr	r0, [r6]
 1583 0030 4FF4A871 		mov	r1, #336
 1584 0034 FFF7FEFF 		bl	chThdCreateStatic
 1585              	.LVL175:
 1586 0038 40F20004 		movw	r4, #:lower16:threads
 1587              		.loc 1 498 0
 1588 003c 7368     		ldr	r3, [r6, #4]
 1589 003e 40F20001 		movw	r1, #:lower16:.LC1
 1590              		.loc 1 497 0
 1591 0042 C0F20004 		movt	r4, #:upper16:threads
 1592              		.loc 1 498 0
 1593 0046 C0F20001 		movt	r1, #:upper16:.LC1
 1594              		.loc 1 497 0
 1595 004a 2060     		str	r0, [r4]
 1596              		.loc 1 498 0
ARM GAS  /tmp/ccPjLiMW.s 			page 29


 1597 004c BA1C     		adds	r2, r7, #2
 1598 004e 0091     		str	r1, [sp]
 1599 0050 1846     		mov	r0, r3
 1600 0052 4FF4A871 		mov	r1, #336
 1601 0056 2B46     		mov	r3, r5
 1602 0058 FFF7FEFF 		bl	chThdCreateStatic
 1603              	.LVL176:
 1604              		.loc 1 499 0
 1605 005c B368     		ldr	r3, [r6, #8]
 1606 005e 40F20001 		movw	r1, #:lower16:.LC2
 1607 0062 C0F20001 		movt	r1, #:upper16:.LC2
 1608              		.loc 1 498 0
 1609 0066 6060     		str	r0, [r4, #4]
 1610              		.loc 1 499 0
 1611 0068 FA1C     		adds	r2, r7, #3
 1612 006a 0091     		str	r1, [sp]
 1613 006c 1846     		mov	r0, r3
 1614 006e 4FF4A871 		mov	r1, #336
 1615 0072 2B46     		mov	r3, r5
 1616 0074 FFF7FEFF 		bl	chThdCreateStatic
 1617              	.LVL177:
 1618              		.loc 1 500 0
 1619 0078 F368     		ldr	r3, [r6, #12]
 1620 007a 40F20001 		movw	r1, #:lower16:.LC3
 1621 007e C0F20001 		movt	r1, #:upper16:.LC3
 1622              		.loc 1 499 0
 1623 0082 A060     		str	r0, [r4, #8]
 1624              		.loc 1 500 0
 1625 0084 3A1D     		adds	r2, r7, #4
 1626 0086 0091     		str	r1, [sp]
 1627 0088 1846     		mov	r0, r3
 1628 008a 4FF4A871 		mov	r1, #336
 1629 008e 2B46     		mov	r3, r5
 1630 0090 FFF7FEFF 		bl	chThdCreateStatic
 1631              	.LVL178:
 1632              		.loc 1 501 0
 1633 0094 3369     		ldr	r3, [r6, #16]
 1634 0096 40F20001 		movw	r1, #:lower16:.LC4
 1635 009a C0F20001 		movt	r1, #:upper16:.LC4
 1636              		.loc 1 500 0
 1637 009e E060     		str	r0, [r4, #12]
 1638              		.loc 1 501 0
 1639 00a0 7A1D     		adds	r2, r7, #5
 1640 00a2 0091     		str	r1, [sp]
 1641 00a4 1846     		mov	r0, r3
 1642 00a6 4FF4A871 		mov	r1, #336
 1643 00aa 2B46     		mov	r3, r5
 1644 00ac FFF7FEFF 		bl	chThdCreateStatic
 1645              	.LVL179:
 1646              	.LBB6:
 1647              		.loc 1 502 0
 1648 00b0 2023     		movs	r3, #32
 1649              	.LBE6:
 1650              		.loc 1 501 0
 1651 00b2 2061     		str	r0, [r4, #16]
 1652              	.LBB7:
 1653              		.loc 1 502 0
ARM GAS  /tmp/ccPjLiMW.s 			page 30


 1654              	@ 502 "/opt/ChibiOS_2.6.6/test/testmtx.c" 1
 1655 00b4 83F31188 		msr     BASEPRI, r3
 1656              	@ 0 "" 2
 1657              		.thumb
 1658              	.LBE7:
 1659              		.loc 1 503 0
 1660 00b8 40F20004 		movw	r4, #:lower16:.LANCHOR2
 1661 00bc C0F20004 		movt	r4, #:upper16:.LANCHOR2
 1662 00c0 2046     		mov	r0, r4
 1663 00c2 FFF7FEFF 		bl	chCondSignalI
 1664              	.LVL180:
 1665              		.loc 1 504 0
 1666 00c6 2046     		mov	r0, r4
 1667 00c8 FFF7FEFF 		bl	chCondSignalI
 1668              	.LVL181:
 1669              		.loc 1 505 0
 1670 00cc 2046     		mov	r0, r4
 1671 00ce FFF7FEFF 		bl	chCondSignalI
 1672              	.LVL182:
 1673              		.loc 1 506 0
 1674 00d2 2046     		mov	r0, r4
 1675 00d4 FFF7FEFF 		bl	chCondSignalI
 1676              	.LVL183:
 1677              		.loc 1 507 0
 1678 00d8 2046     		mov	r0, r4
 1679 00da FFF7FEFF 		bl	chCondSignalI
 1680              	.LVL184:
 1681              		.loc 1 508 0
 1682 00de FFF7FEFF 		bl	chSchRescheduleS
 1683              	.LVL185:
 1684              	.LBB8:
 1685              		.loc 1 509 0
 1686 00e2 0023     		movs	r3, #0
 1687              	@ 509 "/opt/ChibiOS_2.6.6/test/testmtx.c" 1
 1688 00e4 83F31188 		msr     BASEPRI, r3
 1689              	@ 0 "" 2
 1690              		.thumb
 1691              	.LBE8:
 1692              		.loc 1 510 0
 1693 00e8 FFF7FEFF 		bl	test_wait_threads
 1694              	.LVL186:
 1695              		.loc 1 511 0
 1696 00ec 40F20001 		movw	r1, #:lower16:.LC5
 1697 00f0 C0F20001 		movt	r1, #:upper16:.LC5
 1698 00f4 0120     		movs	r0, #1
 1699              		.loc 1 512 0
 1700 00f6 03B0     		add	sp, sp, #12
 1701              		@ sp needed
 1702 00f8 BDE8F040 		pop	{r4, r5, r6, r7, lr}
 1703              	.LVL187:
 1704              		.loc 1 511 0
 1705 00fc FFF7FEBF 		b	_test_assert_sequence
 1706              	.LVL188:
 1707              		.cfi_endproc
 1708              	.LFE30:
 1709              		.size	mtx6_execute, .-mtx6_execute
 1710              		.section	.text.thread10,"ax",%progbits
ARM GAS  /tmp/ccPjLiMW.s 			page 31


 1711              		.align	2
 1712              		.thumb
 1713              		.thumb_func
 1714              		.type	thread10, %function
 1715              	thread10:
 1716              	.LFB29:
 1717              		.loc 1 485 0
 1718              		.cfi_startproc
 1719              		@ args = 0, pretend = 0, frame = 0
 1720              		@ frame_needed = 0, uses_anonymous_args = 0
 1721              	.LVL189:
 1722 0000 10B5     		push	{r4, lr}
 1723              		.cfi_def_cfa_offset 8
 1724              		.cfi_offset 4, -8
 1725              		.cfi_offset 14, -4
 1726              		.loc 1 485 0
 1727 0002 0446     		mov	r4, r0
 1728              		.loc 1 487 0
 1729 0004 40F20000 		movw	r0, #:lower16:.LANCHOR0
 1730              	.LVL190:
 1731 0008 C0F20000 		movt	r0, #:upper16:.LANCHOR0
 1732 000c FFF7FEFF 		bl	chMtxLock
 1733              	.LVL191:
 1734              		.loc 1 488 0
 1735 0010 40F20000 		movw	r0, #:lower16:.LANCHOR2
 1736 0014 C0F20000 		movt	r0, #:upper16:.LANCHOR2
 1737 0018 FFF7FEFF 		bl	chCondWait
 1738              	.LVL192:
 1739              		.loc 1 489 0
 1740 001c 2078     		ldrb	r0, [r4]	@ zero_extendqisi2
 1741 001e FFF7FEFF 		bl	test_emit_token
 1742              	.LVL193:
 1743              		.loc 1 490 0
 1744 0022 FFF7FEFF 		bl	chMtxUnlock
 1745              	.LVL194:
 1746              		.loc 1 492 0
 1747 0026 0020     		movs	r0, #0
 1748 0028 10BD     		pop	{r4, pc}
 1749              		.cfi_endproc
 1750              	.LFE29:
 1751              		.size	thread10, .-thread10
 1752 002a 00BF     		.section	.text.mtx6_setup,"ax",%progbits
 1753              		.align	2
 1754              		.thumb
 1755              		.thumb_func
 1756              		.type	mtx6_setup, %function
 1757              	mtx6_setup:
 1758              	.LFB28:
 1759              		.loc 1 479 0
 1760              		.cfi_startproc
 1761              		@ args = 0, pretend = 0, frame = 0
 1762              		@ frame_needed = 0, uses_anonymous_args = 0
 1763 0000 08B5     		push	{r3, lr}
 1764              		.cfi_def_cfa_offset 8
 1765              		.cfi_offset 3, -8
 1766              		.cfi_offset 14, -4
 1767              		.loc 1 481 0
ARM GAS  /tmp/ccPjLiMW.s 			page 32


 1768 0002 40F20000 		movw	r0, #:lower16:.LANCHOR2
 1769 0006 C0F20000 		movt	r0, #:upper16:.LANCHOR2
 1770 000a FFF7FEFF 		bl	chCondInit
 1771              	.LVL195:
 1772              		.loc 1 483 0
 1773 000e BDE80840 		pop	{r3, lr}
 1774              		.loc 1 482 0
 1775 0012 40F20000 		movw	r0, #:lower16:.LANCHOR0
 1776 0016 C0F20000 		movt	r0, #:upper16:.LANCHOR0
 1777 001a FFF7FEBF 		b	chMtxInit
 1778              	.LVL196:
 1779              		.cfi_endproc
 1780              	.LFE28:
 1781              		.size	mtx6_setup, .-mtx6_setup
 1782 001e 00BF     		.section	.text.mtx7_setup,"ax",%progbits
 1783              		.align	2
 1784              		.thumb
 1785              		.thumb_func
 1786              		.type	mtx7_setup, %function
 1787              	mtx7_setup:
 1788              	.LFB31:
 1789              		.loc 1 531 0
 1790              		.cfi_startproc
 1791              		@ args = 0, pretend = 0, frame = 0
 1792              		@ frame_needed = 0, uses_anonymous_args = 0
 1793 0000 08B5     		push	{r3, lr}
 1794              		.cfi_def_cfa_offset 8
 1795              		.cfi_offset 3, -8
 1796              		.cfi_offset 14, -4
 1797              		.loc 1 533 0
 1798 0002 40F20000 		movw	r0, #:lower16:.LANCHOR2
 1799 0006 C0F20000 		movt	r0, #:upper16:.LANCHOR2
 1800 000a FFF7FEFF 		bl	chCondInit
 1801              	.LVL197:
 1802              		.loc 1 535 0
 1803 000e BDE80840 		pop	{r3, lr}
 1804              		.loc 1 534 0
 1805 0012 40F20000 		movw	r0, #:lower16:.LANCHOR0
 1806 0016 C0F20000 		movt	r0, #:upper16:.LANCHOR0
 1807 001a FFF7FEBF 		b	chMtxInit
 1808              	.LVL198:
 1809              		.cfi_endproc
 1810              	.LFE31:
 1811              		.size	mtx7_setup, .-mtx7_setup
 1812 001e 00BF     		.section	.text.mtx8_setup,"ax",%progbits
 1813              		.align	2
 1814              		.thumb
 1815              		.thumb_func
 1816              		.type	mtx8_setup, %function
 1817              	mtx8_setup:
 1818              	.LFB33:
 1819              		.loc 1 566 0
 1820              		.cfi_startproc
 1821              		@ args = 0, pretend = 0, frame = 0
 1822              		@ frame_needed = 0, uses_anonymous_args = 0
 1823 0000 08B5     		push	{r3, lr}
 1824              		.cfi_def_cfa_offset 8
ARM GAS  /tmp/ccPjLiMW.s 			page 33


 1825              		.cfi_offset 3, -8
 1826              		.cfi_offset 14, -4
 1827              		.loc 1 568 0
 1828 0002 40F20000 		movw	r0, #:lower16:.LANCHOR2
 1829 0006 C0F20000 		movt	r0, #:upper16:.LANCHOR2
 1830 000a FFF7FEFF 		bl	chCondInit
 1831              	.LVL199:
 1832              		.loc 1 569 0
 1833 000e 40F20000 		movw	r0, #:lower16:.LANCHOR0
 1834 0012 C0F20000 		movt	r0, #:upper16:.LANCHOR0
 1835 0016 FFF7FEFF 		bl	chMtxInit
 1836              	.LVL200:
 1837              		.loc 1 571 0
 1838 001a BDE80840 		pop	{r3, lr}
 1839              		.loc 1 570 0
 1840 001e 40F20000 		movw	r0, #:lower16:.LANCHOR1
 1841 0022 C0F20000 		movt	r0, #:upper16:.LANCHOR1
 1842 0026 FFF7FEBF 		b	chMtxInit
 1843              	.LVL201:
 1844              		.cfi_endproc
 1845              	.LFE33:
 1846              		.size	mtx8_setup, .-mtx8_setup
 1847 002a 00BF     		.section	.text.mtx7_execute,"ax",%progbits
 1848              		.align	2
 1849              		.thumb
 1850              		.thumb_func
 1851              		.type	mtx7_execute, %function
 1852              	mtx7_execute:
 1853              	.LFB32:
 1854              		.loc 1 537 0
 1855              		.cfi_startproc
 1856              		@ args = 0, pretend = 0, frame = 0
 1857              		@ frame_needed = 0, uses_anonymous_args = 0
 1858 0000 F0B5     		push	{r4, r5, r6, r7, lr}
 1859              		.cfi_def_cfa_offset 20
 1860              		.cfi_offset 4, -20
 1861              		.cfi_offset 5, -16
 1862              		.cfi_offset 6, -12
 1863              		.cfi_offset 7, -8
 1864              		.cfi_offset 14, -4
 1865              		.loc 1 539 0
 1866 0002 40F20003 		movw	r3, #:lower16:rlist
 1867 0006 C0F20003 		movt	r3, #:upper16:rlist
 1868 000a 9B69     		ldr	r3, [r3, #24]
 1869              		.loc 1 540 0
 1870 000c 40F20006 		movw	r6, #:lower16:wa
 1871              		.loc 1 539 0
 1872 0010 9F68     		ldr	r7, [r3, #8]
 1873              	.LVL202:
 1874              		.loc 1 540 0
 1875 0012 40F20005 		movw	r5, #:lower16:thread10
 1876 0016 40F20001 		movw	r1, #:lower16:.LC0
 1877              		.loc 1 537 0
 1878 001a 83B0     		sub	sp, sp, #12
 1879              		.cfi_def_cfa_offset 32
 1880              		.loc 1 540 0
 1881 001c C0F20006 		movt	r6, #:upper16:wa
ARM GAS  /tmp/ccPjLiMW.s 			page 34


 1882 0020 C0F20005 		movt	r5, #:upper16:thread10
 1883 0024 C0F20001 		movt	r1, #:upper16:.LC0
 1884 0028 7A1C     		adds	r2, r7, #1
 1885 002a 2B46     		mov	r3, r5
 1886 002c 0091     		str	r1, [sp]
 1887 002e 3068     		ldr	r0, [r6]
 1888 0030 4FF4A871 		mov	r1, #336
 1889 0034 FFF7FEFF 		bl	chThdCreateStatic
 1890              	.LVL203:
 1891 0038 40F20004 		movw	r4, #:lower16:threads
 1892              		.loc 1 541 0
 1893 003c 7368     		ldr	r3, [r6, #4]
 1894 003e 40F20001 		movw	r1, #:lower16:.LC1
 1895              		.loc 1 540 0
 1896 0042 C0F20004 		movt	r4, #:upper16:threads
 1897              		.loc 1 541 0
 1898 0046 C0F20001 		movt	r1, #:upper16:.LC1
 1899              		.loc 1 540 0
 1900 004a 2060     		str	r0, [r4]
 1901              		.loc 1 541 0
 1902 004c BA1C     		adds	r2, r7, #2
 1903 004e 0091     		str	r1, [sp]
 1904 0050 1846     		mov	r0, r3
 1905 0052 4FF4A871 		mov	r1, #336
 1906 0056 2B46     		mov	r3, r5
 1907 0058 FFF7FEFF 		bl	chThdCreateStatic
 1908              	.LVL204:
 1909              		.loc 1 542 0
 1910 005c B368     		ldr	r3, [r6, #8]
 1911 005e 40F20001 		movw	r1, #:lower16:.LC2
 1912 0062 C0F20001 		movt	r1, #:upper16:.LC2
 1913              		.loc 1 541 0
 1914 0066 6060     		str	r0, [r4, #4]
 1915              		.loc 1 542 0
 1916 0068 FA1C     		adds	r2, r7, #3
 1917 006a 0091     		str	r1, [sp]
 1918 006c 1846     		mov	r0, r3
 1919 006e 4FF4A871 		mov	r1, #336
 1920 0072 2B46     		mov	r3, r5
 1921 0074 FFF7FEFF 		bl	chThdCreateStatic
 1922              	.LVL205:
 1923              		.loc 1 543 0
 1924 0078 F368     		ldr	r3, [r6, #12]
 1925 007a 40F20001 		movw	r1, #:lower16:.LC3
 1926 007e C0F20001 		movt	r1, #:upper16:.LC3
 1927              		.loc 1 542 0
 1928 0082 A060     		str	r0, [r4, #8]
 1929              		.loc 1 543 0
 1930 0084 3A1D     		adds	r2, r7, #4
 1931 0086 0091     		str	r1, [sp]
 1932 0088 1846     		mov	r0, r3
 1933 008a 4FF4A871 		mov	r1, #336
 1934 008e 2B46     		mov	r3, r5
 1935 0090 FFF7FEFF 		bl	chThdCreateStatic
 1936              	.LVL206:
 1937              		.loc 1 544 0
 1938 0094 3369     		ldr	r3, [r6, #16]
ARM GAS  /tmp/ccPjLiMW.s 			page 35


 1939 0096 40F20001 		movw	r1, #:lower16:.LC4
 1940 009a C0F20001 		movt	r1, #:upper16:.LC4
 1941 009e 7A1D     		adds	r2, r7, #5
 1942              		.loc 1 543 0
 1943 00a0 E060     		str	r0, [r4, #12]
 1944              		.loc 1 544 0
 1945 00a2 0091     		str	r1, [sp]
 1946 00a4 1846     		mov	r0, r3
 1947 00a6 4FF4A871 		mov	r1, #336
 1948 00aa 2B46     		mov	r3, r5
 1949 00ac FFF7FEFF 		bl	chThdCreateStatic
 1950              	.LVL207:
 1951 00b0 2061     		str	r0, [r4, #16]
 1952              		.loc 1 545 0
 1953 00b2 40F20000 		movw	r0, #:lower16:.LANCHOR2
 1954 00b6 C0F20000 		movt	r0, #:upper16:.LANCHOR2
 1955 00ba FFF7FEFF 		bl	chCondBroadcast
 1956              	.LVL208:
 1957              		.loc 1 546 0
 1958 00be FFF7FEFF 		bl	test_wait_threads
 1959              	.LVL209:
 1960              		.loc 1 547 0
 1961 00c2 40F20001 		movw	r1, #:lower16:.LC5
 1962 00c6 C0F20001 		movt	r1, #:upper16:.LC5
 1963 00ca 0120     		movs	r0, #1
 1964              		.loc 1 548 0
 1965 00cc 03B0     		add	sp, sp, #12
 1966              		@ sp needed
 1967 00ce BDE8F040 		pop	{r4, r5, r6, r7, lr}
 1968              	.LVL210:
 1969              		.loc 1 547 0
 1970 00d2 FFF7FEBF 		b	_test_assert_sequence
 1971              	.LVL211:
 1972              		.cfi_endproc
 1973              	.LFE32:
 1974              		.size	mtx7_execute, .-mtx7_execute
 1975 00d6 00BF     		.section	.text.mtx8_execute,"ax",%progbits
 1976              		.align	2
 1977              		.thumb
 1978              		.thumb_func
 1979              		.type	mtx8_execute, %function
 1980              	mtx8_execute:
 1981              	.LFB36:
 1982              		.loc 1 596 0
 1983              		.cfi_startproc
 1984              		@ args = 0, pretend = 0, frame = 0
 1985              		@ frame_needed = 0, uses_anonymous_args = 0
 1986 0000 F0B5     		push	{r4, r5, r6, r7, lr}
 1987              		.cfi_def_cfa_offset 20
 1988              		.cfi_offset 4, -20
 1989              		.cfi_offset 5, -16
 1990              		.cfi_offset 6, -12
 1991              		.cfi_offset 7, -8
 1992              		.cfi_offset 14, -4
 1993              		.loc 1 598 0
 1994 0002 40F20003 		movw	r3, #:lower16:rlist
 1995 0006 C0F20003 		movt	r3, #:upper16:rlist
ARM GAS  /tmp/ccPjLiMW.s 			page 36


 1996 000a 9B69     		ldr	r3, [r3, #24]
 1997              		.loc 1 599 0
 1998 000c 40F20005 		movw	r5, #:lower16:wa
 1999              		.loc 1 598 0
 2000 0010 9E68     		ldr	r6, [r3, #8]
 2001              	.LVL212:
 2002              		.loc 1 599 0
 2003 0012 40F20001 		movw	r1, #:lower16:.LC4
 2004              		.loc 1 596 0
 2005 0016 83B0     		sub	sp, sp, #12
 2006              		.cfi_def_cfa_offset 32
 2007              		.loc 1 599 0
 2008 0018 C0F20005 		movt	r5, #:upper16:wa
 2009 001c C0F20001 		movt	r1, #:upper16:.LC4
 2010 0020 40F20003 		movw	r3, #:lower16:thread11
 2011 0024 721C     		adds	r2, r6, #1
 2012 0026 0091     		str	r1, [sp]
 2013 0028 2868     		ldr	r0, [r5]
 2014 002a C0F20003 		movt	r3, #:upper16:thread11
 2015 002e 4FF4A871 		mov	r1, #336
 2016 0032 FFF7FEFF 		bl	chThdCreateStatic
 2017              	.LVL213:
 2018 0036 40F20004 		movw	r4, #:lower16:threads
 2019              		.loc 1 600 0
 2020 003a 6F68     		ldr	r7, [r5, #4]
 2021 003c 40F20001 		movw	r1, #:lower16:.LC2
 2022              		.loc 1 599 0
 2023 0040 C0F20004 		movt	r4, #:upper16:threads
 2024              		.loc 1 600 0
 2025 0044 C0F20001 		movt	r1, #:upper16:.LC2
 2026 0048 40F20003 		movw	r3, #:lower16:thread10
 2027              		.loc 1 599 0
 2028 004c 2060     		str	r0, [r4]
 2029              		.loc 1 600 0
 2030 004e B21C     		adds	r2, r6, #2
 2031 0050 0091     		str	r1, [sp]
 2032 0052 3846     		mov	r0, r7
 2033 0054 C0F20003 		movt	r3, #:upper16:thread10
 2034 0058 4FF4A871 		mov	r1, #336
 2035 005c FFF7FEFF 		bl	chThdCreateStatic
 2036              	.LVL214:
 2037              		.loc 1 601 0
 2038 0060 AD68     		ldr	r5, [r5, #8]
 2039 0062 40F20001 		movw	r1, #:lower16:.LC3
 2040 0066 C0F20001 		movt	r1, #:upper16:.LC3
 2041 006a 40F20003 		movw	r3, #:lower16:thread12
 2042 006e F21C     		adds	r2, r6, #3
 2043 0070 C0F20003 		movt	r3, #:upper16:thread12
 2044              		.loc 1 600 0
 2045 0074 6060     		str	r0, [r4, #4]
 2046              		.loc 1 601 0
 2047 0076 0091     		str	r1, [sp]
 2048 0078 2846     		mov	r0, r5
 2049 007a 4FF4A871 		mov	r1, #336
 2050 007e FFF7FEFF 		bl	chThdCreateStatic
 2051              	.LVL215:
 2052              		.loc 1 602 0
ARM GAS  /tmp/ccPjLiMW.s 			page 37


 2053 0082 40F20005 		movw	r5, #:lower16:.LANCHOR2
 2054 0086 C0F20005 		movt	r5, #:upper16:.LANCHOR2
 2055              		.loc 1 601 0
 2056 008a A060     		str	r0, [r4, #8]
 2057              		.loc 1 602 0
 2058 008c 2846     		mov	r0, r5
 2059 008e FFF7FEFF 		bl	chCondSignal
 2060              	.LVL216:
 2061              		.loc 1 603 0
 2062 0092 2846     		mov	r0, r5
 2063 0094 FFF7FEFF 		bl	chCondSignal
 2064              	.LVL217:
 2065              		.loc 1 604 0
 2066 0098 FFF7FEFF 		bl	test_wait_threads
 2067              	.LVL218:
 2068              		.loc 1 605 0
 2069 009c 40F20001 		movw	r1, #:lower16:.LC6
 2070 00a0 C0F20001 		movt	r1, #:upper16:.LC6
 2071 00a4 0120     		movs	r0, #1
 2072              		.loc 1 606 0
 2073 00a6 03B0     		add	sp, sp, #12
 2074              		@ sp needed
 2075 00a8 BDE8F040 		pop	{r4, r5, r6, r7, lr}
 2076              	.LVL219:
 2077              		.loc 1 605 0
 2078 00ac FFF7FEBF 		b	_test_assert_sequence
 2079              	.LVL220:
 2080              		.cfi_endproc
 2081              	.LFE36:
 2082              		.size	mtx8_execute, .-mtx8_execute
 2083              		.section	.text.thread11,"ax",%progbits
 2084              		.align	2
 2085              		.thumb
 2086              		.thumb_func
 2087              		.type	thread11, %function
 2088              	thread11:
 2089              	.LFB34:
 2090              		.loc 1 573 0
 2091              		.cfi_startproc
 2092              		@ args = 0, pretend = 0, frame = 0
 2093              		@ frame_needed = 0, uses_anonymous_args = 0
 2094              	.LVL221:
 2095 0000 10B5     		push	{r4, lr}
 2096              		.cfi_def_cfa_offset 8
 2097              		.cfi_offset 4, -8
 2098              		.cfi_offset 14, -4
 2099              		.loc 1 573 0
 2100 0002 0446     		mov	r4, r0
 2101              		.loc 1 575 0
 2102 0004 40F20000 		movw	r0, #:lower16:.LANCHOR1
 2103              	.LVL222:
 2104 0008 C0F20000 		movt	r0, #:upper16:.LANCHOR1
 2105 000c FFF7FEFF 		bl	chMtxLock
 2106              	.LVL223:
 2107              		.loc 1 576 0
 2108 0010 40F20000 		movw	r0, #:lower16:.LANCHOR0
 2109 0014 C0F20000 		movt	r0, #:upper16:.LANCHOR0
ARM GAS  /tmp/ccPjLiMW.s 			page 38


 2110 0018 FFF7FEFF 		bl	chMtxLock
 2111              	.LVL224:
 2112              		.loc 1 578 0
 2113 001c 40F20000 		movw	r0, #:lower16:.LANCHOR2
 2114 0020 4FF0FF31 		mov	r1, #-1
 2115 0024 C0F20000 		movt	r0, #:upper16:.LANCHOR2
 2116 0028 FFF7FEFF 		bl	chCondWaitTimeout
 2117              	.LVL225:
 2118              		.loc 1 582 0
 2119 002c 2078     		ldrb	r0, [r4]	@ zero_extendqisi2
 2120 002e FFF7FEFF 		bl	test_emit_token
 2121              	.LVL226:
 2122              		.loc 1 583 0
 2123 0032 FFF7FEFF 		bl	chMtxUnlock
 2124              	.LVL227:
 2125              		.loc 1 584 0
 2126 0036 FFF7FEFF 		bl	chMtxUnlock
 2127              	.LVL228:
 2128              		.loc 1 586 0
 2129 003a 0020     		movs	r0, #0
 2130 003c 10BD     		pop	{r4, pc}
 2131              		.cfi_endproc
 2132              	.LFE34:
 2133              		.size	thread11, .-thread11
 2134              		.global	patternmtx
 2135              		.global	testmtx8
 2136              		.global	testmtx7
 2137              		.global	testmtx6
 2138              		.global	testmtx5
 2139              		.global	testmtx4
 2140              		.global	testmtx3
 2141              		.global	testmtx2
 2142              		.global	testmtx1
 2143 003e 00BF     		.section	.rodata.testmtx5,"a",%progbits
 2144              		.align	2
 2145              		.type	testmtx5, %object
 2146              		.size	testmtx5, 16
 2147              	testmtx5:
 2148 0000 64000000 		.word	.LC10
 2149 0004 00000000 		.word	mtx5_setup
 2150 0008 00000000 		.word	0
 2151 000c 00000000 		.word	mtx5_execute
 2152              		.section	.rodata.testmtx6,"a",%progbits
 2153              		.align	2
 2154              		.type	testmtx6, %object
 2155              		.size	testmtx6, 16
 2156              	testmtx6:
 2157 0000 4C000000 		.word	.LC9
 2158 0004 00000000 		.word	mtx6_setup
 2159 0008 00000000 		.word	0
 2160 000c 00000000 		.word	mtx6_execute
 2161              		.section	.rodata.testmtx7,"a",%progbits
 2162              		.align	2
 2163              		.type	testmtx7, %object
 2164              		.size	testmtx7, 16
 2165              	testmtx7:
 2166 0000 34000000 		.word	.LC8
ARM GAS  /tmp/ccPjLiMW.s 			page 39


 2167 0004 00000000 		.word	mtx7_setup
 2168 0008 00000000 		.word	0
 2169 000c 00000000 		.word	mtx7_execute
 2170              		.section	.rodata.testmtx8,"a",%progbits
 2171              		.align	2
 2172              		.type	testmtx8, %object
 2173              		.size	testmtx8, 16
 2174              	testmtx8:
 2175 0000 20000000 		.word	.LC7
 2176 0004 00000000 		.word	mtx8_setup
 2177 0008 00000000 		.word	0
 2178 000c 00000000 		.word	mtx8_execute
 2179              		.section	.data.m1,"aw",%progbits
 2180              		.align	2
 2181              		.set	.LANCHOR0,. + 0
 2182              		.type	m1, %object
 2183              		.size	m1, 16
 2184              	m1:
 2185 0000 00000000 		.word	m1
 2186 0004 00000000 		.word	m1
 2187 0008 00000000 		.word	0
 2188 000c 00000000 		.word	0
 2189              		.section	.data.m2,"aw",%progbits
 2190              		.align	2
 2191              		.set	.LANCHOR1,. + 0
 2192              		.type	m2, %object
 2193              		.size	m2, 16
 2194              	m2:
 2195 0000 00000000 		.word	m2
 2196 0004 00000000 		.word	m2
 2197 0008 00000000 		.word	0
 2198 000c 00000000 		.word	0
 2199              		.section	.rodata.str1.4,"aMS",%progbits,1
 2200              		.align	2
 2201              	.LC0:
 2202 0000 4500     		.ascii	"E\000"
 2203 0002 0000     		.space	2
 2204              	.LC1:
 2205 0004 4400     		.ascii	"D\000"
 2206 0006 0000     		.space	2
 2207              	.LC2:
 2208 0008 4300     		.ascii	"C\000"
 2209 000a 0000     		.space	2
 2210              	.LC3:
 2211 000c 4200     		.ascii	"B\000"
 2212 000e 0000     		.space	2
 2213              	.LC4:
 2214 0010 4100     		.ascii	"A\000"
 2215 0012 0000     		.space	2
 2216              	.LC5:
 2217 0014 41424344 		.ascii	"ABCDE\000"
 2217      4500
 2218 001a 0000     		.space	2
 2219              	.LC6:
 2220 001c 41424300 		.ascii	"ABC\000"
 2221              	.LC7:
 2222 0020 436F6E64 		.ascii	"CondVar, boost test\000"
ARM GAS  /tmp/ccPjLiMW.s 			page 40


 2222      5661722C 
 2222      20626F6F 
 2222      73742074 
 2222      65737400 
 2223              	.LC8:
 2224 0034 436F6E64 		.ascii	"CondVar, broadcast test\000"
 2224      5661722C 
 2224      2062726F 
 2224      61646361 
 2224      73742074 
 2225              	.LC9:
 2226 004c 436F6E64 		.ascii	"CondVar, signal test\000"
 2226      5661722C 
 2226      20736967 
 2226      6E616C20 
 2226      74657374 
 2227 0061 000000   		.space	3
 2228              	.LC10:
 2229 0064 4D757465 		.ascii	"Mutexes, status\000"
 2229      7865732C 
 2229      20737461 
 2229      74757300 
 2230              	.LC11:
 2231 0074 4D757465 		.ascii	"Mutexes, priority return\000"
 2231      7865732C 
 2231      20707269 
 2231      6F726974 
 2231      79207265 
 2232 008d 000000   		.space	3
 2233              	.LC12:
 2234 0090 4D757465 		.ascii	"Mutexes, priority inheritance, complex case\000"
 2234      7865732C 
 2234      20707269 
 2234      6F726974 
 2234      7920696E 
 2235              	.LC13:
 2236 00bc 4D757465 		.ascii	"Mutexes, priority inheritance, simple case\000"
 2236      7865732C 
 2236      20707269 
 2236      6F726974 
 2236      7920696E 
 2237 00e7 00       		.space	1
 2238              	.LC14:
 2239 00e8 4D757465 		.ascii	"Mutexes, priority enqueuing test\000"
 2239      7865732C 
 2239      20707269 
 2239      6F726974 
 2239      7920656E 
 2240 0109 000000   		.section	.rodata.patternmtx,"a",%progbits
 2241              		.align	2
 2242              		.type	patternmtx, %object
 2243              		.size	patternmtx, 36
 2244              	patternmtx:
 2245 0000 00000000 		.word	testmtx1
 2246 0004 00000000 		.word	testmtx2
 2247 0008 00000000 		.word	testmtx3
 2248 000c 00000000 		.word	testmtx4
ARM GAS  /tmp/ccPjLiMW.s 			page 41


 2249 0010 00000000 		.word	testmtx5
 2250 0014 00000000 		.word	testmtx6
 2251 0018 00000000 		.word	testmtx7
 2252 001c 00000000 		.word	testmtx8
 2253 0020 00000000 		.word	0
 2254              		.section	.data.c1,"aw",%progbits
 2255              		.align	2
 2256              		.set	.LANCHOR2,. + 0
 2257              		.type	c1, %object
 2258              		.size	c1, 8
 2259              	c1:
 2260 0000 00000000 		.word	c1
 2261 0004 00000000 		.word	c1
 2262              		.section	.rodata.testmtx1,"a",%progbits
 2263              		.align	2
 2264              		.type	testmtx1, %object
 2265              		.size	testmtx1, 16
 2266              	testmtx1:
 2267 0000 E8000000 		.word	.LC14
 2268 0004 00000000 		.word	mtx1_setup
 2269 0008 00000000 		.word	0
 2270 000c 00000000 		.word	mtx1_execute
 2271              		.section	.rodata.testmtx2,"a",%progbits
 2272              		.align	2
 2273              		.type	testmtx2, %object
 2274              		.size	testmtx2, 16
 2275              	testmtx2:
 2276 0000 BC000000 		.word	.LC13
 2277 0004 00000000 		.word	mtx2_setup
 2278 0008 00000000 		.word	0
 2279 000c 00000000 		.word	mtx2_execute
 2280              		.section	.rodata.testmtx3,"a",%progbits
 2281              		.align	2
 2282              		.type	testmtx3, %object
 2283              		.size	testmtx3, 16
 2284              	testmtx3:
 2285 0000 90000000 		.word	.LC12
 2286 0004 00000000 		.word	mtx3_setup
 2287 0008 00000000 		.word	0
 2288 000c 00000000 		.word	mtx3_execute
 2289              		.section	.rodata.testmtx4,"a",%progbits
 2290              		.align	2
 2291              		.type	testmtx4, %object
 2292              		.size	testmtx4, 16
 2293              	testmtx4:
 2294 0000 74000000 		.word	.LC11
 2295 0004 00000000 		.word	mtx4_setup
 2296 0008 00000000 		.word	0
 2297 000c 00000000 		.word	mtx4_execute
 2298              		.text
 2299              	.Letext0:
 2300              		.file 2 "/usr/lib/gcc/arm-none-eabi/4.8.2/include/stddef.h"
 2301              		.file 3 "/usr/include/newlib/machine/_default_types.h"
 2302              		.file 4 "/usr/include/newlib/stdint.h"
 2303              		.file 5 "/opt/ChibiOS_2.6.6/os/ports/GCC/ARMCMx/chtypes.h"
 2304              		.file 6 "/opt/ChibiOS_2.6.6/os/kernel/include/chlists.h"
 2305              		.file 7 "/opt/ChibiOS_2.6.6/os/kernel/include/chthreads.h"
ARM GAS  /tmp/ccPjLiMW.s 			page 42


 2306              		.file 8 "/opt/ChibiOS_2.6.6/os/ports/GCC/ARMCMx/chcore_v7m.h"
 2307              		.file 9 "/opt/ChibiOS_2.6.6/os/kernel/include/chvt.h"
 2308              		.file 10 "/opt/ChibiOS_2.6.6/os/kernel/include/chschd.h"
 2309              		.file 11 "/opt/ChibiOS_2.6.6/os/kernel/include/chmtx.h"
 2310              		.file 12 "/opt/ChibiOS_2.6.6/os/kernel/include/chcond.h"
 2311              		.file 13 "/opt/ChibiOS_2.6.6/test/test.h"