ARM GAS  /tmp/ccAAWrMz.s 			page 1


   1              		.syntax unified
   2              		.cpu cortex-m3
   3              		.fpu softvfp
   4              		.eabi_attribute 20, 1
   5              		.eabi_attribute 21, 1
   6              		.eabi_attribute 23, 3
   7              		.eabi_attribute 24, 1
   8              		.eabi_attribute 25, 1
   9              		.eabi_attribute 26, 1
  10              		.eabi_attribute 30, 2
  11              		.eabi_attribute 34, 1
  12              		.eabi_attribute 18, 4
  13              		.thumb
  14              		.file	"testqueues.c"
  15              		.text
  16              	.Ltext0:
  17              		.cfi_sections	.debug_frame
  18              		.section	.text.notify,"ax",%progbits
  19              		.align	2
  20              		.thumb
  21              		.thumb_func
  22              		.type	notify, %function
  23              	notify:
  24              	.LFB7:
  25              		.file 1 "/opt/ChibiOS_2.6.6/test/testqueues.c"
  26              		.loc 1 57 0
  27              		.cfi_startproc
  28              		@ args = 0, pretend = 0, frame = 0
  29              		@ frame_needed = 0, uses_anonymous_args = 0
  30              		@ link register save eliminated.
  31              	.LVL0:
  32 0000 7047     		bx	lr
  33              		.cfi_endproc
  34              	.LFE7:
  35              		.size	notify, .-notify
  36 0002 00BF     		.section	.text.thread1,"ax",%progbits
  37              		.align	2
  38              		.thumb
  39              		.thumb_func
  40              		.type	thread1, %function
  41              	thread1:
  42              	.LFB9:
  43              		.loc 1 83 0
  44              		.cfi_startproc
  45              		@ args = 0, pretend = 0, frame = 0
  46              		@ frame_needed = 0, uses_anonymous_args = 0
  47              	.LVL1:
  48              		.loc 1 83 0
  49 0000 08B5     		push	{r3, lr}
  50              		.cfi_def_cfa_offset 8
  51              		.cfi_offset 3, -8
  52              		.cfi_offset 14, -4
  53              		.loc 1 86 0
  54 0002 40F20000 		movw	r0, #:lower16:.LANCHOR0
  55              	.LVL2:
  56 0006 C821     		movs	r1, #200
  57 0008 C0F20000 		movt	r0, #:upper16:.LANCHOR0
ARM GAS  /tmp/ccAAWrMz.s 			page 2


  58 000c FFF7FEFF 		bl	chIQGetTimeout
  59              	.LVL3:
  60              		.loc 1 88 0
  61 0010 0020     		movs	r0, #0
  62 0012 08BD     		pop	{r3, pc}
  63              		.cfi_endproc
  64              	.LFE9:
  65              		.size	thread1, .-thread1
  66              		.section	.text.queues1_setup,"ax",%progbits
  67              		.align	2
  68              		.thumb
  69              		.thumb_func
  70              		.type	queues1_setup, %function
  71              	queues1_setup:
  72              	.LFB8:
  73              		.loc 1 78 0
  74              		.cfi_startproc
  75              		@ args = 0, pretend = 0, frame = 0
  76              		@ frame_needed = 0, uses_anonymous_args = 0
  77 0000 00B5     		push	{lr}
  78              		.cfi_def_cfa_offset 4
  79              		.cfi_offset 14, -4
  80              		.loc 1 80 0
  81 0002 40F20003 		movw	r3, #:lower16:wa
  82 0006 C0F20003 		movt	r3, #:upper16:wa
  83              		.loc 1 78 0
  84 000a 83B0     		sub	sp, sp, #12
  85              		.cfi_def_cfa_offset 16
  86              		.loc 1 80 0
  87 000c 1968     		ldr	r1, [r3]
  88 000e 0022     		movs	r2, #0
  89 0010 40F20000 		movw	r0, #:lower16:.LANCHOR0
  90 0014 40F20003 		movw	r3, #:lower16:notify
  91 0018 0092     		str	r2, [sp]
  92 001a C0F20000 		movt	r0, #:upper16:.LANCHOR0
  93 001e C0F20003 		movt	r3, #:upper16:notify
  94 0022 0422     		movs	r2, #4
  95 0024 FFF7FEFF 		bl	chIQInit
  96              	.LVL4:
  97              		.loc 1 81 0
  98 0028 03B0     		add	sp, sp, #12
  99              		@ sp needed
 100 002a 5DF804FB 		ldr	pc, [sp], #4
 101              		.cfi_endproc
 102              	.LFE8:
 103              		.size	queues1_setup, .-queues1_setup
 104 002e 00BF     		.section	.text.thread2,"ax",%progbits
 105              		.align	2
 106              		.thumb
 107              		.thumb_func
 108              		.type	thread2, %function
 109              	thread2:
 110              	.LFB12:
 111              		.loc 1 170 0
 112              		.cfi_startproc
 113              		@ args = 0, pretend = 0, frame = 0
 114              		@ frame_needed = 0, uses_anonymous_args = 0
ARM GAS  /tmp/ccAAWrMz.s 			page 3


 115              	.LVL5:
 116 0000 08B5     		push	{r3, lr}
 117              		.cfi_def_cfa_offset 8
 118              		.cfi_offset 3, -8
 119              		.cfi_offset 14, -4
 120              		.loc 1 173 0
 121 0002 40F20000 		movw	r0, #:lower16:.LANCHOR1
 122              	.LVL6:
 123 0006 0021     		movs	r1, #0
 124 0008 C822     		movs	r2, #200
 125 000a C0F20000 		movt	r0, #:upper16:.LANCHOR1
 126 000e FFF7FEFF 		bl	chOQPutTimeout
 127              	.LVL7:
 128              		.loc 1 175 0
 129 0012 0020     		movs	r0, #0
 130 0014 08BD     		pop	{r3, pc}
 131              		.cfi_endproc
 132              	.LFE12:
 133              		.size	thread2, .-thread2
 134 0016 00BF     		.section	.text.queues2_setup,"ax",%progbits
 135              		.align	2
 136              		.thumb
 137              		.thumb_func
 138              		.type	queues2_setup, %function
 139              	queues2_setup:
 140              	.LFB11:
 141              		.loc 1 165 0
 142              		.cfi_startproc
 143              		@ args = 0, pretend = 0, frame = 0
 144              		@ frame_needed = 0, uses_anonymous_args = 0
 145 0000 00B5     		push	{lr}
 146              		.cfi_def_cfa_offset 4
 147              		.cfi_offset 14, -4
 148              		.loc 1 167 0
 149 0002 40F20003 		movw	r3, #:lower16:wa
 150 0006 C0F20003 		movt	r3, #:upper16:wa
 151              		.loc 1 165 0
 152 000a 83B0     		sub	sp, sp, #12
 153              		.cfi_def_cfa_offset 16
 154              		.loc 1 167 0
 155 000c 1968     		ldr	r1, [r3]
 156 000e 0022     		movs	r2, #0
 157 0010 40F20000 		movw	r0, #:lower16:.LANCHOR1
 158 0014 40F20003 		movw	r3, #:lower16:notify
 159 0018 0092     		str	r2, [sp]
 160 001a C0F20000 		movt	r0, #:upper16:.LANCHOR1
 161 001e C0F20003 		movt	r3, #:upper16:notify
 162 0022 0422     		movs	r2, #4
 163 0024 FFF7FEFF 		bl	chOQInit
 164              	.LVL8:
 165              		.loc 1 168 0
 166 0028 03B0     		add	sp, sp, #12
 167              		@ sp needed
 168 002a 5DF804FB 		ldr	pc, [sp], #4
 169              		.cfi_endproc
 170              	.LFE11:
 171              		.size	queues2_setup, .-queues2_setup
ARM GAS  /tmp/ccAAWrMz.s 			page 4


 172 002e 00BF     		.section	.text.queues1_execute,"ax",%progbits
 173              		.align	2
 174              		.thumb
 175              		.thumb_func
 176              		.type	queues1_execute, %function
 177              	queues1_execute:
 178              	.LFB10:
 179              		.loc 1 90 0
 180              		.cfi_startproc
 181              		@ args = 0, pretend = 0, frame = 0
 182              		@ frame_needed = 0, uses_anonymous_args = 0
 183 0000 70B5     		push	{r4, r5, r6, lr}
 184              		.cfi_def_cfa_offset 16
 185              		.cfi_offset 4, -16
 186              		.cfi_offset 5, -12
 187              		.cfi_offset 6, -8
 188              		.cfi_offset 14, -4
 189              	.LBB99:
 190              		.loc 1 95 0
 191 0002 2023     		movs	r3, #32
 192              	.LBE99:
 193              		.loc 1 90 0
 194 0004 82B0     		sub	sp, sp, #8
 195              		.cfi_def_cfa_offset 24
 196              	.LBB100:
 197              		.loc 1 95 0
 198              	@ 95 "/opt/ChibiOS_2.6.6/test/testqueues.c" 1
 199 0006 83F31188 		msr     BASEPRI, r3
 200              	@ 0 "" 2
 201              		.thumb
 202              	.LBE100:
 203 000a 40F20005 		movw	r5, #:lower16:.LANCHOR0
 204 000e C0F20005 		movt	r5, #:upper16:.LANCHOR0
 205 0012 A968     		ldr	r1, [r5, #8]
 206 0014 0120     		movs	r0, #1
 207 0016 D1F10101 		rsbs	r1, r1, #1
 208 001a 38BF     		it	cc
 209 001c 0021     		movcc	r1, #0
 210 001e FFF7FEFF 		bl	_test_assert
 211              	.LVL9:
 212 0022 0646     		mov	r6, r0
 213 0024 28BB     		cbnz	r0, .L27
 214              	.LBB101:
 215              	.LBB102:
 216              	.LBB103:
 217 0026 0346     		mov	r3, r0
 218              	@ 95 "/opt/ChibiOS_2.6.6/test/testqueues.c" 1
 219 0028 83F31188 		msr     BASEPRI, r3
 220              	@ 0 "" 2
 221              		.thumb
 222              	.LBE103:
 223              	.LBB104:
 224              		.loc 1 98 0
 225 002c 2023     		movs	r3, #32
 226              	@ 98 "/opt/ChibiOS_2.6.6/test/testqueues.c" 1
 227 002e 83F31188 		msr     BASEPRI, r3
 228              	@ 0 "" 2
ARM GAS  /tmp/ccAAWrMz.s 			page 5


 229              	.LVL10:
 230              		.thumb
 231 0032 4124     		movs	r4, #65
 232              	.LVL11:
 233              	.L10:
 234              	.LBE104:
 235              		.loc 1 100 0
 236 0034 2146     		mov	r1, r4
 237 0036 40F20000 		movw	r0, #:lower16:.LANCHOR0
 238 003a 0134     		adds	r4, r4, #1
 239 003c C0F20000 		movt	r0, #:upper16:.LANCHOR0
 240 0040 E4B2     		uxtb	r4, r4
 241 0042 FFF7FEFF 		bl	chIQPutI
 242              	.LVL12:
 243              		.loc 1 99 0
 244 0046 452C     		cmp	r4, #69
 245 0048 F4D1     		bne	.L10
 246              	.LBB105:
 247              		.loc 1 101 0
 248 004a 0023     		movs	r3, #0
 249              	@ 101 "/opt/ChibiOS_2.6.6/test/testqueues.c" 1
 250 004c 83F31188 		msr     BASEPRI, r3
 251              	@ 0 "" 2
 252              		.thumb
 253              	.LBE105:
 254              	.LBB106:
 255              		.loc 1 102 0
 256 0050 2023     		movs	r3, #32
 257              	@ 102 "/opt/ChibiOS_2.6.6/test/testqueues.c" 1
 258 0052 83F31188 		msr     BASEPRI, r3
 259              	@ 0 "" 2
 260              		.thumb
 261              	.LBE106:
 262 0056 6969     		ldr	r1, [r5, #20]
 263 0058 AA69     		ldr	r2, [r5, #24]
 264 005a 40F20003 		movw	r3, #:lower16:.LANCHOR0
 265 005e 9142     		cmp	r1, r2
 266 0060 C0F20003 		movt	r3, #:upper16:.LANCHOR0
 267 0064 00F02681 		beq	.L29
 268              	.L11:
 269 0068 3146     		mov	r1, r6
 270 006a 0220     		movs	r0, #2
 271 006c FFF7FEFF 		bl	_test_assert
 272              	.LVL13:
 273 0070 20B1     		cbz	r0, .L12
 274              	.L27:
 275              	.LBB107:
 276              		.loc 1 142 0
 277 0072 0023     		movs	r3, #0
 278              	@ 142 "/opt/ChibiOS_2.6.6/test/testqueues.c" 1
 279 0074 83F31188 		msr     BASEPRI, r3
 280              	@ 0 "" 2
 281              		.thumb
 282              	.L6:
 283              	.LBE107:
 284              	.LBE102:
 285              	.LBE101:
ARM GAS  /tmp/ccAAWrMz.s 			page 6


 286              		.loc 1 147 0
 287 0078 02B0     		add	sp, sp, #8
 288              		@ sp needed
 289 007a 70BD     		pop	{r4, r5, r6, pc}
 290              	.L12:
 291              	.LBB129:
 292              	.LBB127:
 293              	.LBB108:
 294              		.loc 1 102 0
 295 007c 0346     		mov	r3, r0
 296              	@ 102 "/opt/ChibiOS_2.6.6/test/testqueues.c" 1
 297 007e 83F31188 		msr     BASEPRI, r3
 298              	@ 0 "" 2
 299              		.thumb
 300              	.LBE108:
 301              	.LBB109:
 302              		.loc 1 103 0
 303 0082 2023     		movs	r3, #32
 304              	@ 103 "/opt/ChibiOS_2.6.6/test/testqueues.c" 1
 305 0084 83F31188 		msr     BASEPRI, r3
 306              	@ 0 "" 2
 307              		.thumb
 308              	.LBE109:
 309 0088 40F20000 		movw	r0, #:lower16:.LANCHOR0
 310 008c 0021     		movs	r1, #0
 311 008e C0F20000 		movt	r0, #:upper16:.LANCHOR0
 312 0092 FFF7FEFF 		bl	chIQPutI
 313              	.LVL14:
 314 0096 0430     		adds	r0, r0, #4
 315 0098 14BF     		ite	ne
 316 009a 0021     		movne	r1, #0
 317 009c 0121     		moveq	r1, #1
 318 009e 0320     		movs	r0, #3
 319 00a0 FFF7FEFF 		bl	_test_assert
 320              	.LVL15:
 321 00a4 0028     		cmp	r0, #0
 322 00a6 E4D1     		bne	.L27
 323              	.LBB110:
 324 00a8 0346     		mov	r3, r0
 325              	@ 103 "/opt/ChibiOS_2.6.6/test/testqueues.c" 1
 326 00aa 83F31188 		msr     BASEPRI, r3
 327              	@ 0 "" 2
 328              	.LVL16:
 329              		.thumb
 330 00ae 0424     		movs	r4, #4
 331              	.LVL17:
 332              	.L15:
 333              	.LBE110:
 334              		.loc 1 107 0
 335 00b0 40F20000 		movw	r0, #:lower16:.LANCHOR0
 336 00b4 4FF0FF31 		mov	r1, #-1
 337 00b8 C0F20000 		movt	r0, #:upper16:.LANCHOR0
 338 00bc FFF7FEFF 		bl	chIQGetTimeout
 339              	.LVL18:
 340 00c0 C0B2     		uxtb	r0, r0
 341 00c2 FFF7FEFF 		bl	test_emit_token
 342              	.LVL19:
ARM GAS  /tmp/ccAAWrMz.s 			page 7


 343              		.loc 1 106 0
 344 00c6 013C     		subs	r4, r4, #1
 345              	.LVL20:
 346 00c8 F2D1     		bne	.L15
 347              	.LBB111:
 348              		.loc 1 108 0
 349 00ca 2023     		movs	r3, #32
 350              	@ 108 "/opt/ChibiOS_2.6.6/test/testqueues.c" 1
 351 00cc 83F31188 		msr     BASEPRI, r3
 352              	@ 0 "" 2
 353              		.thumb
 354              	.LBE111:
 355 00d0 A968     		ldr	r1, [r5, #8]
 356 00d2 0420     		movs	r0, #4
 357 00d4 D1F10101 		rsbs	r1, r1, #1
 358 00d8 38BF     		it	cc
 359 00da 0021     		movcc	r1, #0
 360 00dc FFF7FEFF 		bl	_test_assert
 361              	.LVL21:
 362 00e0 0028     		cmp	r0, #0
 363 00e2 C6D1     		bne	.L27
 364              	.LBB112:
 365 00e4 0346     		mov	r3, r0
 366              	@ 108 "/opt/ChibiOS_2.6.6/test/testqueues.c" 1
 367 00e6 83F31188 		msr     BASEPRI, r3
 368              	@ 0 "" 2
 369              		.thumb
 370              	.LBE112:
 371              		.loc 1 109 0
 372 00ea 40F20001 		movw	r1, #:lower16:.LC0
 373 00ee C0F20001 		movt	r1, #:upper16:.LC0
 374 00f2 0520     		movs	r0, #5
 375 00f4 FFF7FEFF 		bl	_test_assert_sequence
 376              	.LVL22:
 377 00f8 0028     		cmp	r0, #0
 378 00fa BDD1     		bne	.L6
 379              	.LBB113:
 380              		.loc 1 112 0
 381 00fc 2023     		movs	r3, #32
 382              	@ 112 "/opt/ChibiOS_2.6.6/test/testqueues.c" 1
 383 00fe 83F31188 		msr     BASEPRI, r3
 384              	@ 0 "" 2
 385              	.LVL23:
 386              		.thumb
 387 0102 4124     		movs	r4, #65
 388              	.LVL24:
 389              	.L19:
 390              	.LBE113:
 391              		.loc 1 114 0
 392 0104 2146     		mov	r1, r4
 393 0106 40F20000 		movw	r0, #:lower16:.LANCHOR0
 394 010a 0134     		adds	r4, r4, #1
 395 010c C0F20000 		movt	r0, #:upper16:.LANCHOR0
 396 0110 E4B2     		uxtb	r4, r4
 397 0112 FFF7FEFF 		bl	chIQPutI
 398              	.LVL25:
 399              		.loc 1 113 0
ARM GAS  /tmp/ccAAWrMz.s 			page 8


 400 0116 452C     		cmp	r4, #69
 401 0118 F4D1     		bne	.L19
 402              	.LBB114:
 403              		.loc 1 115 0
 404 011a 0023     		movs	r3, #0
 405              	@ 115 "/opt/ChibiOS_2.6.6/test/testqueues.c" 1
 406 011c 83F31188 		msr     BASEPRI, r3
 407              	@ 0 "" 2
 408              		.thumb
 409              	.LBE114:
 410              		.loc 1 118 0
 411 0120 40F20004 		movw	r4, #:lower16:wa
 412 0124 C0F20004 		movt	r4, #:upper16:wa
 413 0128 40F20000 		movw	r0, #:lower16:.LANCHOR0
 414 012c 6168     		ldr	r1, [r4, #4]
 415 012e C0F20000 		movt	r0, #:upper16:.LANCHOR0
 416 0132 0822     		movs	r2, #8
 417 0134 FFF7FEFF 		bl	chIQReadTimeout
 418              	.LVL26:
 419              		.loc 1 119 0
 420 0138 061F     		subs	r6, r0, #4
 421 013a 7142     		rsbs	r1, r6, #0
 422 013c 7141     		adcs	r1, r1, r6
 423 013e 0620     		movs	r0, #6
 424              	.LVL27:
 425 0140 FFF7FEFF 		bl	_test_assert
 426              	.LVL28:
 427 0144 0028     		cmp	r0, #0
 428 0146 97D1     		bne	.L6
 429              	.LBB115:
 430              		.loc 1 120 0
 431 0148 2023     		movs	r3, #32
 432              	@ 120 "/opt/ChibiOS_2.6.6/test/testqueues.c" 1
 433 014a 83F31188 		msr     BASEPRI, r3
 434              	@ 0 "" 2
 435              		.thumb
 436              	.LBE115:
 437 014e A968     		ldr	r1, [r5, #8]
 438 0150 0720     		movs	r0, #7
 439 0152 D1F10101 		rsbs	r1, r1, #1
 440 0156 38BF     		it	cc
 441 0158 0021     		movcc	r1, #0
 442 015a FFF7FEFF 		bl	_test_assert
 443              	.LVL29:
 444 015e 0028     		cmp	r0, #0
 445 0160 87D1     		bne	.L27
 446              	.LBB116:
 447 0162 0346     		mov	r3, r0
 448              	@ 120 "/opt/ChibiOS_2.6.6/test/testqueues.c" 1
 449 0164 83F31188 		msr     BASEPRI, r3
 450              	@ 0 "" 2
 451              		.thumb
 452              	.LBE116:
 453              	.LBB117:
 454              		.loc 1 123 0
 455 0168 2023     		movs	r3, #32
 456              	@ 123 "/opt/ChibiOS_2.6.6/test/testqueues.c" 1
ARM GAS  /tmp/ccAAWrMz.s 			page 9


 457 016a 83F31188 		msr     BASEPRI, r3
 458              	@ 0 "" 2
 459              	.LVL30:
 460              		.thumb
 461 016e 4126     		movs	r6, #65
 462              	.LVL31:
 463              	.L23:
 464              	.LBE117:
 465              		.loc 1 125 0
 466 0170 3146     		mov	r1, r6
 467 0172 40F20000 		movw	r0, #:lower16:.LANCHOR0
 468 0176 0136     		adds	r6, r6, #1
 469 0178 C0F20000 		movt	r0, #:upper16:.LANCHOR0
 470 017c F6B2     		uxtb	r6, r6
 471 017e FFF7FEFF 		bl	chIQPutI
 472              	.LVL32:
 473              		.loc 1 124 0
 474 0182 452E     		cmp	r6, #69
 475 0184 F4D1     		bne	.L23
 476              	.LBB118:
 477              		.loc 1 126 0
 478 0186 0023     		movs	r3, #0
 479              	@ 126 "/opt/ChibiOS_2.6.6/test/testqueues.c" 1
 480 0188 83F31188 		msr     BASEPRI, r3
 481              	@ 0 "" 2
 482              		.thumb
 483              	.LBE118:
 484              		.loc 1 129 0
 485 018c 6668     		ldr	r6, [r4, #4]
 486 018e 40F20000 		movw	r0, #:lower16:.LANCHOR0
 487 0192 3146     		mov	r1, r6
 488 0194 0222     		movs	r2, #2
 489 0196 C0F20000 		movt	r0, #:upper16:.LANCHOR0
 490 019a FFF7FEFF 		bl	chIQReadTimeout
 491              	.LVL33:
 492              		.loc 1 130 0
 493 019e 0238     		subs	r0, r0, #2
 494              	.LVL34:
 495 01a0 4142     		rsbs	r1, r0, #0
 496 01a2 4141     		adcs	r1, r1, r0
 497 01a4 0820     		movs	r0, #8
 498              	.LVL35:
 499 01a6 FFF7FEFF 		bl	_test_assert
 500              	.LVL36:
 501 01aa 0346     		mov	r3, r0
 502 01ac 0028     		cmp	r0, #0
 503 01ae 7FF463AF 		bne	.L6
 504              		.loc 1 131 0
 505 01b2 40F20000 		movw	r0, #:lower16:.LANCHOR0
 506 01b6 3146     		mov	r1, r6
 507 01b8 0222     		movs	r2, #2
 508 01ba C0F20000 		movt	r0, #:upper16:.LANCHOR0
 509 01be FFF7FEFF 		bl	chIQReadTimeout
 510              	.LVL37:
 511              		.loc 1 132 0
 512 01c2 821E     		subs	r2, r0, #2
 513 01c4 5142     		rsbs	r1, r2, #0
ARM GAS  /tmp/ccAAWrMz.s 			page 10


 514 01c6 5141     		adcs	r1, r1, r2
 515 01c8 0920     		movs	r0, #9
 516              	.LVL38:
 517 01ca FFF7FEFF 		bl	_test_assert
 518              	.LVL39:
 519 01ce 0028     		cmp	r0, #0
 520 01d0 7FF452AF 		bne	.L6
 521              	.LBB119:
 522              		.loc 1 133 0
 523 01d4 2023     		movs	r3, #32
 524              	@ 133 "/opt/ChibiOS_2.6.6/test/testqueues.c" 1
 525 01d6 83F31188 		msr     BASEPRI, r3
 526              	@ 0 "" 2
 527              		.thumb
 528              	.LBE119:
 529 01da A968     		ldr	r1, [r5, #8]
 530 01dc 0A20     		movs	r0, #10
 531 01de D1F10101 		rsbs	r1, r1, #1
 532 01e2 38BF     		it	cc
 533 01e4 0021     		movcc	r1, #0
 534 01e6 FFF7FEFF 		bl	_test_assert
 535              	.LVL40:
 536 01ea 0346     		mov	r3, r0
 537 01ec 0028     		cmp	r0, #0
 538 01ee 7FF440AF 		bne	.L27
 539              	.LBB120:
 540              	@ 133 "/opt/ChibiOS_2.6.6/test/testqueues.c" 1
 541 01f2 83F31188 		msr     BASEPRI, r3
 542              	@ 0 "" 2
 543              		.thumb
 544              	.LBE120:
 545              	.LBB121:
 546              		.loc 1 136 0
 547 01f6 2023     		movs	r3, #32
 548              	@ 136 "/opt/ChibiOS_2.6.6/test/testqueues.c" 1
 549 01f8 83F31188 		msr     BASEPRI, r3
 550              	@ 0 "" 2
 551              		.thumb
 552              	.LBE121:
 553              		.loc 1 137 0
 554 01fc 40F20000 		movw	r0, #:lower16:.LANCHOR0
 555 0200 0021     		movs	r1, #0
 556 0202 C0F20000 		movt	r0, #:upper16:.LANCHOR0
 557 0206 FFF7FEFF 		bl	chIQPutI
 558              	.LVL41:
 559              		.loc 1 138 0
 560 020a 40F20000 		movw	r0, #:lower16:.LANCHOR0
 561 020e C0F20000 		movt	r0, #:upper16:.LANCHOR0
 562 0212 FFF7FEFF 		bl	chIQResetI
 563              	.LVL42:
 564              	.LBB122:
 565              		.loc 1 139 0
 566 0216 0023     		movs	r3, #0
 567              	@ 139 "/opt/ChibiOS_2.6.6/test/testqueues.c" 1
 568 0218 83F31188 		msr     BASEPRI, r3
 569              	@ 0 "" 2
 570              		.thumb
ARM GAS  /tmp/ccAAWrMz.s 			page 11


 571              	.LBE122:
 572              	.LBB123:
 573              		.loc 1 140 0
 574 021c 2023     		movs	r3, #32
 575              	@ 140 "/opt/ChibiOS_2.6.6/test/testqueues.c" 1
 576 021e 83F31188 		msr     BASEPRI, r3
 577              	@ 0 "" 2
 578              		.thumb
 579              	.LBE123:
 580 0222 A968     		ldr	r1, [r5, #8]
 581 0224 0B20     		movs	r0, #11
 582 0226 D1F10101 		rsbs	r1, r1, #1
 583 022a 38BF     		it	cc
 584 022c 0021     		movcc	r1, #0
 585 022e FFF7FEFF 		bl	_test_assert
 586              	.LVL43:
 587 0232 0346     		mov	r3, r0
 588 0234 0028     		cmp	r0, #0
 589 0236 7FF41CAF 		bne	.L27
 590              	.LBB124:
 591              	@ 140 "/opt/ChibiOS_2.6.6/test/testqueues.c" 1
 592 023a 83F31188 		msr     BASEPRI, r3
 593              	@ 0 "" 2
 594              		.thumb
 595              	.LBE124:
 596              		.loc 1 141 0
 597 023e 40F20003 		movw	r3, #:lower16:rlist
 598 0242 C0F20003 		movt	r3, #:upper16:rlist
 599 0246 9B69     		ldr	r3, [r3, #24]
 600 0248 0021     		movs	r1, #0
 601 024a 9A68     		ldr	r2, [r3, #8]
 602 024c 40F20003 		movw	r3, #:lower16:thread1
 603 0250 0091     		str	r1, [sp]
 604 0252 2068     		ldr	r0, [r4]
 605 0254 0132     		adds	r2, r2, #1
 606 0256 C0F20003 		movt	r3, #:upper16:thread1
 607 025a 4FF4A871 		mov	r1, #336
 608 025e FFF7FEFF 		bl	chThdCreateStatic
 609              	.LVL44:
 610 0262 40F20003 		movw	r3, #:lower16:threads
 611 0266 C0F20003 		movt	r3, #:upper16:threads
 612 026a 1860     		str	r0, [r3]
 613              	.LBB125:
 614              		.loc 1 142 0
 615 026c 2023     		movs	r3, #32
 616              	@ 142 "/opt/ChibiOS_2.6.6/test/testqueues.c" 1
 617 026e 83F31188 		msr     BASEPRI, r3
 618              	@ 0 "" 2
 619              		.thumb
 620              	.LBE125:
 621 0272 A968     		ldr	r1, [r5, #8]
 622 0274 0C20     		movs	r0, #12
 623 0276 D1F10101 		rsbs	r1, r1, #1
 624 027a 38BF     		it	cc
 625 027c 0021     		movcc	r1, #0
 626 027e FFF7FEFF 		bl	_test_assert
 627              	.LVL45:
ARM GAS  /tmp/ccAAWrMz.s 			page 12


 628 0282 0346     		mov	r3, r0
 629 0284 0028     		cmp	r0, #0
 630 0286 7FF4F4AE 		bne	.L27
 631              	.LBB126:
 632              	@ 142 "/opt/ChibiOS_2.6.6/test/testqueues.c" 1
 633 028a 83F31188 		msr     BASEPRI, r3
 634              	@ 0 "" 2
 635              		.thumb
 636              	.LBE126:
 637              		.loc 1 143 0
 638 028e FFF7FEFF 		bl	test_wait_threads
 639              	.LVL46:
 640              		.loc 1 146 0
 641 0292 40F20000 		movw	r0, #:lower16:.LANCHOR0
 642 0296 0A21     		movs	r1, #10
 643 0298 C0F20000 		movt	r0, #:upper16:.LANCHOR0
 644 029c FFF7FEFF 		bl	chIQGetTimeout
 645              	.LVL47:
 646 02a0 B0F1FF33 		subs	r3, r0, #-1
 647 02a4 5942     		rsbs	r1, r3, #0
 648 02a6 5941     		adcs	r1, r1, r3
 649 02a8 0D20     		movs	r0, #13
 650              	.LBE127:
 651              	.LBE129:
 652              		.loc 1 147 0
 653 02aa 02B0     		add	sp, sp, #8
 654              		@ sp needed
 655 02ac BDE87040 		pop	{r4, r5, r6, lr}
 656              	.LBB130:
 657              	.LBB128:
 658              		.loc 1 146 0
 659 02b0 FFF7FEBF 		b	_test_assert
 660              	.LVL48:
 661              	.L29:
 662              		.loc 1 102 0
 663 02b4 9E68     		ldr	r6, [r3, #8]
 664 02b6 0036     		adds	r6, r6, #0
 665 02b8 18BF     		it	ne
 666 02ba 0126     		movne	r6, #1
 667 02bc D4E6     		b	.L11
 668              	.LBE128:
 669              	.LBE130:
 670              		.cfi_endproc
 671              	.LFE10:
 672              		.size	queues1_execute, .-queues1_execute
 673 02be 00BF     		.section	.text.queues2_execute,"ax",%progbits
 674              		.align	2
 675              		.thumb
 676              		.thumb_func
 677              		.type	queues2_execute, %function
 678              	queues2_execute:
 679              	.LFB13:
 680              		.loc 1 177 0
 681              		.cfi_startproc
 682              		@ args = 0, pretend = 0, frame = 0
 683              		@ frame_needed = 0, uses_anonymous_args = 0
 684 0000 70B5     		push	{r4, r5, r6, lr}
ARM GAS  /tmp/ccAAWrMz.s 			page 13


 685              		.cfi_def_cfa_offset 16
 686              		.cfi_offset 4, -16
 687              		.cfi_offset 5, -12
 688              		.cfi_offset 6, -8
 689              		.cfi_offset 14, -4
 690              	.LBB164:
 691              		.loc 1 182 0
 692 0002 2023     		movs	r3, #32
 693              	.LBE164:
 694              		.loc 1 177 0
 695 0004 82B0     		sub	sp, sp, #8
 696              		.cfi_def_cfa_offset 24
 697              	.LBB165:
 698              		.loc 1 182 0
 699              	@ 182 "/opt/ChibiOS_2.6.6/test/testqueues.c" 1
 700 0006 83F31188 		msr     BASEPRI, r3
 701              	@ 0 "" 2
 702              		.thumb
 703              	.LBE165:
 704 000a 40F20005 		movw	r5, #:lower16:.LANCHOR1
 705 000e C0F20005 		movt	r5, #:upper16:.LANCHOR1
 706 0012 6A69     		ldr	r2, [r5, #20]
 707 0014 AB69     		ldr	r3, [r5, #24]
 708 0016 9A42     		cmp	r2, r3
 709 0018 18BF     		it	ne
 710 001a 0021     		movne	r1, #0
 711 001c 00F01781 		beq	.L50
 712              	.L31:
 713              		.loc 1 182 0 is_stmt 0 discriminator 4
 714 0020 0120     		movs	r0, #1
 715 0022 FFF7FEFF 		bl	_test_assert
 716              	.LVL49:
 717 0026 0028     		cmp	r0, #0
 718 0028 43D1     		bne	.L49
 719              	.LBB166:
 720              	.LBB167:
 721              	.LBB168:
 722              		.loc 1 182 0
 723 002a 0346     		mov	r3, r0
 724              	@ 182 "/opt/ChibiOS_2.6.6/test/testqueues.c" 1
 725 002c 83F31188 		msr     BASEPRI, r3
 726              	@ 0 "" 2
 727              	.LVL50:
 728              		.thumb
 729 0030 4124     		movs	r4, #65
 730              	.LVL51:
 731              	.L35:
 732              	.LBE168:
 733              		.loc 1 186 0 is_stmt 1
 734 0032 2146     		mov	r1, r4
 735 0034 40F20000 		movw	r0, #:lower16:.LANCHOR1
 736 0038 0134     		adds	r4, r4, #1
 737 003a C0F20000 		movt	r0, #:upper16:.LANCHOR1
 738 003e 4FF0FF32 		mov	r2, #-1
 739 0042 E4B2     		uxtb	r4, r4
 740 0044 FFF7FEFF 		bl	chOQPutTimeout
 741              	.LVL52:
ARM GAS  /tmp/ccAAWrMz.s 			page 14


 742              		.loc 1 185 0
 743 0048 452C     		cmp	r4, #69
 744 004a F2D1     		bne	.L35
 745              	.LBB169:
 746              		.loc 1 187 0
 747 004c 2023     		movs	r3, #32
 748              	@ 187 "/opt/ChibiOS_2.6.6/test/testqueues.c" 1
 749 004e 83F31188 		msr     BASEPRI, r3
 750              	@ 0 "" 2
 751              		.thumb
 752              	.LBE169:
 753 0052 A968     		ldr	r1, [r5, #8]
 754 0054 0220     		movs	r0, #2
 755 0056 D1F10101 		rsbs	r1, r1, #1
 756 005a 38BF     		it	cc
 757 005c 0021     		movcc	r1, #0
 758 005e FFF7FEFF 		bl	_test_assert
 759              	.LVL53:
 760 0062 0646     		mov	r6, r0
 761 0064 28BB     		cbnz	r0, .L49
 762              	.LBB170:
 763 0066 0346     		mov	r3, r0
 764              	@ 187 "/opt/ChibiOS_2.6.6/test/testqueues.c" 1
 765 0068 83F31188 		msr     BASEPRI, r3
 766              	@ 0 "" 2
 767              	.LVL54:
 768              		.thumb
 769 006c 0424     		movs	r4, #4
 770              	.LVL55:
 771              	.L38:
 772              	.LBE170:
 773              	.LBB171:
 774              	.LBB172:
 775              		.loc 1 193 0
 776 006e 2023     		movs	r3, #32
 777              	@ 193 "/opt/ChibiOS_2.6.6/test/testqueues.c" 1
 778 0070 83F31188 		msr     BASEPRI, r3
 779              	@ 0 "" 2
 780              		.thumb
 781              	.LBE172:
 782              		.loc 1 194 0
 783 0074 40F20000 		movw	r0, #:lower16:.LANCHOR1
 784 0078 C0F20000 		movt	r0, #:upper16:.LANCHOR1
 785 007c FFF7FEFF 		bl	chOQGetI
 786              	.LVL56:
 787              	.LBB173:
 788              		.loc 1 195 0
 789 0080 0023     		movs	r3, #0
 790              	@ 195 "/opt/ChibiOS_2.6.6/test/testqueues.c" 1
 791 0082 83F31188 		msr     BASEPRI, r3
 792              	@ 0 "" 2
 793              		.thumb
 794              	.LBE173:
 795              		.loc 1 196 0
 796 0086 C0B2     		uxtb	r0, r0
 797              	.LVL57:
 798 0088 FFF7FEFF 		bl	test_emit_token
ARM GAS  /tmp/ccAAWrMz.s 			page 15


 799              	.LVL58:
 800              	.LBE171:
 801              		.loc 1 190 0
 802 008c 013C     		subs	r4, r4, #1
 803              	.LVL59:
 804 008e EED1     		bne	.L38
 805              	.LBB174:
 806              		.loc 1 198 0
 807 0090 2023     		movs	r3, #32
 808              	@ 198 "/opt/ChibiOS_2.6.6/test/testqueues.c" 1
 809 0092 83F31188 		msr     BASEPRI, r3
 810              	@ 0 "" 2
 811              		.thumb
 812              	.LBE174:
 813 0096 6969     		ldr	r1, [r5, #20]
 814 0098 AA69     		ldr	r2, [r5, #24]
 815 009a 40F20003 		movw	r3, #:lower16:.LANCHOR1
 816 009e 9142     		cmp	r1, r2
 817 00a0 C0F20003 		movt	r3, #:upper16:.LANCHOR1
 818 00a4 00F0D880 		beq	.L51
 819              	.L39:
 820 00a8 3146     		mov	r1, r6
 821 00aa 0320     		movs	r0, #3
 822 00ac FFF7FEFF 		bl	_test_assert
 823              	.LVL60:
 824 00b0 20B1     		cbz	r0, .L40
 825              	.LVL61:
 826              	.L49:
 827              	.LBB175:
 828              		.loc 1 214 0
 829 00b2 0023     		movs	r3, #0
 830              	@ 214 "/opt/ChibiOS_2.6.6/test/testqueues.c" 1
 831 00b4 83F31188 		msr     BASEPRI, r3
 832              	@ 0 "" 2
 833              		.thumb
 834              	.L30:
 835              	.LBE175:
 836              	.LBE167:
 837              	.LBE166:
 838              		.loc 1 225 0
 839 00b8 02B0     		add	sp, sp, #8
 840              		@ sp needed
 841 00ba 70BD     		pop	{r4, r5, r6, pc}
 842              	.LVL62:
 843              	.L40:
 844              	.LBB194:
 845              	.LBB191:
 846              	.LBB176:
 847              		.loc 1 198 0
 848 00bc 0346     		mov	r3, r0
 849              	@ 198 "/opt/ChibiOS_2.6.6/test/testqueues.c" 1
 850 00be 83F31188 		msr     BASEPRI, r3
 851              	@ 0 "" 2
 852              		.thumb
 853              	.LBE176:
 854              		.loc 1 199 0
 855 00c2 40F20001 		movw	r1, #:lower16:.LC0
ARM GAS  /tmp/ccAAWrMz.s 			page 16


 856 00c6 C0F20001 		movt	r1, #:upper16:.LC0
 857 00ca 0420     		movs	r0, #4
 858 00cc FFF7FEFF 		bl	_test_assert_sequence
 859              	.LVL63:
 860 00d0 0028     		cmp	r0, #0
 861 00d2 F1D1     		bne	.L30
 862              	.LBB177:
 863              		.loc 1 200 0
 864 00d4 2023     		movs	r3, #32
 865              	@ 200 "/opt/ChibiOS_2.6.6/test/testqueues.c" 1
 866 00d6 83F31188 		msr     BASEPRI, r3
 867              	@ 0 "" 2
 868              		.thumb
 869              	.LBE177:
 870 00da 40F20000 		movw	r0, #:lower16:.LANCHOR1
 871 00de C0F20000 		movt	r0, #:upper16:.LANCHOR1
 872 00e2 FFF7FEFF 		bl	chOQGetI
 873              	.LVL64:
 874 00e6 0330     		adds	r0, r0, #3
 875 00e8 14BF     		ite	ne
 876 00ea 0021     		movne	r1, #0
 877 00ec 0121     		moveq	r1, #1
 878 00ee 0520     		movs	r0, #5
 879 00f0 FFF7FEFF 		bl	_test_assert
 880              	.LVL65:
 881 00f4 0028     		cmp	r0, #0
 882 00f6 DCD1     		bne	.L49
 883              	.LBB178:
 884 00f8 0346     		mov	r3, r0
 885              	@ 200 "/opt/ChibiOS_2.6.6/test/testqueues.c" 1
 886 00fa 83F31188 		msr     BASEPRI, r3
 887              	@ 0 "" 2
 888              		.thumb
 889              	.LBE178:
 890              		.loc 1 203 0
 891 00fe 40F20004 		movw	r4, #:lower16:wa
 892              	.LVL66:
 893 0102 C0F20004 		movt	r4, #:upper16:wa
 894 0106 40F20000 		movw	r0, #:lower16:.LANCHOR1
 895 010a 6168     		ldr	r1, [r4, #4]
 896 010c C0F20000 		movt	r0, #:upper16:.LANCHOR1
 897 0110 0822     		movs	r2, #8
 898 0112 0023     		movs	r3, #0
 899 0114 FFF7FEFF 		bl	chOQWriteTimeout
 900              	.LVL67:
 901              		.loc 1 204 0
 902 0118 061F     		subs	r6, r0, #4
 903 011a 7142     		rsbs	r1, r6, #0
 904 011c 7141     		adcs	r1, r1, r6
 905 011e 0620     		movs	r0, #6
 906              	.LVL68:
 907 0120 FFF7FEFF 		bl	_test_assert
 908              	.LVL69:
 909 0124 0028     		cmp	r0, #0
 910 0126 C7D1     		bne	.L30
 911              	.LBB179:
 912              		.loc 1 205 0
ARM GAS  /tmp/ccAAWrMz.s 			page 17


 913 0128 2023     		movs	r3, #32
 914              	@ 205 "/opt/ChibiOS_2.6.6/test/testqueues.c" 1
 915 012a 83F31188 		msr     BASEPRI, r3
 916              	@ 0 "" 2
 917              		.thumb
 918              	.LBE179:
 919 012e A968     		ldr	r1, [r5, #8]
 920 0130 0720     		movs	r0, #7
 921 0132 D1F10101 		rsbs	r1, r1, #1
 922 0136 38BF     		it	cc
 923 0138 0021     		movcc	r1, #0
 924 013a FFF7FEFF 		bl	_test_assert
 925              	.LVL70:
 926 013e 0028     		cmp	r0, #0
 927 0140 B7D1     		bne	.L49
 928              	.LBB180:
 929 0142 0346     		mov	r3, r0
 930              	@ 205 "/opt/ChibiOS_2.6.6/test/testqueues.c" 1
 931 0144 83F31188 		msr     BASEPRI, r3
 932              	@ 0 "" 2
 933              		.thumb
 934              	.LBE180:
 935              		.loc 1 206 0
 936 0148 40F20003 		movw	r3, #:lower16:rlist
 937 014c C0F20003 		movt	r3, #:upper16:rlist
 938 0150 9B69     		ldr	r3, [r3, #24]
 939 0152 0021     		movs	r1, #0
 940 0154 9A68     		ldr	r2, [r3, #8]
 941 0156 40F20003 		movw	r3, #:lower16:thread2
 942 015a 0091     		str	r1, [sp]
 943 015c 2068     		ldr	r0, [r4]
 944 015e 0132     		adds	r2, r2, #1
 945 0160 C0F20003 		movt	r3, #:upper16:thread2
 946 0164 4FF4A871 		mov	r1, #336
 947 0168 FFF7FEFF 		bl	chThdCreateStatic
 948              	.LVL71:
 949 016c 40F20003 		movw	r3, #:lower16:threads
 950 0170 C0F20003 		movt	r3, #:upper16:threads
 951 0174 1860     		str	r0, [r3]
 952              	.LBB181:
 953              		.loc 1 207 0
 954 0176 2023     		movs	r3, #32
 955              	@ 207 "/opt/ChibiOS_2.6.6/test/testqueues.c" 1
 956 0178 83F31188 		msr     BASEPRI, r3
 957              	@ 0 "" 2
 958              		.thumb
 959              	.LBE181:
 960 017c 2969     		ldr	r1, [r5, #16]
 961 017e EA68     		ldr	r2, [r5, #12]
 962 0180 AB68     		ldr	r3, [r5, #8]
 963 0182 8A1A     		subs	r2, r1, r2
 964 0184 D11A     		subs	r1, r2, r3
 965 0186 081F     		subs	r0, r1, #4
 966 0188 4142     		rsbs	r1, r0, #0
 967 018a 4141     		adcs	r1, r1, r0
 968 018c 0820     		movs	r0, #8
 969 018e FFF7FEFF 		bl	_test_assert
ARM GAS  /tmp/ccAAWrMz.s 			page 18


 970              	.LVL72:
 971 0192 0346     		mov	r3, r0
 972 0194 0028     		cmp	r0, #0
 973 0196 8CD1     		bne	.L49
 974              	.LBB182:
 975              	@ 207 "/opt/ChibiOS_2.6.6/test/testqueues.c" 1
 976 0198 83F31188 		msr     BASEPRI, r3
 977              	@ 0 "" 2
 978              		.thumb
 979              	.LBE182:
 980              		.loc 1 208 0
 981 019c FFF7FEFF 		bl	test_wait_threads
 982              	.LVL73:
 983              	.LBB183:
 984              		.loc 1 211 0
 985 01a0 2023     		movs	r3, #32
 986              	@ 211 "/opt/ChibiOS_2.6.6/test/testqueues.c" 1
 987 01a2 83F31188 		msr     BASEPRI, r3
 988              	@ 0 "" 2
 989              		.thumb
 990              	.LBE183:
 991              		.loc 1 212 0
 992 01a6 40F20000 		movw	r0, #:lower16:.LANCHOR1
 993 01aa C0F20000 		movt	r0, #:upper16:.LANCHOR1
 994 01ae FFF7FEFF 		bl	chOQResetI
 995              	.LVL74:
 996              	.LBB184:
 997              		.loc 1 213 0
 998 01b2 0023     		movs	r3, #0
 999              	@ 213 "/opt/ChibiOS_2.6.6/test/testqueues.c" 1
 1000 01b4 83F31188 		msr     BASEPRI, r3
 1001              	@ 0 "" 2
 1002              		.thumb
 1003              	.LBE184:
 1004              	.LBB185:
 1005              		.loc 1 214 0
 1006 01b8 2023     		movs	r3, #32
 1007              	@ 214 "/opt/ChibiOS_2.6.6/test/testqueues.c" 1
 1008 01ba 83F31188 		msr     BASEPRI, r3
 1009              	@ 0 "" 2
 1010              		.thumb
 1011              	.LBE185:
 1012 01be EA68     		ldr	r2, [r5, #12]
 1013 01c0 2969     		ldr	r1, [r5, #16]
 1014 01c2 AB68     		ldr	r3, [r5, #8]
 1015 01c4 891A     		subs	r1, r1, r2
 1016 01c6 CA1A     		subs	r2, r1, r3
 1017 01c8 5142     		rsbs	r1, r2, #0
 1018 01ca 5141     		adcs	r1, r1, r2
 1019 01cc 0920     		movs	r0, #9
 1020 01ce FFF7FEFF 		bl	_test_assert
 1021              	.LVL75:
 1022 01d2 0346     		mov	r3, r0
 1023 01d4 0028     		cmp	r0, #0
 1024 01d6 7FF46CAF 		bne	.L49
 1025              	.LBB186:
 1026              	@ 214 "/opt/ChibiOS_2.6.6/test/testqueues.c" 1
ARM GAS  /tmp/ccAAWrMz.s 			page 19


 1027 01da 83F31188 		msr     BASEPRI, r3
 1028              	@ 0 "" 2
 1029              		.thumb
 1030              	.LBE186:
 1031              		.loc 1 217 0
 1032 01de 6468     		ldr	r4, [r4, #4]
 1033 01e0 40F20000 		movw	r0, #:lower16:.LANCHOR1
 1034 01e4 2146     		mov	r1, r4
 1035 01e6 0222     		movs	r2, #2
 1036 01e8 0023     		movs	r3, #0
 1037 01ea C0F20000 		movt	r0, #:upper16:.LANCHOR1
 1038 01ee FFF7FEFF 		bl	chOQWriteTimeout
 1039              	.LVL76:
 1040              		.loc 1 218 0
 1041 01f2 831E     		subs	r3, r0, #2
 1042 01f4 5942     		rsbs	r1, r3, #0
 1043 01f6 5941     		adcs	r1, r1, r3
 1044 01f8 0A20     		movs	r0, #10
 1045              	.LVL77:
 1046 01fa FFF7FEFF 		bl	_test_assert
 1047              	.LVL78:
 1048 01fe 0346     		mov	r3, r0
 1049 0200 0028     		cmp	r0, #0
 1050 0202 7FF459AF 		bne	.L30
 1051              		.loc 1 219 0
 1052 0206 40F20000 		movw	r0, #:lower16:.LANCHOR1
 1053 020a 2146     		mov	r1, r4
 1054 020c C0F20000 		movt	r0, #:upper16:.LANCHOR1
 1055 0210 0222     		movs	r2, #2
 1056 0212 FFF7FEFF 		bl	chOQWriteTimeout
 1057              	.LVL79:
 1058              		.loc 1 220 0
 1059 0216 B0F1020C 		subs	ip, r0, #2
 1060 021a DCF10001 		rsbs	r1, ip, #0
 1061 021e 51EB0C01 		adcs	r1, r1, ip
 1062 0222 0B20     		movs	r0, #11
 1063              	.LVL80:
 1064 0224 FFF7FEFF 		bl	_test_assert
 1065              	.LVL81:
 1066 0228 0028     		cmp	r0, #0
 1067 022a 7FF445AF 		bne	.L30
 1068              	.LBB187:
 1069              		.loc 1 221 0
 1070 022e 2023     		movs	r3, #32
 1071              	@ 221 "/opt/ChibiOS_2.6.6/test/testqueues.c" 1
 1072 0230 83F31188 		msr     BASEPRI, r3
 1073              	@ 0 "" 2
 1074              		.thumb
 1075              	.LBE187:
 1076 0234 A968     		ldr	r1, [r5, #8]
 1077 0236 0C20     		movs	r0, #12
 1078 0238 D1F10101 		rsbs	r1, r1, #1
 1079 023c 38BF     		it	cc
 1080 023e 0021     		movcc	r1, #0
 1081 0240 FFF7FEFF 		bl	_test_assert
 1082              	.LVL82:
 1083              	.LBB188:
ARM GAS  /tmp/ccAAWrMz.s 			page 20


 1084 0244 0023     		movs	r3, #0
 1085              	.LBE188:
 1086 0246 60B1     		cbz	r0, .L47
 1087              	.LBB189:
 1088              	@ 221 "/opt/ChibiOS_2.6.6/test/testqueues.c" 1
 1089 0248 83F31188 		msr     BASEPRI, r3
 1090              	@ 0 "" 2
 1091              		.thumb
 1092 024c 34E7     		b	.L30
 1093              	.L50:
 1094              	.LBE189:
 1095              	.LBE191:
 1096              	.LBE194:
 1097              		.loc 1 182 0 discriminator 1
 1098 024e A968     		ldr	r1, [r5, #8]
 1099 0250 0031     		adds	r1, r1, #0
 1100 0252 18BF     		it	ne
 1101 0254 0121     		movne	r1, #1
 1102 0256 E3E6     		b	.L31
 1103              	.LVL83:
 1104              	.L51:
 1105              	.LBB195:
 1106              	.LBB192:
 1107              		.loc 1 198 0
 1108 0258 9E68     		ldr	r6, [r3, #8]
 1109 025a 0036     		adds	r6, r6, #0
 1110 025c 18BF     		it	ne
 1111 025e 0126     		movne	r6, #1
 1112 0260 22E7     		b	.L39
 1113              	.LVL84:
 1114              	.L47:
 1115              	.LBB190:
 1116              		.loc 1 221 0
 1117              	@ 221 "/opt/ChibiOS_2.6.6/test/testqueues.c" 1
 1118 0262 83F31188 		msr     BASEPRI, r3
 1119              	@ 0 "" 2
 1120              		.thumb
 1121              	.LBE190:
 1122              		.loc 1 224 0
 1123 0266 40F20000 		movw	r0, #:lower16:.LANCHOR1
 1124 026a 0021     		movs	r1, #0
 1125 026c 0A22     		movs	r2, #10
 1126 026e C0F20000 		movt	r0, #:upper16:.LANCHOR1
 1127 0272 FFF7FEFF 		bl	chOQPutTimeout
 1128              	.LVL85:
 1129 0276 B0F1FF3E 		subs	lr, r0, #-1
 1130 027a DEF10001 		rsbs	r1, lr, #0
 1131 027e 51EB0E01 		adcs	r1, r1, lr
 1132 0282 0D20     		movs	r0, #13
 1133              	.LBE192:
 1134              	.LBE195:
 1135              		.loc 1 225 0
 1136 0284 02B0     		add	sp, sp, #8
 1137              		@ sp needed
 1138 0286 BDE87040 		pop	{r4, r5, r6, lr}
 1139              	.LBB196:
 1140              	.LBB193:
ARM GAS  /tmp/ccAAWrMz.s 			page 21


 1141              		.loc 1 224 0
 1142 028a FFF7FEBF 		b	_test_assert
 1143              	.LVL86:
 1144              	.LBE193:
 1145              	.LBE196:
 1146              		.cfi_endproc
 1147              	.LFE13:
 1148              		.size	queues2_execute, .-queues2_execute
 1149              		.global	patternqueues
 1150              		.global	testqueues2
 1151              		.global	testqueues1
 1152 028e 00BF     		.section	.rodata.testqueues1,"a",%progbits
 1153              		.align	2
 1154              		.type	testqueues1, %object
 1155              		.size	testqueues1, 16
 1156              	testqueues1:
 1157 0000 20000000 		.word	.LC2
 1158 0004 00000000 		.word	queues1_setup
 1159 0008 00000000 		.word	0
 1160 000c 00000000 		.word	queues1_execute
 1161              		.section	.rodata.testqueues2,"a",%progbits
 1162              		.align	2
 1163              		.type	testqueues2, %object
 1164              		.size	testqueues2, 16
 1165              	testqueues2:
 1166 0000 08000000 		.word	.LC1
 1167 0004 00000000 		.word	queues2_setup
 1168 0008 00000000 		.word	0
 1169 000c 00000000 		.word	queues2_execute
 1170              		.section	.rodata.str1.4,"aMS",%progbits,1
 1171              		.align	2
 1172              	.LC0:
 1173 0000 41424344 		.ascii	"ABCD\000"
 1173      00
 1174 0005 000000   		.space	3
 1175              	.LC1:
 1176 0008 51756575 		.ascii	"Queues, output queues\000"
 1176      65732C20 
 1176      6F757470 
 1176      75742071 
 1176      75657565 
 1177 001e 0000     		.space	2
 1178              	.LC2:
 1179 0020 51756575 		.ascii	"Queues, input queues\000"
 1179      65732C20 
 1179      696E7075 
 1179      74207175 
 1179      65756573 
 1180 0035 000000   		.section	.rodata.patternqueues,"a",%progbits
 1181              		.align	2
 1182              		.type	patternqueues, %object
 1183              		.size	patternqueues, 12
 1184              	patternqueues:
 1185 0000 00000000 		.word	testqueues1
 1186 0004 00000000 		.word	testqueues2
 1187 0008 00000000 		.word	0
 1188              		.section	.data.oq,"aw",%progbits
ARM GAS  /tmp/ccAAWrMz.s 			page 22


 1189              		.align	2
 1190              		.set	.LANCHOR1,. + 0
 1191              		.type	oq, %object
 1192              		.size	oq, 36
 1193              	oq:
 1194 0000 00000000 		.word	oq
 1195 0004 00000000 		.word	oq
 1196 0008 04000000 		.word	4
 1197 000c 50010000 		.word	test+336
 1198 0010 54010000 		.word	test+340
 1199 0014 50010000 		.word	test+336
 1200 0018 50010000 		.word	test+336
 1201 001c 00000000 		.word	notify
 1202 0020 00000000 		.word	0
 1203              		.section	.data.iq,"aw",%progbits
 1204              		.align	2
 1205              		.set	.LANCHOR0,. + 0
 1206              		.type	iq, %object
 1207              		.size	iq, 36
 1208              	iq:
 1209 0000 00000000 		.word	iq
 1210 0004 00000000 		.word	iq
 1211 0008 00000000 		.word	0
 1212 000c 00000000 		.word	test
 1213 0010 04000000 		.word	test+4
 1214 0014 00000000 		.word	test
 1215 0018 00000000 		.word	test
 1216 001c 00000000 		.word	notify
 1217 0020 00000000 		.word	0
 1218              		.text
 1219              	.Letext0:
 1220              		.file 2 "/usr/lib/gcc/arm-none-eabi/4.8.2/include/stddef.h"
 1221              		.file 3 "/usr/include/newlib/machine/_default_types.h"
 1222              		.file 4 "/usr/include/newlib/stdint.h"
 1223              		.file 5 "/opt/ChibiOS_2.6.6/os/ports/GCC/ARMCMx/chtypes.h"
 1224              		.file 6 "/opt/ChibiOS_2.6.6/os/kernel/include/chlists.h"
 1225              		.file 7 "/opt/ChibiOS_2.6.6/os/kernel/include/chthreads.h"
 1226              		.file 8 "/opt/ChibiOS_2.6.6/os/ports/GCC/ARMCMx/chcore_v7m.h"
 1227              		.file 9 "/opt/ChibiOS_2.6.6/os/kernel/include/chschd.h"
 1228              		.file 10 "/opt/ChibiOS_2.6.6/os/kernel/include/chmtx.h"
 1229              		.file 11 "/opt/ChibiOS_2.6.6/os/kernel/include/chqueues.h"
 1230              		.file 12 "/opt/ChibiOS_2.6.6/test/test.h"
 1231              		.section	.debug_info,"",%progbits
 1232              	.Ldebug_info0:
 1233 0000 BD160000 		.4byte	0x16bd
 1234 0004 0400     		.2byte	0x4
 1235 0006 00000000 		.4byte	.Ldebug_abbrev0
 1236 000a 04       		.byte	0x4
 1237 000b 01       		.uleb128 0x1
 1238 000c 0C020000 		.4byte	.LASF116
 1239 0010 01       		.byte	0x1
 1240 0011 69010000 		.4byte	.LASF117
 1241 0015 90000000 		.4byte	.Ldebug_ranges0+0x90
 1242 0019 00000000 		.4byte	0
 1243 001d 00000000 		.4byte	.Ldebug_line0
 1244 0021 02       		.uleb128 0x2
 1245 0022 04       		.byte	0x4
ARM GAS  /tmp/ccAAWrMz.s 			page 23


 1246 0023 05       		.byte	0x5
 1247 0024 696E7400 		.ascii	"int\000"
 1248 0028 03       		.uleb128 0x3
 1249 0029 1D000000 		.4byte	.LASF2
 1250 002d 02       		.byte	0x2
 1251 002e D4       		.byte	0xd4
 1252 002f 33000000 		.4byte	0x33
 1253 0033 04       		.uleb128 0x4
 1254 0034 04       		.byte	0x4
 1255 0035 07       		.byte	0x7
 1256 0036 97010000 		.4byte	.LASF0
 1257 003a 04       		.uleb128 0x4
 1258 003b 01       		.byte	0x1
 1259 003c 06       		.byte	0x6
 1260 003d DD000000 		.4byte	.LASF1
 1261 0041 03       		.uleb128 0x3
 1262 0042 49000000 		.4byte	.LASF3
 1263 0046 03       		.byte	0x3
 1264 0047 1C       		.byte	0x1c
 1265 0048 4C000000 		.4byte	0x4c
 1266 004c 04       		.uleb128 0x4
 1267 004d 01       		.byte	0x1
 1268 004e 08       		.byte	0x8
 1269 004f F0030000 		.4byte	.LASF4
 1270 0053 04       		.uleb128 0x4
 1271 0054 02       		.byte	0x2
 1272 0055 05       		.byte	0x5
 1273 0056 08040000 		.4byte	.LASF5
 1274 005a 04       		.uleb128 0x4
 1275 005b 02       		.byte	0x2
 1276 005c 07       		.byte	0x7
 1277 005d D7010000 		.4byte	.LASF6
 1278 0061 03       		.uleb128 0x3
 1279 0062 A3040000 		.4byte	.LASF7
 1280 0066 03       		.byte	0x3
 1281 0067 37       		.byte	0x37
 1282 0068 6C000000 		.4byte	0x6c
 1283 006c 04       		.uleb128 0x4
 1284 006d 04       		.byte	0x4
 1285 006e 05       		.byte	0x5
 1286 006f 1A010000 		.4byte	.LASF8
 1287 0073 03       		.uleb128 0x3
 1288 0074 55010000 		.4byte	.LASF9
 1289 0078 03       		.byte	0x3
 1290 0079 38       		.byte	0x38
 1291 007a 7E000000 		.4byte	0x7e
 1292 007e 04       		.uleb128 0x4
 1293 007f 04       		.byte	0x4
 1294 0080 07       		.byte	0x7
 1295 0081 AF010000 		.4byte	.LASF10
 1296 0085 04       		.uleb128 0x4
 1297 0086 08       		.byte	0x8
 1298 0087 05       		.byte	0x5
 1299 0088 CF000000 		.4byte	.LASF11
 1300 008c 03       		.uleb128 0x3
 1301 008d 98030000 		.4byte	.LASF12
 1302 0091 03       		.byte	0x3
ARM GAS  /tmp/ccAAWrMz.s 			page 24


 1303 0092 4E       		.byte	0x4e
 1304 0093 97000000 		.4byte	0x97
 1305 0097 04       		.uleb128 0x4
 1306 0098 08       		.byte	0x8
 1307 0099 07       		.byte	0x7
 1308 009a 71000000 		.4byte	.LASF13
 1309 009e 03       		.uleb128 0x3
 1310 009f F7040000 		.4byte	.LASF14
 1311 00a3 04       		.byte	0x4
 1312 00a4 2A       		.byte	0x2a
 1313 00a5 41000000 		.4byte	0x41
 1314 00a9 03       		.uleb128 0x3
 1315 00aa E8030000 		.4byte	.LASF15
 1316 00ae 04       		.byte	0x4
 1317 00af 41       		.byte	0x41
 1318 00b0 61000000 		.4byte	0x61
 1319 00b4 03       		.uleb128 0x3
 1320 00b5 64040000 		.4byte	.LASF16
 1321 00b9 04       		.byte	0x4
 1322 00ba 42       		.byte	0x42
 1323 00bb 73000000 		.4byte	0x73
 1324 00bf 03       		.uleb128 0x3
 1325 00c0 34000000 		.4byte	.LASF17
 1326 00c4 04       		.byte	0x4
 1327 00c5 4E       		.byte	0x4e
 1328 00c6 8C000000 		.4byte	0x8c
 1329 00ca 03       		.uleb128 0x3
 1330 00cb F1000000 		.4byte	.LASF18
 1331 00cf 05       		.byte	0x5
 1332 00d0 2B       		.byte	0x2b
 1333 00d1 D5000000 		.4byte	0xd5
 1334 00d5 04       		.uleb128 0x4
 1335 00d6 01       		.byte	0x1
 1336 00d7 02       		.byte	0x2
 1337 00d8 E2030000 		.4byte	.LASF19
 1338 00dc 03       		.uleb128 0x3
 1339 00dd 94020000 		.4byte	.LASF20
 1340 00e1 05       		.byte	0x5
 1341 00e2 2C       		.byte	0x2c
 1342 00e3 9E000000 		.4byte	0x9e
 1343 00e7 03       		.uleb128 0x3
 1344 00e8 23010000 		.4byte	.LASF21
 1345 00ec 05       		.byte	0x5
 1346 00ed 2D       		.byte	0x2d
 1347 00ee 9E000000 		.4byte	0x9e
 1348 00f2 03       		.uleb128 0x3
 1349 00f3 B1030000 		.4byte	.LASF22
 1350 00f7 05       		.byte	0x5
 1351 00f8 2E       		.byte	0x2e
 1352 00f9 9E000000 		.4byte	0x9e
 1353 00fd 03       		.uleb128 0x3
 1354 00fe 10010000 		.4byte	.LASF23
 1355 0102 05       		.byte	0x5
 1356 0103 2F       		.byte	0x2f
 1357 0104 9E000000 		.4byte	0x9e
 1358 0108 03       		.uleb128 0x3
 1359 0109 D2030000 		.4byte	.LASF24
ARM GAS  /tmp/ccAAWrMz.s 			page 25


 1360 010d 05       		.byte	0x5
 1361 010e 30       		.byte	0x30
 1362 010f B4000000 		.4byte	0xb4
 1363 0113 03       		.uleb128 0x3
 1364 0114 06020000 		.4byte	.LASF25
 1365 0118 05       		.byte	0x5
 1366 0119 31       		.byte	0x31
 1367 011a A9000000 		.4byte	0xa9
 1368 011e 03       		.uleb128 0x3
 1369 011f A8020000 		.4byte	.LASF26
 1370 0123 05       		.byte	0x5
 1371 0124 33       		.byte	0x33
 1372 0125 B4000000 		.4byte	0xb4
 1373 0129 03       		.uleb128 0x3
 1374 012a 8E040000 		.4byte	.LASF27
 1375 012e 05       		.byte	0x5
 1376 012f 35       		.byte	0x35
 1377 0130 B4000000 		.4byte	0xb4
 1378 0134 03       		.uleb128 0x3
 1379 0135 49040000 		.4byte	.LASF28
 1380 0139 06       		.byte	0x6
 1381 013a 2A       		.byte	0x2a
 1382 013b 3F010000 		.4byte	0x13f
 1383 013f 05       		.uleb128 0x5
 1384 0140 49040000 		.4byte	.LASF28
 1385 0144 48       		.byte	0x48
 1386 0145 07       		.byte	0x7
 1387 0146 5E       		.byte	0x5e
 1388 0147 3C020000 		.4byte	0x23c
 1389 014b 06       		.uleb128 0x6
 1390 014c 3A040000 		.4byte	.LASF29
 1391 0150 07       		.byte	0x7
 1392 0151 5F       		.byte	0x5f
 1393 0152 5D020000 		.4byte	0x25d
 1394 0156 00       		.byte	0
 1395 0157 06       		.uleb128 0x6
 1396 0158 C3030000 		.4byte	.LASF30
 1397 015c 07       		.byte	0x7
 1398 015d 61       		.byte	0x61
 1399 015e 5D020000 		.4byte	0x25d
 1400 0162 04       		.byte	0x4
 1401 0163 06       		.uleb128 0x6
 1402 0164 BE000000 		.4byte	.LASF31
 1403 0168 07       		.byte	0x7
 1404 0169 63       		.byte	0x63
 1405 016a 08010000 		.4byte	0x108
 1406 016e 08       		.byte	0x8
 1407 016f 06       		.uleb128 0x6
 1408 0170 29050000 		.4byte	.LASF32
 1409 0174 07       		.byte	0x7
 1410 0175 64       		.byte	0x64
 1411 0176 22030000 		.4byte	0x322
 1412 017a 0C       		.byte	0xc
 1413 017b 06       		.uleb128 0x6
 1414 017c 4D010000 		.4byte	.LASF33
 1415 0180 07       		.byte	0x7
 1416 0181 66       		.byte	0x66
ARM GAS  /tmp/ccAAWrMz.s 			page 26


 1417 0182 5D020000 		.4byte	0x25d
 1418 0186 10       		.byte	0x10
 1419 0187 06       		.uleb128 0x6
 1420 0188 37030000 		.4byte	.LASF34
 1421 018c 07       		.byte	0x7
 1422 018d 67       		.byte	0x67
 1423 018e 5D020000 		.4byte	0x25d
 1424 0192 14       		.byte	0x14
 1425 0193 06       		.uleb128 0x6
 1426 0194 06050000 		.4byte	.LASF35
 1427 0198 07       		.byte	0x7
 1428 0199 6E       		.byte	0x6e
 1429 019a 22040000 		.4byte	0x422
 1430 019e 18       		.byte	0x18
 1431 019f 06       		.uleb128 0x6
 1432 01a0 12040000 		.4byte	.LASF36
 1433 01a4 07       		.byte	0x7
 1434 01a5 79       		.byte	0x79
 1435 01a6 E7000000 		.4byte	0xe7
 1436 01aa 1C       		.byte	0x1c
 1437 01ab 06       		.uleb128 0x6
 1438 01ac 41040000 		.4byte	.LASF37
 1439 01b0 07       		.byte	0x7
 1440 01b1 7D       		.byte	0x7d
 1441 01b2 DC000000 		.4byte	0xdc
 1442 01b6 1D       		.byte	0x1d
 1443 01b7 06       		.uleb128 0x6
 1444 01b8 D7040000 		.4byte	.LASF38
 1445 01bc 07       		.byte	0x7
 1446 01bd 82       		.byte	0x82
 1447 01be F2000000 		.4byte	0xf2
 1448 01c2 1E       		.byte	0x1e
 1449 01c3 06       		.uleb128 0x6
 1450 01c4 1A040000 		.4byte	.LASF39
 1451 01c8 07       		.byte	0x7
 1452 01c9 88       		.byte	0x88
 1453 01ca FD000000 		.4byte	0xfd
 1454 01ce 1F       		.byte	0x1f
 1455 01cf 06       		.uleb128 0x6
 1456 01d0 B8040000 		.4byte	.LASF40
 1457 01d4 07       		.byte	0x7
 1458 01d5 8F       		.byte	0x8f
 1459 01d6 4A030000 		.4byte	0x34a
 1460 01da 20       		.byte	0x20
 1461 01db 07       		.uleb128 0x7
 1462 01dc 705F7500 		.ascii	"p_u\000"
 1463 01e0 07       		.byte	0x7
 1464 01e1 B4       		.byte	0xb4
 1465 01e2 ED030000 		.4byte	0x3ed
 1466 01e6 24       		.byte	0x24
 1467 01e7 06       		.uleb128 0x6
 1468 01e8 2F050000 		.4byte	.LASF41
 1469 01ec 07       		.byte	0x7
 1470 01ed B9       		.byte	0xb9
 1471 01ee 83020000 		.4byte	0x283
 1472 01f2 28       		.byte	0x28
 1473 01f3 06       		.uleb128 0x6
ARM GAS  /tmp/ccAAWrMz.s 			page 27


 1474 01f4 C6040000 		.4byte	.LASF42
 1475 01f8 07       		.byte	0x7
 1476 01f9 BF       		.byte	0xbf
 1477 01fa 63020000 		.4byte	0x263
 1478 01fe 2C       		.byte	0x2c
 1479 01ff 06       		.uleb128 0x6
 1480 0200 17000000 		.4byte	.LASF43
 1481 0204 07       		.byte	0x7
 1482 0205 C3       		.byte	0xc3
 1483 0206 13010000 		.4byte	0x113
 1484 020a 34       		.byte	0x34
 1485 020b 06       		.uleb128 0x6
 1486 020c 59040000 		.4byte	.LASF44
 1487 0210 07       		.byte	0x7
 1488 0211 C9       		.byte	0xc9
 1489 0212 1E010000 		.4byte	0x11e
 1490 0216 38       		.byte	0x38
 1491 0217 06       		.uleb128 0x6
 1492 0218 FE030000 		.4byte	.LASF45
 1493 021c 07       		.byte	0x7
 1494 021d D0       		.byte	0xd0
 1495 021e 34040000 		.4byte	0x434
 1496 0222 3C       		.byte	0x3c
 1497 0223 06       		.uleb128 0x6
 1498 0224 98040000 		.4byte	.LASF46
 1499 0228 07       		.byte	0x7
 1500 0229 D4       		.byte	0xd4
 1501 022a 08010000 		.4byte	0x108
 1502 022e 40       		.byte	0x40
 1503 022f 06       		.uleb128 0x6
 1504 0230 E9000000 		.4byte	.LASF47
 1505 0234 07       		.byte	0x7
 1506 0235 DA       		.byte	0xda
 1507 0236 99020000 		.4byte	0x299
 1508 023a 44       		.byte	0x44
 1509 023b 00       		.byte	0
 1510 023c 08       		.uleb128 0x8
 1511 023d 08       		.byte	0x8
 1512 023e 06       		.byte	0x6
 1513 023f 61       		.byte	0x61
 1514 0240 5D020000 		.4byte	0x25d
 1515 0244 06       		.uleb128 0x6
 1516 0245 3A040000 		.4byte	.LASF29
 1517 0249 06       		.byte	0x6
 1518 024a 62       		.byte	0x62
 1519 024b 5D020000 		.4byte	0x25d
 1520 024f 00       		.byte	0
 1521 0250 06       		.uleb128 0x6
 1522 0251 C3030000 		.4byte	.LASF30
 1523 0255 06       		.byte	0x6
 1524 0256 64       		.byte	0x64
 1525 0257 5D020000 		.4byte	0x25d
 1526 025b 04       		.byte	0x4
 1527 025c 00       		.byte	0
 1528 025d 09       		.uleb128 0x9
 1529 025e 04       		.byte	0x4
 1530 025f 34010000 		.4byte	0x134
ARM GAS  /tmp/ccAAWrMz.s 			page 28


 1531 0263 03       		.uleb128 0x3
 1532 0264 5D030000 		.4byte	.LASF48
 1533 0268 06       		.byte	0x6
 1534 0269 66       		.byte	0x66
 1535 026a 3C020000 		.4byte	0x23c
 1536 026e 08       		.uleb128 0x8
 1537 026f 04       		.byte	0x4
 1538 0270 06       		.byte	0x6
 1539 0271 6B       		.byte	0x6b
 1540 0272 83020000 		.4byte	0x283
 1541 0276 06       		.uleb128 0x6
 1542 0277 3A040000 		.4byte	.LASF29
 1543 027b 06       		.byte	0x6
 1544 027c 6D       		.byte	0x6d
 1545 027d 5D020000 		.4byte	0x25d
 1546 0281 00       		.byte	0
 1547 0282 00       		.byte	0
 1548 0283 03       		.uleb128 0x3
 1549 0284 9C020000 		.4byte	.LASF49
 1550 0288 06       		.byte	0x6
 1551 0289 70       		.byte	0x70
 1552 028a 6E020000 		.4byte	0x26e
 1553 028e 03       		.uleb128 0x3
 1554 028f 60010000 		.4byte	.LASF50
 1555 0293 08       		.byte	0x8
 1556 0294 E5       		.byte	0xe5
 1557 0295 99020000 		.4byte	0x299
 1558 0299 0A       		.uleb128 0xa
 1559 029a 04       		.byte	0x4
 1560 029b 03       		.uleb128 0x3
 1561 029c D2020000 		.4byte	.LASF51
 1562 02a0 08       		.byte	0x8
 1563 02a1 EB       		.byte	0xeb
 1564 02a2 BF000000 		.4byte	0xbf
 1565 02a6 0B       		.uleb128 0xb
 1566 02a7 BF040000 		.4byte	.LASF52
 1567 02ab 24       		.byte	0x24
 1568 02ac 08       		.byte	0x8
 1569 02ad 0C01     		.2byte	0x10c
 1570 02af 22030000 		.4byte	0x322
 1571 02b3 0C       		.uleb128 0xc
 1572 02b4 723400   		.ascii	"r4\000"
 1573 02b7 08       		.byte	0x8
 1574 02b8 1F01     		.2byte	0x11f
 1575 02ba 8E020000 		.4byte	0x28e
 1576 02be 00       		.byte	0
 1577 02bf 0C       		.uleb128 0xc
 1578 02c0 723500   		.ascii	"r5\000"
 1579 02c3 08       		.byte	0x8
 1580 02c4 2001     		.2byte	0x120
 1581 02c6 8E020000 		.4byte	0x28e
 1582 02ca 04       		.byte	0x4
 1583 02cb 0C       		.uleb128 0xc
 1584 02cc 723600   		.ascii	"r6\000"
 1585 02cf 08       		.byte	0x8
 1586 02d0 2101     		.2byte	0x121
 1587 02d2 8E020000 		.4byte	0x28e
ARM GAS  /tmp/ccAAWrMz.s 			page 29


 1588 02d6 08       		.byte	0x8
 1589 02d7 0C       		.uleb128 0xc
 1590 02d8 723700   		.ascii	"r7\000"
 1591 02db 08       		.byte	0x8
 1592 02dc 2201     		.2byte	0x122
 1593 02de 8E020000 		.4byte	0x28e
 1594 02e2 0C       		.byte	0xc
 1595 02e3 0C       		.uleb128 0xc
 1596 02e4 723800   		.ascii	"r8\000"
 1597 02e7 08       		.byte	0x8
 1598 02e8 2301     		.2byte	0x123
 1599 02ea 8E020000 		.4byte	0x28e
 1600 02ee 10       		.byte	0x10
 1601 02ef 0C       		.uleb128 0xc
 1602 02f0 723900   		.ascii	"r9\000"
 1603 02f3 08       		.byte	0x8
 1604 02f4 2401     		.2byte	0x124
 1605 02f6 8E020000 		.4byte	0x28e
 1606 02fa 14       		.byte	0x14
 1607 02fb 0C       		.uleb128 0xc
 1608 02fc 72313000 		.ascii	"r10\000"
 1609 0300 08       		.byte	0x8
 1610 0301 2501     		.2byte	0x125
 1611 0303 8E020000 		.4byte	0x28e
 1612 0307 18       		.byte	0x18
 1613 0308 0C       		.uleb128 0xc
 1614 0309 72313100 		.ascii	"r11\000"
 1615 030d 08       		.byte	0x8
 1616 030e 2601     		.2byte	0x126
 1617 0310 8E020000 		.4byte	0x28e
 1618 0314 1C       		.byte	0x1c
 1619 0315 0C       		.uleb128 0xc
 1620 0316 6C7200   		.ascii	"lr\000"
 1621 0319 08       		.byte	0x8
 1622 031a 2701     		.2byte	0x127
 1623 031c 8E020000 		.4byte	0x28e
 1624 0320 20       		.byte	0x20
 1625 0321 00       		.byte	0
 1626 0322 0B       		.uleb128 0xb
 1627 0323 CF010000 		.4byte	.LASF53
 1628 0327 04       		.byte	0x4
 1629 0328 08       		.byte	0x8
 1630 0329 3101     		.2byte	0x131
 1631 032b 3D030000 		.4byte	0x33d
 1632 032f 0C       		.uleb128 0xc
 1633 0330 72313300 		.ascii	"r13\000"
 1634 0334 08       		.byte	0x8
 1635 0335 3201     		.2byte	0x132
 1636 0337 3D030000 		.4byte	0x33d
 1637 033b 00       		.byte	0
 1638 033c 00       		.byte	0
 1639 033d 09       		.uleb128 0x9
 1640 033e 04       		.byte	0x4
 1641 033f A6020000 		.4byte	0x2a6
 1642 0343 04       		.uleb128 0x4
 1643 0344 04       		.byte	0x4
 1644 0345 07       		.byte	0x7
ARM GAS  /tmp/ccAAWrMz.s 			page 30


 1645 0346 06030000 		.4byte	.LASF54
 1646 034a 0D       		.uleb128 0xd
 1647 034b 29010000 		.4byte	0x129
 1648 034f 08       		.uleb128 0x8
 1649 0350 1C       		.byte	0x1c
 1650 0351 09       		.byte	0x9
 1651 0352 5E       		.byte	0x5e
 1652 0353 A0030000 		.4byte	0x3a0
 1653 0357 06       		.uleb128 0x6
 1654 0358 6D040000 		.4byte	.LASF55
 1655 035c 09       		.byte	0x9
 1656 035d 5F       		.byte	0x5f
 1657 035e 63020000 		.4byte	0x263
 1658 0362 00       		.byte	0
 1659 0363 06       		.uleb128 0x6
 1660 0364 2C040000 		.4byte	.LASF56
 1661 0368 09       		.byte	0x9
 1662 0369 60       		.byte	0x60
 1663 036a 08010000 		.4byte	0x108
 1664 036e 08       		.byte	0x8
 1665 036f 06       		.uleb128 0x6
 1666 0370 4F030000 		.4byte	.LASF57
 1667 0374 09       		.byte	0x9
 1668 0375 62       		.byte	0x62
 1669 0376 22030000 		.4byte	0x322
 1670 037a 0C       		.byte	0xc
 1671 037b 06       		.uleb128 0x6
 1672 037c 55030000 		.4byte	.LASF58
 1673 0380 09       		.byte	0x9
 1674 0381 65       		.byte	0x65
 1675 0382 5D020000 		.4byte	0x25d
 1676 0386 10       		.byte	0x10
 1677 0387 06       		.uleb128 0x6
 1678 0388 90030000 		.4byte	.LASF59
 1679 038c 09       		.byte	0x9
 1680 038d 66       		.byte	0x66
 1681 038e 5D020000 		.4byte	0x25d
 1682 0392 14       		.byte	0x14
 1683 0393 06       		.uleb128 0x6
 1684 0394 86030000 		.4byte	.LASF60
 1685 0398 09       		.byte	0x9
 1686 0399 69       		.byte	0x69
 1687 039a 5D020000 		.4byte	0x25d
 1688 039e 18       		.byte	0x18
 1689 039f 00       		.byte	0
 1690 03a0 03       		.uleb128 0x3
 1691 03a1 DE040000 		.4byte	.LASF61
 1692 03a5 09       		.byte	0x9
 1693 03a6 6B       		.byte	0x6b
 1694 03a7 4F030000 		.4byte	0x34f
 1695 03ab 05       		.uleb128 0x5
 1696 03ac BF020000 		.4byte	.LASF62
 1697 03b0 10       		.byte	0x10
 1698 03b1 0A       		.byte	0xa
 1699 03b2 2C       		.byte	0x2c
 1700 03b3 DC030000 		.4byte	0x3dc
 1701 03b7 06       		.uleb128 0x6
ARM GAS  /tmp/ccAAWrMz.s 			page 31


 1702 03b8 F8000000 		.4byte	.LASF63
 1703 03bc 0A       		.byte	0xa
 1704 03bd 2D       		.byte	0x2d
 1705 03be 63020000 		.4byte	0x263
 1706 03c2 00       		.byte	0
 1707 03c3 06       		.uleb128 0x6
 1708 03c4 21050000 		.4byte	.LASF64
 1709 03c8 0A       		.byte	0xa
 1710 03c9 2F       		.byte	0x2f
 1711 03ca 5D020000 		.4byte	0x25d
 1712 03ce 08       		.byte	0x8
 1713 03cf 06       		.uleb128 0x6
 1714 03d0 87040000 		.4byte	.LASF65
 1715 03d4 0A       		.byte	0xa
 1716 03d5 31       		.byte	0x31
 1717 03d6 DC030000 		.4byte	0x3dc
 1718 03da 0C       		.byte	0xc
 1719 03db 00       		.byte	0
 1720 03dc 09       		.uleb128 0x9
 1721 03dd 04       		.byte	0x4
 1722 03de AB030000 		.4byte	0x3ab
 1723 03e2 03       		.uleb128 0x3
 1724 03e3 BF020000 		.4byte	.LASF62
 1725 03e7 0A       		.byte	0xa
 1726 03e8 33       		.byte	0x33
 1727 03e9 AB030000 		.4byte	0x3ab
 1728 03ed 0E       		.uleb128 0xe
 1729 03ee 04       		.byte	0x4
 1730 03ef 07       		.byte	0x7
 1731 03f0 96       		.byte	0x96
 1732 03f1 22040000 		.4byte	0x422
 1733 03f5 0F       		.uleb128 0xf
 1734 03f6 24000000 		.4byte	.LASF66
 1735 03fa 07       		.byte	0x7
 1736 03fb 9D       		.byte	0x9d
 1737 03fc 13010000 		.4byte	0x113
 1738 0400 0F       		.uleb128 0xf
 1739 0401 A2000000 		.4byte	.LASF67
 1740 0405 07       		.byte	0x7
 1741 0406 A4       		.byte	0xa4
 1742 0407 13010000 		.4byte	0x113
 1743 040b 0F       		.uleb128 0xf
 1744 040c FF040000 		.4byte	.LASF68
 1745 0410 07       		.byte	0x7
 1746 0411 AB       		.byte	0xab
 1747 0412 99020000 		.4byte	0x299
 1748 0416 0F       		.uleb128 0xf
 1749 0417 33040000 		.4byte	.LASF69
 1750 041b 07       		.byte	0x7
 1751 041c B2       		.byte	0xb2
 1752 041d 1E010000 		.4byte	0x11e
 1753 0421 00       		.byte	0
 1754 0422 09       		.uleb128 0x9
 1755 0423 04       		.byte	0x4
 1756 0424 28040000 		.4byte	0x428
 1757 0428 10       		.uleb128 0x10
 1758 0429 2D040000 		.4byte	0x42d
ARM GAS  /tmp/ccAAWrMz.s 			page 32


 1759 042d 04       		.uleb128 0x4
 1760 042e 01       		.byte	0x1
 1761 042f 08       		.byte	0x8
 1762 0430 75040000 		.4byte	.LASF70
 1763 0434 09       		.uleb128 0x9
 1764 0435 04       		.byte	0x4
 1765 0436 E2030000 		.4byte	0x3e2
 1766 043a 03       		.uleb128 0x3
 1767 043b 0F000000 		.4byte	.LASF71
 1768 043f 07       		.byte	0x7
 1769 0440 E5       		.byte	0xe5
 1770 0441 45040000 		.4byte	0x445
 1771 0445 09       		.uleb128 0x9
 1772 0446 04       		.byte	0x4
 1773 0447 4B040000 		.4byte	0x44b
 1774 044b 11       		.uleb128 0x11
 1775 044c 13010000 		.4byte	0x113
 1776 0450 5A040000 		.4byte	0x45a
 1777 0454 12       		.uleb128 0x12
 1778 0455 99020000 		.4byte	0x299
 1779 0459 00       		.byte	0
 1780 045a 03       		.uleb128 0x3
 1781 045b C5020000 		.4byte	.LASF72
 1782 045f 0B       		.byte	0xb
 1783 0460 37       		.byte	0x37
 1784 0461 65040000 		.4byte	0x465
 1785 0465 05       		.uleb128 0x5
 1786 0466 C5020000 		.4byte	.LASF72
 1787 046a 24       		.byte	0x24
 1788 046b 0B       		.byte	0xb
 1789 046c 45       		.byte	0x45
 1790 046d D2040000 		.4byte	0x4d2
 1791 0471 06       		.uleb128 0x6
 1792 0472 C5000000 		.4byte	.LASF73
 1793 0476 0B       		.byte	0xb
 1794 0477 46       		.byte	0x46
 1795 0478 63020000 		.4byte	0x263
 1796 047c 00       		.byte	0
 1797 047d 06       		.uleb128 0x6
 1798 047e 0F030000 		.4byte	.LASF74
 1799 0482 0B       		.byte	0xb
 1800 0483 47       		.byte	0x47
 1801 0484 28000000 		.4byte	0x28
 1802 0488 08       		.byte	0x8
 1803 0489 06       		.uleb128 0x6
 1804 048a 35010000 		.4byte	.LASF75
 1805 048e 0B       		.byte	0xb
 1806 048f 48       		.byte	0x48
 1807 0490 F4040000 		.4byte	0x4f4
 1808 0494 0C       		.byte	0xc
 1809 0495 06       		.uleb128 0x6
 1810 0496 D1040000 		.4byte	.LASF76
 1811 049a 0B       		.byte	0xb
 1812 049b 49       		.byte	0x49
 1813 049c F4040000 		.4byte	0x4f4
 1814 04a0 10       		.byte	0x10
 1815 04a1 06       		.uleb128 0x6
ARM GAS  /tmp/ccAAWrMz.s 			page 33


 1816 04a2 3E010000 		.4byte	.LASF77
 1817 04a6 0B       		.byte	0xb
 1818 04a7 4B       		.byte	0x4b
 1819 04a8 F4040000 		.4byte	0x4f4
 1820 04ac 14       		.byte	0x14
 1821 04ad 06       		.uleb128 0x6
 1822 04ae DA030000 		.4byte	.LASF78
 1823 04b2 0B       		.byte	0xb
 1824 04b3 4C       		.byte	0x4c
 1825 04b4 F4040000 		.4byte	0x4f4
 1826 04b8 18       		.byte	0x18
 1827 04b9 06       		.uleb128 0x6
 1828 04ba E8040000 		.4byte	.LASF79
 1829 04be 0B       		.byte	0xb
 1830 04bf 4D       		.byte	0x4d
 1831 04c0 D2040000 		.4byte	0x4d2
 1832 04c4 1C       		.byte	0x1c
 1833 04c5 06       		.uleb128 0x6
 1834 04c6 1A050000 		.4byte	.LASF80
 1835 04ca 0B       		.byte	0xb
 1836 04cb 4E       		.byte	0x4e
 1837 04cc 99020000 		.4byte	0x299
 1838 04d0 20       		.byte	0x20
 1839 04d1 00       		.byte	0
 1840 04d2 03       		.uleb128 0x3
 1841 04d3 B9030000 		.4byte	.LASF81
 1842 04d7 0B       		.byte	0xb
 1843 04d8 3A       		.byte	0x3a
 1844 04d9 DD040000 		.4byte	0x4dd
 1845 04dd 09       		.uleb128 0x9
 1846 04de 04       		.byte	0x4
 1847 04df E3040000 		.4byte	0x4e3
 1848 04e3 13       		.uleb128 0x13
 1849 04e4 EE040000 		.4byte	0x4ee
 1850 04e8 12       		.uleb128 0x12
 1851 04e9 EE040000 		.4byte	0x4ee
 1852 04ed 00       		.byte	0
 1853 04ee 09       		.uleb128 0x9
 1854 04ef 04       		.byte	0x4
 1855 04f0 5A040000 		.4byte	0x45a
 1856 04f4 09       		.uleb128 0x9
 1857 04f5 04       		.byte	0x4
 1858 04f6 9E000000 		.4byte	0x9e
 1859 04fa 03       		.uleb128 0x3
 1860 04fb B4020000 		.4byte	.LASF82
 1861 04ff 0B       		.byte	0xb
 1862 0500 82       		.byte	0x82
 1863 0501 5A040000 		.4byte	0x45a
 1864 0505 03       		.uleb128 0x3
 1865 0506 3D000000 		.4byte	.LASF83
 1866 050a 0B       		.byte	0xb
 1867 050b F5       		.byte	0xf5
 1868 050c 5A040000 		.4byte	0x45a
 1869 0510 09       		.uleb128 0x9
 1870 0511 04       		.byte	0x4
 1871 0512 16050000 		.4byte	0x516
 1872 0516 10       		.uleb128 0x10
ARM GAS  /tmp/ccAAWrMz.s 			page 34


 1873 0517 9E000000 		.4byte	0x9e
 1874 051b 05       		.uleb128 0x5
 1875 051c 50040000 		.4byte	.LASF84
 1876 0520 10       		.byte	0x10
 1877 0521 0C       		.byte	0xc
 1878 0522 3B       		.byte	0x3b
 1879 0523 58050000 		.4byte	0x558
 1880 0527 06       		.uleb128 0x6
 1881 0528 CA010000 		.4byte	.LASF85
 1882 052c 0C       		.byte	0xc
 1883 052d 3C       		.byte	0x3c
 1884 052e 22040000 		.4byte	0x422
 1885 0532 00       		.byte	0
 1886 0533 06       		.uleb128 0x6
 1887 0534 6A030000 		.4byte	.LASF86
 1888 0538 0C       		.byte	0xc
 1889 0539 3D       		.byte	0x3d
 1890 053a 59050000 		.4byte	0x559
 1891 053e 04       		.byte	0x4
 1892 053f 06       		.uleb128 0x6
 1893 0540 C1010000 		.4byte	.LASF87
 1894 0544 0C       		.byte	0xc
 1895 0545 3E       		.byte	0x3e
 1896 0546 59050000 		.4byte	0x559
 1897 054a 08       		.byte	0x8
 1898 054b 06       		.uleb128 0x6
 1899 054c CA030000 		.4byte	.LASF88
 1900 0550 0C       		.byte	0xc
 1901 0551 3F       		.byte	0x3f
 1902 0552 59050000 		.4byte	0x559
 1903 0556 0C       		.byte	0xc
 1904 0557 00       		.byte	0
 1905 0558 14       		.uleb128 0x14
 1906 0559 09       		.uleb128 0x9
 1907 055a 04       		.byte	0x4
 1908 055b 58050000 		.4byte	0x558
 1909 055f 15       		.uleb128 0x15
 1910 0560 9006     		.2byte	0x690
 1911 0562 0C       		.byte	0xc
 1912 0563 44       		.byte	0x44
 1913 0564 A4050000 		.4byte	0x5a4
 1914 0568 07       		.uleb128 0x7
 1915 0569 543000   		.ascii	"T0\000"
 1916 056c 0C       		.byte	0xc
 1917 056d 45       		.byte	0x45
 1918 056e A4050000 		.4byte	0x5a4
 1919 0572 00       		.byte	0
 1920 0573 16       		.uleb128 0x16
 1921 0574 543100   		.ascii	"T1\000"
 1922 0577 0C       		.byte	0xc
 1923 0578 46       		.byte	0x46
 1924 0579 A4050000 		.4byte	0x5a4
 1925 057d 5001     		.2byte	0x150
 1926 057f 16       		.uleb128 0x16
 1927 0580 543200   		.ascii	"T2\000"
 1928 0583 0C       		.byte	0xc
 1929 0584 47       		.byte	0x47
ARM GAS  /tmp/ccAAWrMz.s 			page 35


 1930 0585 A4050000 		.4byte	0x5a4
 1931 0589 A002     		.2byte	0x2a0
 1932 058b 16       		.uleb128 0x16
 1933 058c 543300   		.ascii	"T3\000"
 1934 058f 0C       		.byte	0xc
 1935 0590 48       		.byte	0x48
 1936 0591 A4050000 		.4byte	0x5a4
 1937 0595 F003     		.2byte	0x3f0
 1938 0597 16       		.uleb128 0x16
 1939 0598 543400   		.ascii	"T4\000"
 1940 059b 0C       		.byte	0xc
 1941 059c 49       		.byte	0x49
 1942 059d A4050000 		.4byte	0x5a4
 1943 05a1 4005     		.2byte	0x540
 1944 05a3 00       		.byte	0
 1945 05a4 17       		.uleb128 0x17
 1946 05a5 9B020000 		.4byte	0x29b
 1947 05a9 B4050000 		.4byte	0x5b4
 1948 05ad 18       		.uleb128 0x18
 1949 05ae 43030000 		.4byte	0x343
 1950 05b2 29       		.byte	0x29
 1951 05b3 00       		.byte	0
 1952 05b4 19       		.uleb128 0x19
 1953 05b5 7A040000 		.4byte	.LASF118
 1954 05b9 9006     		.2byte	0x690
 1955 05bb 0C       		.byte	0xc
 1956 05bc 43       		.byte	0x43
 1957 05bd D7050000 		.4byte	0x5d7
 1958 05c1 1A       		.uleb128 0x1a
 1959 05c2 776100   		.ascii	"wa\000"
 1960 05c5 0C       		.byte	0xc
 1961 05c6 4A       		.byte	0x4a
 1962 05c7 5F050000 		.4byte	0x55f
 1963 05cb 0F       		.uleb128 0xf
 1964 05cc 46010000 		.4byte	.LASF89
 1965 05d0 0C       		.byte	0xc
 1966 05d1 4B       		.byte	0x4b
 1967 05d2 D7050000 		.4byte	0x5d7
 1968 05d6 00       		.byte	0
 1969 05d7 17       		.uleb128 0x17
 1970 05d8 9E000000 		.4byte	0x9e
 1971 05dc E8050000 		.4byte	0x5e8
 1972 05e0 1B       		.uleb128 0x1b
 1973 05e1 43030000 		.4byte	0x343
 1974 05e5 8F06     		.2byte	0x68f
 1975 05e7 00       		.byte	0
 1976 05e8 1C       		.uleb128 0x1c
 1977 05e9 EA010000 		.4byte	.LASF90
 1978 05ed 01       		.byte	0x1
 1979 05ee 5A       		.byte	0x5a
 1980 05ef 01       		.byte	0x1
 1981 05f0 23080000 		.4byte	0x823
 1982 05f4 1D       		.uleb128 0x1d
 1983 05f5 6900     		.ascii	"i\000"
 1984 05f7 01       		.byte	0x1
 1985 05f8 5B       		.byte	0x5b
 1986 05f9 33000000 		.4byte	0x33
ARM GAS  /tmp/ccAAWrMz.s 			page 36


 1987 05fd 1D       		.uleb128 0x1d
 1988 05fe 6E00     		.ascii	"n\000"
 1989 0600 01       		.byte	0x1
 1990 0601 5C       		.byte	0x5c
 1991 0602 28000000 		.4byte	0x28
 1992 0606 1E       		.uleb128 0x1e
 1993 0607 17060000 		.4byte	0x617
 1994 060b 1D       		.uleb128 0x1d
 1995 060c 746D7000 		.ascii	"tmp\000"
 1996 0610 01       		.byte	0x1
 1997 0611 5F       		.byte	0x5f
 1998 0612 B4000000 		.4byte	0xb4
 1999 0616 00       		.byte	0
 2000 0617 1E       		.uleb128 0x1e
 2001 0618 28060000 		.4byte	0x628
 2002 061c 1D       		.uleb128 0x1d
 2003 061d 746D7000 		.ascii	"tmp\000"
 2004 0621 01       		.byte	0x1
 2005 0622 5F       		.byte	0x5f
 2006 0623 B4000000 		.4byte	0xb4
 2007 0627 00       		.byte	0
 2008 0628 1E       		.uleb128 0x1e
 2009 0629 39060000 		.4byte	0x639
 2010 062d 1D       		.uleb128 0x1d
 2011 062e 746D7000 		.ascii	"tmp\000"
 2012 0632 01       		.byte	0x1
 2013 0633 5F       		.byte	0x5f
 2014 0634 B4000000 		.4byte	0xb4
 2015 0638 00       		.byte	0
 2016 0639 1E       		.uleb128 0x1e
 2017 063a 4A060000 		.4byte	0x64a
 2018 063e 1D       		.uleb128 0x1d
 2019 063f 746D7000 		.ascii	"tmp\000"
 2020 0643 01       		.byte	0x1
 2021 0644 62       		.byte	0x62
 2022 0645 B4000000 		.4byte	0xb4
 2023 0649 00       		.byte	0
 2024 064a 1E       		.uleb128 0x1e
 2025 064b 5B060000 		.4byte	0x65b
 2026 064f 1D       		.uleb128 0x1d
 2027 0650 746D7000 		.ascii	"tmp\000"
 2028 0654 01       		.byte	0x1
 2029 0655 65       		.byte	0x65
 2030 0656 B4000000 		.4byte	0xb4
 2031 065a 00       		.byte	0
 2032 065b 1E       		.uleb128 0x1e
 2033 065c 6C060000 		.4byte	0x66c
 2034 0660 1D       		.uleb128 0x1d
 2035 0661 746D7000 		.ascii	"tmp\000"
 2036 0665 01       		.byte	0x1
 2037 0666 66       		.byte	0x66
 2038 0667 B4000000 		.4byte	0xb4
 2039 066b 00       		.byte	0
 2040 066c 1E       		.uleb128 0x1e
 2041 066d 7D060000 		.4byte	0x67d
 2042 0671 1D       		.uleb128 0x1d
 2043 0672 746D7000 		.ascii	"tmp\000"
ARM GAS  /tmp/ccAAWrMz.s 			page 37


 2044 0676 01       		.byte	0x1
 2045 0677 66       		.byte	0x66
 2046 0678 B4000000 		.4byte	0xb4
 2047 067c 00       		.byte	0
 2048 067d 1E       		.uleb128 0x1e
 2049 067e 8E060000 		.4byte	0x68e
 2050 0682 1D       		.uleb128 0x1d
 2051 0683 746D7000 		.ascii	"tmp\000"
 2052 0687 01       		.byte	0x1
 2053 0688 66       		.byte	0x66
 2054 0689 B4000000 		.4byte	0xb4
 2055 068d 00       		.byte	0
 2056 068e 1E       		.uleb128 0x1e
 2057 068f 9F060000 		.4byte	0x69f
 2058 0693 1D       		.uleb128 0x1d
 2059 0694 746D7000 		.ascii	"tmp\000"
 2060 0698 01       		.byte	0x1
 2061 0699 67       		.byte	0x67
 2062 069a B4000000 		.4byte	0xb4
 2063 069e 00       		.byte	0
 2064 069f 1E       		.uleb128 0x1e
 2065 06a0 B0060000 		.4byte	0x6b0
 2066 06a4 1D       		.uleb128 0x1d
 2067 06a5 746D7000 		.ascii	"tmp\000"
 2068 06a9 01       		.byte	0x1
 2069 06aa 67       		.byte	0x67
 2070 06ab B4000000 		.4byte	0xb4
 2071 06af 00       		.byte	0
 2072 06b0 1E       		.uleb128 0x1e
 2073 06b1 C1060000 		.4byte	0x6c1
 2074 06b5 1D       		.uleb128 0x1d
 2075 06b6 746D7000 		.ascii	"tmp\000"
 2076 06ba 01       		.byte	0x1
 2077 06bb 67       		.byte	0x67
 2078 06bc B4000000 		.4byte	0xb4
 2079 06c0 00       		.byte	0
 2080 06c1 1E       		.uleb128 0x1e
 2081 06c2 D2060000 		.4byte	0x6d2
 2082 06c6 1D       		.uleb128 0x1d
 2083 06c7 746D7000 		.ascii	"tmp\000"
 2084 06cb 01       		.byte	0x1
 2085 06cc 6C       		.byte	0x6c
 2086 06cd B4000000 		.4byte	0xb4
 2087 06d1 00       		.byte	0
 2088 06d2 1E       		.uleb128 0x1e
 2089 06d3 E3060000 		.4byte	0x6e3
 2090 06d7 1D       		.uleb128 0x1d
 2091 06d8 746D7000 		.ascii	"tmp\000"
 2092 06dc 01       		.byte	0x1
 2093 06dd 6C       		.byte	0x6c
 2094 06de B4000000 		.4byte	0xb4
 2095 06e2 00       		.byte	0
 2096 06e3 1E       		.uleb128 0x1e
 2097 06e4 F4060000 		.4byte	0x6f4
 2098 06e8 1D       		.uleb128 0x1d
 2099 06e9 746D7000 		.ascii	"tmp\000"
 2100 06ed 01       		.byte	0x1
ARM GAS  /tmp/ccAAWrMz.s 			page 38


 2101 06ee 6C       		.byte	0x6c
 2102 06ef B4000000 		.4byte	0xb4
 2103 06f3 00       		.byte	0
 2104 06f4 1E       		.uleb128 0x1e
 2105 06f5 05070000 		.4byte	0x705
 2106 06f9 1D       		.uleb128 0x1d
 2107 06fa 746D7000 		.ascii	"tmp\000"
 2108 06fe 01       		.byte	0x1
 2109 06ff 70       		.byte	0x70
 2110 0700 B4000000 		.4byte	0xb4
 2111 0704 00       		.byte	0
 2112 0705 1E       		.uleb128 0x1e
 2113 0706 16070000 		.4byte	0x716
 2114 070a 1D       		.uleb128 0x1d
 2115 070b 746D7000 		.ascii	"tmp\000"
 2116 070f 01       		.byte	0x1
 2117 0710 73       		.byte	0x73
 2118 0711 B4000000 		.4byte	0xb4
 2119 0715 00       		.byte	0
 2120 0716 1E       		.uleb128 0x1e
 2121 0717 27070000 		.4byte	0x727
 2122 071b 1D       		.uleb128 0x1d
 2123 071c 746D7000 		.ascii	"tmp\000"
 2124 0720 01       		.byte	0x1
 2125 0721 78       		.byte	0x78
 2126 0722 B4000000 		.4byte	0xb4
 2127 0726 00       		.byte	0
 2128 0727 1E       		.uleb128 0x1e
 2129 0728 38070000 		.4byte	0x738
 2130 072c 1D       		.uleb128 0x1d
 2131 072d 746D7000 		.ascii	"tmp\000"
 2132 0731 01       		.byte	0x1
 2133 0732 78       		.byte	0x78
 2134 0733 B4000000 		.4byte	0xb4
 2135 0737 00       		.byte	0
 2136 0738 1E       		.uleb128 0x1e
 2137 0739 49070000 		.4byte	0x749
 2138 073d 1D       		.uleb128 0x1d
 2139 073e 746D7000 		.ascii	"tmp\000"
 2140 0742 01       		.byte	0x1
 2141 0743 78       		.byte	0x78
 2142 0744 B4000000 		.4byte	0xb4
 2143 0748 00       		.byte	0
 2144 0749 1E       		.uleb128 0x1e
 2145 074a 5A070000 		.4byte	0x75a
 2146 074e 1D       		.uleb128 0x1d
 2147 074f 746D7000 		.ascii	"tmp\000"
 2148 0753 01       		.byte	0x1
 2149 0754 7B       		.byte	0x7b
 2150 0755 B4000000 		.4byte	0xb4
 2151 0759 00       		.byte	0
 2152 075a 1E       		.uleb128 0x1e
 2153 075b 6B070000 		.4byte	0x76b
 2154 075f 1D       		.uleb128 0x1d
 2155 0760 746D7000 		.ascii	"tmp\000"
 2156 0764 01       		.byte	0x1
 2157 0765 7E       		.byte	0x7e
ARM GAS  /tmp/ccAAWrMz.s 			page 39


 2158 0766 B4000000 		.4byte	0xb4
 2159 076a 00       		.byte	0
 2160 076b 1E       		.uleb128 0x1e
 2161 076c 7C070000 		.4byte	0x77c
 2162 0770 1D       		.uleb128 0x1d
 2163 0771 746D7000 		.ascii	"tmp\000"
 2164 0775 01       		.byte	0x1
 2165 0776 85       		.byte	0x85
 2166 0777 B4000000 		.4byte	0xb4
 2167 077b 00       		.byte	0
 2168 077c 1E       		.uleb128 0x1e
 2169 077d 8D070000 		.4byte	0x78d
 2170 0781 1D       		.uleb128 0x1d
 2171 0782 746D7000 		.ascii	"tmp\000"
 2172 0786 01       		.byte	0x1
 2173 0787 85       		.byte	0x85
 2174 0788 B4000000 		.4byte	0xb4
 2175 078c 00       		.byte	0
 2176 078d 1E       		.uleb128 0x1e
 2177 078e 9E070000 		.4byte	0x79e
 2178 0792 1D       		.uleb128 0x1d
 2179 0793 746D7000 		.ascii	"tmp\000"
 2180 0797 01       		.byte	0x1
 2181 0798 85       		.byte	0x85
 2182 0799 B4000000 		.4byte	0xb4
 2183 079d 00       		.byte	0
 2184 079e 1E       		.uleb128 0x1e
 2185 079f AF070000 		.4byte	0x7af
 2186 07a3 1D       		.uleb128 0x1d
 2187 07a4 746D7000 		.ascii	"tmp\000"
 2188 07a8 01       		.byte	0x1
 2189 07a9 88       		.byte	0x88
 2190 07aa B4000000 		.4byte	0xb4
 2191 07ae 00       		.byte	0
 2192 07af 1E       		.uleb128 0x1e
 2193 07b0 C0070000 		.4byte	0x7c0
 2194 07b4 1D       		.uleb128 0x1d
 2195 07b5 746D7000 		.ascii	"tmp\000"
 2196 07b9 01       		.byte	0x1
 2197 07ba 8B       		.byte	0x8b
 2198 07bb B4000000 		.4byte	0xb4
 2199 07bf 00       		.byte	0
 2200 07c0 1E       		.uleb128 0x1e
 2201 07c1 D1070000 		.4byte	0x7d1
 2202 07c5 1D       		.uleb128 0x1d
 2203 07c6 746D7000 		.ascii	"tmp\000"
 2204 07ca 01       		.byte	0x1
 2205 07cb 8C       		.byte	0x8c
 2206 07cc B4000000 		.4byte	0xb4
 2207 07d0 00       		.byte	0
 2208 07d1 1E       		.uleb128 0x1e
 2209 07d2 E2070000 		.4byte	0x7e2
 2210 07d6 1D       		.uleb128 0x1d
 2211 07d7 746D7000 		.ascii	"tmp\000"
 2212 07db 01       		.byte	0x1
 2213 07dc 8C       		.byte	0x8c
 2214 07dd B4000000 		.4byte	0xb4
ARM GAS  /tmp/ccAAWrMz.s 			page 40


 2215 07e1 00       		.byte	0
 2216 07e2 1E       		.uleb128 0x1e
 2217 07e3 F3070000 		.4byte	0x7f3
 2218 07e7 1D       		.uleb128 0x1d
 2219 07e8 746D7000 		.ascii	"tmp\000"
 2220 07ec 01       		.byte	0x1
 2221 07ed 8C       		.byte	0x8c
 2222 07ee B4000000 		.4byte	0xb4
 2223 07f2 00       		.byte	0
 2224 07f3 1E       		.uleb128 0x1e
 2225 07f4 04080000 		.4byte	0x804
 2226 07f8 1D       		.uleb128 0x1d
 2227 07f9 746D7000 		.ascii	"tmp\000"
 2228 07fd 01       		.byte	0x1
 2229 07fe 8E       		.byte	0x8e
 2230 07ff B4000000 		.4byte	0xb4
 2231 0803 00       		.byte	0
 2232 0804 1E       		.uleb128 0x1e
 2233 0805 15080000 		.4byte	0x815
 2234 0809 1D       		.uleb128 0x1d
 2235 080a 746D7000 		.ascii	"tmp\000"
 2236 080e 01       		.byte	0x1
 2237 080f 8E       		.byte	0x8e
 2238 0810 B4000000 		.4byte	0xb4
 2239 0814 00       		.byte	0
 2240 0815 1F       		.uleb128 0x1f
 2241 0816 1D       		.uleb128 0x1d
 2242 0817 746D7000 		.ascii	"tmp\000"
 2243 081b 01       		.byte	0x1
 2244 081c 8E       		.byte	0x8e
 2245 081d B4000000 		.4byte	0xb4
 2246 0821 00       		.byte	0
 2247 0822 00       		.byte	0
 2248 0823 1C       		.uleb128 0x1c
 2249 0824 F6020000 		.4byte	.LASF91
 2250 0828 01       		.byte	0x1
 2251 0829 B1       		.byte	0xb1
 2252 082a 01       		.byte	0x1
 2253 082b 250A0000 		.4byte	0xa25
 2254 082f 1D       		.uleb128 0x1d
 2255 0830 6900     		.ascii	"i\000"
 2256 0832 01       		.byte	0x1
 2257 0833 B2       		.byte	0xb2
 2258 0834 33000000 		.4byte	0x33
 2259 0838 1D       		.uleb128 0x1d
 2260 0839 6E00     		.ascii	"n\000"
 2261 083b 01       		.byte	0x1
 2262 083c B3       		.byte	0xb3
 2263 083d 28000000 		.4byte	0x28
 2264 0841 1E       		.uleb128 0x1e
 2265 0842 52080000 		.4byte	0x852
 2266 0846 1D       		.uleb128 0x1d
 2267 0847 746D7000 		.ascii	"tmp\000"
 2268 084b 01       		.byte	0x1
 2269 084c B6       		.byte	0xb6
 2270 084d B4000000 		.4byte	0xb4
 2271 0851 00       		.byte	0
ARM GAS  /tmp/ccAAWrMz.s 			page 41


 2272 0852 1E       		.uleb128 0x1e
 2273 0853 63080000 		.4byte	0x863
 2274 0857 1D       		.uleb128 0x1d
 2275 0858 746D7000 		.ascii	"tmp\000"
 2276 085c 01       		.byte	0x1
 2277 085d B6       		.byte	0xb6
 2278 085e B4000000 		.4byte	0xb4
 2279 0862 00       		.byte	0
 2280 0863 1E       		.uleb128 0x1e
 2281 0864 74080000 		.4byte	0x874
 2282 0868 1D       		.uleb128 0x1d
 2283 0869 746D7000 		.ascii	"tmp\000"
 2284 086d 01       		.byte	0x1
 2285 086e B6       		.byte	0xb6
 2286 086f B4000000 		.4byte	0xb4
 2287 0873 00       		.byte	0
 2288 0874 1E       		.uleb128 0x1e
 2289 0875 85080000 		.4byte	0x885
 2290 0879 1D       		.uleb128 0x1d
 2291 087a 746D7000 		.ascii	"tmp\000"
 2292 087e 01       		.byte	0x1
 2293 087f BB       		.byte	0xbb
 2294 0880 B4000000 		.4byte	0xb4
 2295 0884 00       		.byte	0
 2296 0885 1E       		.uleb128 0x1e
 2297 0886 96080000 		.4byte	0x896
 2298 088a 1D       		.uleb128 0x1d
 2299 088b 746D7000 		.ascii	"tmp\000"
 2300 088f 01       		.byte	0x1
 2301 0890 BB       		.byte	0xbb
 2302 0891 B4000000 		.4byte	0xb4
 2303 0895 00       		.byte	0
 2304 0896 1E       		.uleb128 0x1e
 2305 0897 A7080000 		.4byte	0x8a7
 2306 089b 1D       		.uleb128 0x1d
 2307 089c 746D7000 		.ascii	"tmp\000"
 2308 08a0 01       		.byte	0x1
 2309 08a1 BB       		.byte	0xbb
 2310 08a2 B4000000 		.4byte	0xb4
 2311 08a6 00       		.byte	0
 2312 08a7 1E       		.uleb128 0x1e
 2313 08a8 D4080000 		.4byte	0x8d4
 2314 08ac 1D       		.uleb128 0x1d
 2315 08ad 6300     		.ascii	"c\000"
 2316 08af 01       		.byte	0x1
 2317 08b0 BF       		.byte	0xbf
 2318 08b1 2D040000 		.4byte	0x42d
 2319 08b5 1E       		.uleb128 0x1e
 2320 08b6 C6080000 		.4byte	0x8c6
 2321 08ba 1D       		.uleb128 0x1d
 2322 08bb 746D7000 		.ascii	"tmp\000"
 2323 08bf 01       		.byte	0x1
 2324 08c0 C1       		.byte	0xc1
 2325 08c1 B4000000 		.4byte	0xb4
 2326 08c5 00       		.byte	0
 2327 08c6 1F       		.uleb128 0x1f
 2328 08c7 1D       		.uleb128 0x1d
ARM GAS  /tmp/ccAAWrMz.s 			page 42


 2329 08c8 746D7000 		.ascii	"tmp\000"
 2330 08cc 01       		.byte	0x1
 2331 08cd C3       		.byte	0xc3
 2332 08ce B4000000 		.4byte	0xb4
 2333 08d2 00       		.byte	0
 2334 08d3 00       		.byte	0
 2335 08d4 1E       		.uleb128 0x1e
 2336 08d5 E5080000 		.4byte	0x8e5
 2337 08d9 1D       		.uleb128 0x1d
 2338 08da 746D7000 		.ascii	"tmp\000"
 2339 08de 01       		.byte	0x1
 2340 08df C6       		.byte	0xc6
 2341 08e0 B4000000 		.4byte	0xb4
 2342 08e4 00       		.byte	0
 2343 08e5 1E       		.uleb128 0x1e
 2344 08e6 F6080000 		.4byte	0x8f6
 2345 08ea 1D       		.uleb128 0x1d
 2346 08eb 746D7000 		.ascii	"tmp\000"
 2347 08ef 01       		.byte	0x1
 2348 08f0 C6       		.byte	0xc6
 2349 08f1 B4000000 		.4byte	0xb4
 2350 08f5 00       		.byte	0
 2351 08f6 1E       		.uleb128 0x1e
 2352 08f7 07090000 		.4byte	0x907
 2353 08fb 1D       		.uleb128 0x1d
 2354 08fc 746D7000 		.ascii	"tmp\000"
 2355 0900 01       		.byte	0x1
 2356 0901 C6       		.byte	0xc6
 2357 0902 B4000000 		.4byte	0xb4
 2358 0906 00       		.byte	0
 2359 0907 1E       		.uleb128 0x1e
 2360 0908 18090000 		.4byte	0x918
 2361 090c 1D       		.uleb128 0x1d
 2362 090d 746D7000 		.ascii	"tmp\000"
 2363 0911 01       		.byte	0x1
 2364 0912 C8       		.byte	0xc8
 2365 0913 B4000000 		.4byte	0xb4
 2366 0917 00       		.byte	0
 2367 0918 1E       		.uleb128 0x1e
 2368 0919 29090000 		.4byte	0x929
 2369 091d 1D       		.uleb128 0x1d
 2370 091e 746D7000 		.ascii	"tmp\000"
 2371 0922 01       		.byte	0x1
 2372 0923 C8       		.byte	0xc8
 2373 0924 B4000000 		.4byte	0xb4
 2374 0928 00       		.byte	0
 2375 0929 1E       		.uleb128 0x1e
 2376 092a 3A090000 		.4byte	0x93a
 2377 092e 1D       		.uleb128 0x1d
 2378 092f 746D7000 		.ascii	"tmp\000"
 2379 0933 01       		.byte	0x1
 2380 0934 C8       		.byte	0xc8
 2381 0935 B4000000 		.4byte	0xb4
 2382 0939 00       		.byte	0
 2383 093a 1E       		.uleb128 0x1e
 2384 093b 4B090000 		.4byte	0x94b
 2385 093f 1D       		.uleb128 0x1d
ARM GAS  /tmp/ccAAWrMz.s 			page 43


 2386 0940 746D7000 		.ascii	"tmp\000"
 2387 0944 01       		.byte	0x1
 2388 0945 CD       		.byte	0xcd
 2389 0946 B4000000 		.4byte	0xb4
 2390 094a 00       		.byte	0
 2391 094b 1E       		.uleb128 0x1e
 2392 094c 5C090000 		.4byte	0x95c
 2393 0950 1D       		.uleb128 0x1d
 2394 0951 746D7000 		.ascii	"tmp\000"
 2395 0955 01       		.byte	0x1
 2396 0956 CD       		.byte	0xcd
 2397 0957 B4000000 		.4byte	0xb4
 2398 095b 00       		.byte	0
 2399 095c 1E       		.uleb128 0x1e
 2400 095d 6D090000 		.4byte	0x96d
 2401 0961 1D       		.uleb128 0x1d
 2402 0962 746D7000 		.ascii	"tmp\000"
 2403 0966 01       		.byte	0x1
 2404 0967 CD       		.byte	0xcd
 2405 0968 B4000000 		.4byte	0xb4
 2406 096c 00       		.byte	0
 2407 096d 1E       		.uleb128 0x1e
 2408 096e 7E090000 		.4byte	0x97e
 2409 0972 1D       		.uleb128 0x1d
 2410 0973 746D7000 		.ascii	"tmp\000"
 2411 0977 01       		.byte	0x1
 2412 0978 CF       		.byte	0xcf
 2413 0979 B4000000 		.4byte	0xb4
 2414 097d 00       		.byte	0
 2415 097e 1E       		.uleb128 0x1e
 2416 097f 8F090000 		.4byte	0x98f
 2417 0983 1D       		.uleb128 0x1d
 2418 0984 746D7000 		.ascii	"tmp\000"
 2419 0988 01       		.byte	0x1
 2420 0989 CF       		.byte	0xcf
 2421 098a B4000000 		.4byte	0xb4
 2422 098e 00       		.byte	0
 2423 098f 1E       		.uleb128 0x1e
 2424 0990 A0090000 		.4byte	0x9a0
 2425 0994 1D       		.uleb128 0x1d
 2426 0995 746D7000 		.ascii	"tmp\000"
 2427 0999 01       		.byte	0x1
 2428 099a CF       		.byte	0xcf
 2429 099b B4000000 		.4byte	0xb4
 2430 099f 00       		.byte	0
 2431 09a0 1E       		.uleb128 0x1e
 2432 09a1 B1090000 		.4byte	0x9b1
 2433 09a5 1D       		.uleb128 0x1d
 2434 09a6 746D7000 		.ascii	"tmp\000"
 2435 09aa 01       		.byte	0x1
 2436 09ab D3       		.byte	0xd3
 2437 09ac B4000000 		.4byte	0xb4
 2438 09b0 00       		.byte	0
 2439 09b1 1E       		.uleb128 0x1e
 2440 09b2 C2090000 		.4byte	0x9c2
 2441 09b6 1D       		.uleb128 0x1d
 2442 09b7 746D7000 		.ascii	"tmp\000"
ARM GAS  /tmp/ccAAWrMz.s 			page 44


 2443 09bb 01       		.byte	0x1
 2444 09bc D5       		.byte	0xd5
 2445 09bd B4000000 		.4byte	0xb4
 2446 09c1 00       		.byte	0
 2447 09c2 1E       		.uleb128 0x1e
 2448 09c3 D3090000 		.4byte	0x9d3
 2449 09c7 1D       		.uleb128 0x1d
 2450 09c8 746D7000 		.ascii	"tmp\000"
 2451 09cc 01       		.byte	0x1
 2452 09cd D6       		.byte	0xd6
 2453 09ce B4000000 		.4byte	0xb4
 2454 09d2 00       		.byte	0
 2455 09d3 1E       		.uleb128 0x1e
 2456 09d4 E4090000 		.4byte	0x9e4
 2457 09d8 1D       		.uleb128 0x1d
 2458 09d9 746D7000 		.ascii	"tmp\000"
 2459 09dd 01       		.byte	0x1
 2460 09de D6       		.byte	0xd6
 2461 09df B4000000 		.4byte	0xb4
 2462 09e3 00       		.byte	0
 2463 09e4 1E       		.uleb128 0x1e
 2464 09e5 F5090000 		.4byte	0x9f5
 2465 09e9 1D       		.uleb128 0x1d
 2466 09ea 746D7000 		.ascii	"tmp\000"
 2467 09ee 01       		.byte	0x1
 2468 09ef D6       		.byte	0xd6
 2469 09f0 B4000000 		.4byte	0xb4
 2470 09f4 00       		.byte	0
 2471 09f5 1E       		.uleb128 0x1e
 2472 09f6 060A0000 		.4byte	0xa06
 2473 09fa 1D       		.uleb128 0x1d
 2474 09fb 746D7000 		.ascii	"tmp\000"
 2475 09ff 01       		.byte	0x1
 2476 0a00 DD       		.byte	0xdd
 2477 0a01 B4000000 		.4byte	0xb4
 2478 0a05 00       		.byte	0
 2479 0a06 1E       		.uleb128 0x1e
 2480 0a07 170A0000 		.4byte	0xa17
 2481 0a0b 1D       		.uleb128 0x1d
 2482 0a0c 746D7000 		.ascii	"tmp\000"
 2483 0a10 01       		.byte	0x1
 2484 0a11 DD       		.byte	0xdd
 2485 0a12 B4000000 		.4byte	0xb4
 2486 0a16 00       		.byte	0
 2487 0a17 1F       		.uleb128 0x1f
 2488 0a18 1D       		.uleb128 0x1d
 2489 0a19 746D7000 		.ascii	"tmp\000"
 2490 0a1d 01       		.byte	0x1
 2491 0a1e DD       		.byte	0xdd
 2492 0a1f B4000000 		.4byte	0xb4
 2493 0a23 00       		.byte	0
 2494 0a24 00       		.byte	0
 2495 0a25 20       		.uleb128 0x20
 2496 0a26 EF020000 		.4byte	.LASF92
 2497 0a2a 01       		.byte	0x1
 2498 0a2b 39       		.byte	0x39
 2499 0a2c 00000000 		.4byte	.LFB7
ARM GAS  /tmp/ccAAWrMz.s 			page 45


 2500 0a30 02000000 		.4byte	.LFE7-.LFB7
 2501 0a34 01       		.uleb128 0x1
 2502 0a35 9C       		.byte	0x9c
 2503 0a36 470A0000 		.4byte	0xa47
 2504 0a3a 21       		.uleb128 0x21
 2505 0a3b 717000   		.ascii	"qp\000"
 2506 0a3e 01       		.byte	0x1
 2507 0a3f 39       		.byte	0x39
 2508 0a40 EE040000 		.4byte	0x4ee
 2509 0a44 01       		.uleb128 0x1
 2510 0a45 50       		.byte	0x50
 2511 0a46 00       		.byte	0
 2512 0a47 22       		.uleb128 0x22
 2513 0a48 3F030000 		.4byte	.LASF94
 2514 0a4c 01       		.byte	0x1
 2515 0a4d 53       		.byte	0x53
 2516 0a4e 13010000 		.4byte	0x113
 2517 0a52 00000000 		.4byte	.LFB9
 2518 0a56 14000000 		.4byte	.LFE9-.LFB9
 2519 0a5a 01       		.uleb128 0x1
 2520 0a5b 9C       		.byte	0x9c
 2521 0a5c 870A0000 		.4byte	0xa87
 2522 0a60 23       		.uleb128 0x23
 2523 0a61 7000     		.ascii	"p\000"
 2524 0a63 01       		.byte	0x1
 2525 0a64 53       		.byte	0x53
 2526 0a65 99020000 		.4byte	0x299
 2527 0a69 00000000 		.4byte	.LLST0
 2528 0a6d 24       		.uleb128 0x24
 2529 0a6e 10000000 		.4byte	.LVL3
 2530 0a72 16150000 		.4byte	0x1516
 2531 0a76 25       		.uleb128 0x25
 2532 0a77 01       		.uleb128 0x1
 2533 0a78 51       		.byte	0x51
 2534 0a79 02       		.uleb128 0x2
 2535 0a7a 08       		.byte	0x8
 2536 0a7b C8       		.byte	0xc8
 2537 0a7c 25       		.uleb128 0x25
 2538 0a7d 01       		.uleb128 0x1
 2539 0a7e 50       		.byte	0x50
 2540 0a7f 05       		.uleb128 0x5
 2541 0a80 03       		.byte	0x3
 2542 0a81 00000000 		.4byte	.LANCHOR0
 2543 0a85 00       		.byte	0
 2544 0a86 00       		.byte	0
 2545 0a87 20       		.uleb128 0x20
 2546 0a88 A3030000 		.4byte	.LASF93
 2547 0a8c 01       		.byte	0x1
 2548 0a8d 4E       		.byte	0x4e
 2549 0a8e 00000000 		.4byte	.LFB8
 2550 0a92 2E000000 		.4byte	.LFE8-.LFB8
 2551 0a96 01       		.uleb128 0x1
 2552 0a97 9C       		.byte	0x9c
 2553 0a98 C40A0000 		.4byte	0xac4
 2554 0a9c 24       		.uleb128 0x24
 2555 0a9d 28000000 		.4byte	.LVL4
 2556 0aa1 37150000 		.4byte	0x1537
ARM GAS  /tmp/ccAAWrMz.s 			page 46


 2557 0aa5 25       		.uleb128 0x25
 2558 0aa6 01       		.uleb128 0x1
 2559 0aa7 53       		.byte	0x53
 2560 0aa8 05       		.uleb128 0x5
 2561 0aa9 03       		.byte	0x3
 2562 0aaa 00000000 		.4byte	notify
 2563 0aae 25       		.uleb128 0x25
 2564 0aaf 01       		.uleb128 0x1
 2565 0ab0 52       		.byte	0x52
 2566 0ab1 01       		.uleb128 0x1
 2567 0ab2 34       		.byte	0x34
 2568 0ab3 25       		.uleb128 0x25
 2569 0ab4 01       		.uleb128 0x1
 2570 0ab5 50       		.byte	0x50
 2571 0ab6 05       		.uleb128 0x5
 2572 0ab7 03       		.byte	0x3
 2573 0ab8 00000000 		.4byte	.LANCHOR0
 2574 0abc 25       		.uleb128 0x25
 2575 0abd 02       		.uleb128 0x2
 2576 0abe 7D       		.byte	0x7d
 2577 0abf 00       		.sleb128 0
 2578 0ac0 01       		.uleb128 0x1
 2579 0ac1 30       		.byte	0x30
 2580 0ac2 00       		.byte	0
 2581 0ac3 00       		.byte	0
 2582 0ac4 22       		.uleb128 0x22
 2583 0ac5 47030000 		.4byte	.LASF95
 2584 0ac9 01       		.byte	0x1
 2585 0aca AA       		.byte	0xaa
 2586 0acb 13010000 		.4byte	0x113
 2587 0acf 00000000 		.4byte	.LFB12
 2588 0ad3 16000000 		.4byte	.LFE12-.LFB12
 2589 0ad7 01       		.uleb128 0x1
 2590 0ad8 9C       		.byte	0x9c
 2591 0ad9 090B0000 		.4byte	0xb09
 2592 0add 23       		.uleb128 0x23
 2593 0ade 7000     		.ascii	"p\000"
 2594 0ae0 01       		.byte	0x1
 2595 0ae1 AA       		.byte	0xaa
 2596 0ae2 99020000 		.4byte	0x299
 2597 0ae6 21000000 		.4byte	.LLST1
 2598 0aea 24       		.uleb128 0x24
 2599 0aeb 12000000 		.4byte	.LVL7
 2600 0aef 5D150000 		.4byte	0x155d
 2601 0af3 25       		.uleb128 0x25
 2602 0af4 01       		.uleb128 0x1
 2603 0af5 52       		.byte	0x52
 2604 0af6 02       		.uleb128 0x2
 2605 0af7 08       		.byte	0x8
 2606 0af8 C8       		.byte	0xc8
 2607 0af9 25       		.uleb128 0x25
 2608 0afa 01       		.uleb128 0x1
 2609 0afb 51       		.byte	0x51
 2610 0afc 01       		.uleb128 0x1
 2611 0afd 30       		.byte	0x30
 2612 0afe 25       		.uleb128 0x25
 2613 0aff 01       		.uleb128 0x1
ARM GAS  /tmp/ccAAWrMz.s 			page 47


 2614 0b00 50       		.byte	0x50
 2615 0b01 05       		.uleb128 0x5
 2616 0b02 03       		.byte	0x3
 2617 0b03 00000000 		.4byte	.LANCHOR1
 2618 0b07 00       		.byte	0
 2619 0b08 00       		.byte	0
 2620 0b09 20       		.uleb128 0x20
 2621 0b0a AB000000 		.4byte	.LASF96
 2622 0b0e 01       		.byte	0x1
 2623 0b0f A5       		.byte	0xa5
 2624 0b10 00000000 		.4byte	.LFB11
 2625 0b14 2E000000 		.4byte	.LFE11-.LFB11
 2626 0b18 01       		.uleb128 0x1
 2627 0b19 9C       		.byte	0x9c
 2628 0b1a 460B0000 		.4byte	0xb46
 2629 0b1e 24       		.uleb128 0x24
 2630 0b1f 28000000 		.4byte	.LVL8
 2631 0b23 83150000 		.4byte	0x1583
 2632 0b27 25       		.uleb128 0x25
 2633 0b28 01       		.uleb128 0x1
 2634 0b29 53       		.byte	0x53
 2635 0b2a 05       		.uleb128 0x5
 2636 0b2b 03       		.byte	0x3
 2637 0b2c 00000000 		.4byte	notify
 2638 0b30 25       		.uleb128 0x25
 2639 0b31 01       		.uleb128 0x1
 2640 0b32 52       		.byte	0x52
 2641 0b33 01       		.uleb128 0x1
 2642 0b34 34       		.byte	0x34
 2643 0b35 25       		.uleb128 0x25
 2644 0b36 01       		.uleb128 0x1
 2645 0b37 50       		.byte	0x50
 2646 0b38 05       		.uleb128 0x5
 2647 0b39 03       		.byte	0x3
 2648 0b3a 00000000 		.4byte	.LANCHOR1
 2649 0b3e 25       		.uleb128 0x25
 2650 0b3f 02       		.uleb128 0x2
 2651 0b40 7D       		.byte	0x7d
 2652 0b41 00       		.sleb128 0
 2653 0b42 01       		.uleb128 0x1
 2654 0b43 30       		.byte	0x30
 2655 0b44 00       		.byte	0
 2656 0b45 00       		.byte	0
 2657 0b46 26       		.uleb128 0x26
 2658 0b47 E8050000 		.4byte	0x5e8
 2659 0b4b 00000000 		.4byte	.LFB10
 2660 0b4f BE020000 		.4byte	.LFE10-.LFB10
 2661 0b53 01       		.uleb128 0x1
 2662 0b54 9C       		.byte	0x9c
 2663 0b55 0A100000 		.4byte	0x100a
 2664 0b59 27       		.uleb128 0x27
 2665 0b5a F4050000 		.4byte	0x5f4
 2666 0b5e 27       		.uleb128 0x27
 2667 0b5f FD050000 		.4byte	0x5fd
 2668 0b63 28       		.uleb128 0x28
 2669 0b64 00000000 		.4byte	.Ldebug_ranges0+0
 2670 0b68 740B0000 		.4byte	0xb74
ARM GAS  /tmp/ccAAWrMz.s 			page 48


 2671 0b6c 29       		.uleb128 0x29
 2672 0b6d 0B060000 		.4byte	0x60b
 2673 0b71 01       		.uleb128 0x1
 2674 0b72 53       		.byte	0x53
 2675 0b73 00       		.byte	0
 2676 0b74 28       		.uleb128 0x28
 2677 0b75 18000000 		.4byte	.Ldebug_ranges0+0x18
 2678 0b79 FA0F0000 		.4byte	0xffa
 2679 0b7d 2A       		.uleb128 0x2a
 2680 0b7e F4050000 		.4byte	0x5f4
 2681 0b82 42000000 		.4byte	.LLST2
 2682 0b86 2A       		.uleb128 0x2a
 2683 0b87 FD050000 		.4byte	0x5fd
 2684 0b8b A7000000 		.4byte	.LLST3
 2685 0b8f 2B       		.uleb128 0x2b
 2686 0b90 26000000 		.4byte	.LBB103
 2687 0b94 06000000 		.4byte	.LBE103-.LBB103
 2688 0b98 A40B0000 		.4byte	0xba4
 2689 0b9c 29       		.uleb128 0x29
 2690 0b9d 2D060000 		.4byte	0x62d
 2691 0ba1 01       		.uleb128 0x1
 2692 0ba2 53       		.byte	0x53
 2693 0ba3 00       		.byte	0
 2694 0ba4 2B       		.uleb128 0x2b
 2695 0ba5 2C000000 		.4byte	.LBB104
 2696 0ba9 08000000 		.4byte	.LBE104-.LBB104
 2697 0bad B90B0000 		.4byte	0xbb9
 2698 0bb1 29       		.uleb128 0x29
 2699 0bb2 3E060000 		.4byte	0x63e
 2700 0bb6 01       		.uleb128 0x1
 2701 0bb7 53       		.byte	0x53
 2702 0bb8 00       		.byte	0
 2703 0bb9 2B       		.uleb128 0x2b
 2704 0bba 4A000000 		.4byte	.LBB105
 2705 0bbe 06000000 		.4byte	.LBE105-.LBB105
 2706 0bc2 CE0B0000 		.4byte	0xbce
 2707 0bc6 29       		.uleb128 0x29
 2708 0bc7 4F060000 		.4byte	0x64f
 2709 0bcb 01       		.uleb128 0x1
 2710 0bcc 53       		.byte	0x53
 2711 0bcd 00       		.byte	0
 2712 0bce 2B       		.uleb128 0x2b
 2713 0bcf 50000000 		.4byte	.LBB106
 2714 0bd3 06000000 		.4byte	.LBE106-.LBB106
 2715 0bd7 E30B0000 		.4byte	0xbe3
 2716 0bdb 29       		.uleb128 0x29
 2717 0bdc 60060000 		.4byte	0x660
 2718 0be0 01       		.uleb128 0x1
 2719 0be1 53       		.byte	0x53
 2720 0be2 00       		.byte	0
 2721 0be3 2B       		.uleb128 0x2b
 2722 0be4 72000000 		.4byte	.LBB107
 2723 0be8 06000000 		.4byte	.LBE107-.LBB107
 2724 0bec F80B0000 		.4byte	0xbf8
 2725 0bf0 29       		.uleb128 0x29
 2726 0bf1 09080000 		.4byte	0x809
 2727 0bf5 01       		.uleb128 0x1
ARM GAS  /tmp/ccAAWrMz.s 			page 49


 2728 0bf6 53       		.byte	0x53
 2729 0bf7 00       		.byte	0
 2730 0bf8 2B       		.uleb128 0x2b
 2731 0bf9 7C000000 		.4byte	.LBB108
 2732 0bfd 06000000 		.4byte	.LBE108-.LBB108
 2733 0c01 0D0C0000 		.4byte	0xc0d
 2734 0c05 29       		.uleb128 0x29
 2735 0c06 82060000 		.4byte	0x682
 2736 0c0a 01       		.uleb128 0x1
 2737 0c0b 53       		.byte	0x53
 2738 0c0c 00       		.byte	0
 2739 0c0d 2B       		.uleb128 0x2b
 2740 0c0e 82000000 		.4byte	.LBB109
 2741 0c12 06000000 		.4byte	.LBE109-.LBB109
 2742 0c16 220C0000 		.4byte	0xc22
 2743 0c1a 29       		.uleb128 0x29
 2744 0c1b 93060000 		.4byte	0x693
 2745 0c1f 01       		.uleb128 0x1
 2746 0c20 53       		.byte	0x53
 2747 0c21 00       		.byte	0
 2748 0c22 2B       		.uleb128 0x2b
 2749 0c23 A8000000 		.4byte	.LBB110
 2750 0c27 08000000 		.4byte	.LBE110-.LBB110
 2751 0c2b 370C0000 		.4byte	0xc37
 2752 0c2f 29       		.uleb128 0x29
 2753 0c30 B5060000 		.4byte	0x6b5
 2754 0c34 01       		.uleb128 0x1
 2755 0c35 53       		.byte	0x53
 2756 0c36 00       		.byte	0
 2757 0c37 2B       		.uleb128 0x2b
 2758 0c38 CA000000 		.4byte	.LBB111
 2759 0c3c 06000000 		.4byte	.LBE111-.LBB111
 2760 0c40 4C0C0000 		.4byte	0xc4c
 2761 0c44 29       		.uleb128 0x29
 2762 0c45 C6060000 		.4byte	0x6c6
 2763 0c49 01       		.uleb128 0x1
 2764 0c4a 53       		.byte	0x53
 2765 0c4b 00       		.byte	0
 2766 0c4c 2B       		.uleb128 0x2b
 2767 0c4d E4000000 		.4byte	.LBB112
 2768 0c51 06000000 		.4byte	.LBE112-.LBB112
 2769 0c55 610C0000 		.4byte	0xc61
 2770 0c59 29       		.uleb128 0x29
 2771 0c5a E8060000 		.4byte	0x6e8
 2772 0c5e 01       		.uleb128 0x1
 2773 0c5f 53       		.byte	0x53
 2774 0c60 00       		.byte	0
 2775 0c61 2B       		.uleb128 0x2b
 2776 0c62 FC000000 		.4byte	.LBB113
 2777 0c66 08000000 		.4byte	.LBE113-.LBB113
 2778 0c6a 760C0000 		.4byte	0xc76
 2779 0c6e 29       		.uleb128 0x29
 2780 0c6f F9060000 		.4byte	0x6f9
 2781 0c73 01       		.uleb128 0x1
 2782 0c74 53       		.byte	0x53
 2783 0c75 00       		.byte	0
 2784 0c76 2B       		.uleb128 0x2b
ARM GAS  /tmp/ccAAWrMz.s 			page 50


 2785 0c77 1A010000 		.4byte	.LBB114
 2786 0c7b 06000000 		.4byte	.LBE114-.LBB114
 2787 0c7f 8B0C0000 		.4byte	0xc8b
 2788 0c83 29       		.uleb128 0x29
 2789 0c84 0A070000 		.4byte	0x70a
 2790 0c88 01       		.uleb128 0x1
 2791 0c89 53       		.byte	0x53
 2792 0c8a 00       		.byte	0
 2793 0c8b 2B       		.uleb128 0x2b
 2794 0c8c 48010000 		.4byte	.LBB115
 2795 0c90 06000000 		.4byte	.LBE115-.LBB115
 2796 0c94 A00C0000 		.4byte	0xca0
 2797 0c98 29       		.uleb128 0x29
 2798 0c99 1B070000 		.4byte	0x71b
 2799 0c9d 01       		.uleb128 0x1
 2800 0c9e 53       		.byte	0x53
 2801 0c9f 00       		.byte	0
 2802 0ca0 2B       		.uleb128 0x2b
 2803 0ca1 62010000 		.4byte	.LBB116
 2804 0ca5 06000000 		.4byte	.LBE116-.LBB116
 2805 0ca9 B50C0000 		.4byte	0xcb5
 2806 0cad 29       		.uleb128 0x29
 2807 0cae 3D070000 		.4byte	0x73d
 2808 0cb2 01       		.uleb128 0x1
 2809 0cb3 53       		.byte	0x53
 2810 0cb4 00       		.byte	0
 2811 0cb5 2B       		.uleb128 0x2b
 2812 0cb6 68010000 		.4byte	.LBB117
 2813 0cba 08000000 		.4byte	.LBE117-.LBB117
 2814 0cbe CA0C0000 		.4byte	0xcca
 2815 0cc2 29       		.uleb128 0x29
 2816 0cc3 4E070000 		.4byte	0x74e
 2817 0cc7 01       		.uleb128 0x1
 2818 0cc8 53       		.byte	0x53
 2819 0cc9 00       		.byte	0
 2820 0cca 2B       		.uleb128 0x2b
 2821 0ccb 86010000 		.4byte	.LBB118
 2822 0ccf 06000000 		.4byte	.LBE118-.LBB118
 2823 0cd3 DF0C0000 		.4byte	0xcdf
 2824 0cd7 29       		.uleb128 0x29
 2825 0cd8 5F070000 		.4byte	0x75f
 2826 0cdc 01       		.uleb128 0x1
 2827 0cdd 53       		.byte	0x53
 2828 0cde 00       		.byte	0
 2829 0cdf 2B       		.uleb128 0x2b
 2830 0ce0 D4010000 		.4byte	.LBB119
 2831 0ce4 06000000 		.4byte	.LBE119-.LBB119
 2832 0ce8 F40C0000 		.4byte	0xcf4
 2833 0cec 29       		.uleb128 0x29
 2834 0ced 70070000 		.4byte	0x770
 2835 0cf1 01       		.uleb128 0x1
 2836 0cf2 53       		.byte	0x53
 2837 0cf3 00       		.byte	0
 2838 0cf4 2B       		.uleb128 0x2b
 2839 0cf5 F2010000 		.4byte	.LBB120
 2840 0cf9 04000000 		.4byte	.LBE120-.LBB120
 2841 0cfd 090D0000 		.4byte	0xd09
ARM GAS  /tmp/ccAAWrMz.s 			page 51


 2842 0d01 29       		.uleb128 0x29
 2843 0d02 92070000 		.4byte	0x792
 2844 0d06 01       		.uleb128 0x1
 2845 0d07 53       		.byte	0x53
 2846 0d08 00       		.byte	0
 2847 0d09 2B       		.uleb128 0x2b
 2848 0d0a F6010000 		.4byte	.LBB121
 2849 0d0e 06000000 		.4byte	.LBE121-.LBB121
 2850 0d12 1E0D0000 		.4byte	0xd1e
 2851 0d16 29       		.uleb128 0x29
 2852 0d17 A3070000 		.4byte	0x7a3
 2853 0d1b 01       		.uleb128 0x1
 2854 0d1c 53       		.byte	0x53
 2855 0d1d 00       		.byte	0
 2856 0d1e 2B       		.uleb128 0x2b
 2857 0d1f 16020000 		.4byte	.LBB122
 2858 0d23 06000000 		.4byte	.LBE122-.LBB122
 2859 0d27 330D0000 		.4byte	0xd33
 2860 0d2b 29       		.uleb128 0x29
 2861 0d2c B4070000 		.4byte	0x7b4
 2862 0d30 01       		.uleb128 0x1
 2863 0d31 53       		.byte	0x53
 2864 0d32 00       		.byte	0
 2865 0d33 2B       		.uleb128 0x2b
 2866 0d34 1C020000 		.4byte	.LBB123
 2867 0d38 06000000 		.4byte	.LBE123-.LBB123
 2868 0d3c 480D0000 		.4byte	0xd48
 2869 0d40 29       		.uleb128 0x29
 2870 0d41 C5070000 		.4byte	0x7c5
 2871 0d45 01       		.uleb128 0x1
 2872 0d46 53       		.byte	0x53
 2873 0d47 00       		.byte	0
 2874 0d48 2B       		.uleb128 0x2b
 2875 0d49 3A020000 		.4byte	.LBB124
 2876 0d4d 04000000 		.4byte	.LBE124-.LBB124
 2877 0d51 5D0D0000 		.4byte	0xd5d
 2878 0d55 29       		.uleb128 0x29
 2879 0d56 E7070000 		.4byte	0x7e7
 2880 0d5a 01       		.uleb128 0x1
 2881 0d5b 53       		.byte	0x53
 2882 0d5c 00       		.byte	0
 2883 0d5d 2B       		.uleb128 0x2b
 2884 0d5e 6C020000 		.4byte	.LBB125
 2885 0d62 06000000 		.4byte	.LBE125-.LBB125
 2886 0d66 720D0000 		.4byte	0xd72
 2887 0d6a 29       		.uleb128 0x29
 2888 0d6b F8070000 		.4byte	0x7f8
 2889 0d6f 01       		.uleb128 0x1
 2890 0d70 53       		.byte	0x53
 2891 0d71 00       		.byte	0
 2892 0d72 2B       		.uleb128 0x2b
 2893 0d73 8A020000 		.4byte	.LBB126
 2894 0d77 04000000 		.4byte	.LBE126-.LBB126
 2895 0d7b 870D0000 		.4byte	0xd87
 2896 0d7f 29       		.uleb128 0x29
 2897 0d80 16080000 		.4byte	0x816
 2898 0d84 01       		.uleb128 0x1
ARM GAS  /tmp/ccAAWrMz.s 			page 52


 2899 0d85 53       		.byte	0x53
 2900 0d86 00       		.byte	0
 2901 0d87 2C       		.uleb128 0x2c
 2902 0d88 46000000 		.4byte	.LVL12
 2903 0d8c A9150000 		.4byte	0x15a9
 2904 0d90 9E0D0000 		.4byte	0xd9e
 2905 0d94 25       		.uleb128 0x25
 2906 0d95 01       		.uleb128 0x1
 2907 0d96 50       		.byte	0x50
 2908 0d97 05       		.uleb128 0x5
 2909 0d98 03       		.byte	0x3
 2910 0d99 00000000 		.4byte	.LANCHOR0
 2911 0d9d 00       		.byte	0
 2912 0d9e 2C       		.uleb128 0x2c
 2913 0d9f 70000000 		.4byte	.LVL13
 2914 0da3 C4150000 		.4byte	0x15c4
 2915 0da7 B70D0000 		.4byte	0xdb7
 2916 0dab 25       		.uleb128 0x25
 2917 0dac 01       		.uleb128 0x1
 2918 0dad 51       		.byte	0x51
 2919 0dae 02       		.uleb128 0x2
 2920 0daf 76       		.byte	0x76
 2921 0db0 00       		.sleb128 0
 2922 0db1 25       		.uleb128 0x25
 2923 0db2 01       		.uleb128 0x1
 2924 0db3 50       		.byte	0x50
 2925 0db4 01       		.uleb128 0x1
 2926 0db5 32       		.byte	0x32
 2927 0db6 00       		.byte	0
 2928 0db7 2C       		.uleb128 0x2c
 2929 0db8 96000000 		.4byte	.LVL14
 2930 0dbc A9150000 		.4byte	0x15a9
 2931 0dc0 D30D0000 		.4byte	0xdd3
 2932 0dc4 25       		.uleb128 0x25
 2933 0dc5 01       		.uleb128 0x1
 2934 0dc6 51       		.byte	0x51
 2935 0dc7 01       		.uleb128 0x1
 2936 0dc8 30       		.byte	0x30
 2937 0dc9 25       		.uleb128 0x25
 2938 0dca 01       		.uleb128 0x1
 2939 0dcb 50       		.byte	0x50
 2940 0dcc 05       		.uleb128 0x5
 2941 0dcd 03       		.byte	0x3
 2942 0dce 00000000 		.4byte	.LANCHOR0
 2943 0dd2 00       		.byte	0
 2944 0dd3 2C       		.uleb128 0x2c
 2945 0dd4 A4000000 		.4byte	.LVL15
 2946 0dd8 C4150000 		.4byte	0x15c4
 2947 0ddc E60D0000 		.4byte	0xde6
 2948 0de0 25       		.uleb128 0x25
 2949 0de1 01       		.uleb128 0x1
 2950 0de2 50       		.byte	0x50
 2951 0de3 01       		.uleb128 0x1
 2952 0de4 33       		.byte	0x33
 2953 0de5 00       		.byte	0
 2954 0de6 2C       		.uleb128 0x2c
 2955 0de7 C0000000 		.4byte	.LVL18
ARM GAS  /tmp/ccAAWrMz.s 			page 53


 2956 0deb 16150000 		.4byte	0x1516
 2957 0def 030E0000 		.4byte	0xe03
 2958 0df3 25       		.uleb128 0x25
 2959 0df4 01       		.uleb128 0x1
 2960 0df5 51       		.byte	0x51
 2961 0df6 02       		.uleb128 0x2
 2962 0df7 09       		.byte	0x9
 2963 0df8 FF       		.byte	0xff
 2964 0df9 25       		.uleb128 0x25
 2965 0dfa 01       		.uleb128 0x1
 2966 0dfb 50       		.byte	0x50
 2967 0dfc 05       		.uleb128 0x5
 2968 0dfd 03       		.byte	0x3
 2969 0dfe 00000000 		.4byte	.LANCHOR0
 2970 0e02 00       		.byte	0
 2971 0e03 2D       		.uleb128 0x2d
 2972 0e04 C6000000 		.4byte	.LVL19
 2973 0e08 DE150000 		.4byte	0x15de
 2974 0e0c 2C       		.uleb128 0x2c
 2975 0e0d E0000000 		.4byte	.LVL21
 2976 0e11 C4150000 		.4byte	0x15c4
 2977 0e15 1F0E0000 		.4byte	0xe1f
 2978 0e19 25       		.uleb128 0x25
 2979 0e1a 01       		.uleb128 0x1
 2980 0e1b 50       		.byte	0x50
 2981 0e1c 01       		.uleb128 0x1
 2982 0e1d 34       		.byte	0x34
 2983 0e1e 00       		.byte	0
 2984 0e1f 2C       		.uleb128 0x2c
 2985 0e20 F8000000 		.4byte	.LVL22
 2986 0e24 EF150000 		.4byte	0x15ef
 2987 0e28 3B0E0000 		.4byte	0xe3b
 2988 0e2c 25       		.uleb128 0x25
 2989 0e2d 01       		.uleb128 0x1
 2990 0e2e 51       		.byte	0x51
 2991 0e2f 05       		.uleb128 0x5
 2992 0e30 03       		.byte	0x3
 2993 0e31 00000000 		.4byte	.LC0
 2994 0e35 25       		.uleb128 0x25
 2995 0e36 01       		.uleb128 0x1
 2996 0e37 50       		.byte	0x50
 2997 0e38 01       		.uleb128 0x1
 2998 0e39 35       		.byte	0x35
 2999 0e3a 00       		.byte	0
 3000 0e3b 2C       		.uleb128 0x2c
 3001 0e3c 16010000 		.4byte	.LVL25
 3002 0e40 A9150000 		.4byte	0x15a9
 3003 0e44 520E0000 		.4byte	0xe52
 3004 0e48 25       		.uleb128 0x25
 3005 0e49 01       		.uleb128 0x1
 3006 0e4a 50       		.byte	0x50
 3007 0e4b 05       		.uleb128 0x5
 3008 0e4c 03       		.byte	0x3
 3009 0e4d 00000000 		.4byte	.LANCHOR0
 3010 0e51 00       		.byte	0
 3011 0e52 2C       		.uleb128 0x2c
 3012 0e53 38010000 		.4byte	.LVL26
ARM GAS  /tmp/ccAAWrMz.s 			page 54


 3013 0e57 0F160000 		.4byte	0x160f
 3014 0e5b 7A0E0000 		.4byte	0xe7a
 3015 0e5f 25       		.uleb128 0x25
 3016 0e60 01       		.uleb128 0x1
 3017 0e61 53       		.byte	0x53
 3018 0e62 01       		.uleb128 0x1
 3019 0e63 30       		.byte	0x30
 3020 0e64 25       		.uleb128 0x25
 3021 0e65 01       		.uleb128 0x1
 3022 0e66 52       		.byte	0x52
 3023 0e67 01       		.uleb128 0x1
 3024 0e68 38       		.byte	0x38
 3025 0e69 25       		.uleb128 0x25
 3026 0e6a 01       		.uleb128 0x1
 3027 0e6b 51       		.byte	0x51
 3028 0e6c 03       		.uleb128 0x3
 3029 0e6d 74       		.byte	0x74
 3030 0e6e 04       		.sleb128 4
 3031 0e6f 06       		.byte	0x6
 3032 0e70 25       		.uleb128 0x25
 3033 0e71 01       		.uleb128 0x1
 3034 0e72 50       		.byte	0x50
 3035 0e73 05       		.uleb128 0x5
 3036 0e74 03       		.byte	0x3
 3037 0e75 00000000 		.4byte	.LANCHOR0
 3038 0e79 00       		.byte	0
 3039 0e7a 2C       		.uleb128 0x2c
 3040 0e7b 44010000 		.4byte	.LVL28
 3041 0e7f C4150000 		.4byte	0x15c4
 3042 0e83 950E0000 		.4byte	0xe95
 3043 0e87 25       		.uleb128 0x25
 3044 0e88 01       		.uleb128 0x1
 3045 0e89 51       		.byte	0x51
 3046 0e8a 04       		.uleb128 0x4
 3047 0e8b 76       		.byte	0x76
 3048 0e8c 00       		.sleb128 0
 3049 0e8d 30       		.byte	0x30
 3050 0e8e 29       		.byte	0x29
 3051 0e8f 25       		.uleb128 0x25
 3052 0e90 01       		.uleb128 0x1
 3053 0e91 50       		.byte	0x50
 3054 0e92 01       		.uleb128 0x1
 3055 0e93 36       		.byte	0x36
 3056 0e94 00       		.byte	0
 3057 0e95 2C       		.uleb128 0x2c
 3058 0e96 5E010000 		.4byte	.LVL29
 3059 0e9a C4150000 		.4byte	0x15c4
 3060 0e9e A80E0000 		.4byte	0xea8
 3061 0ea2 25       		.uleb128 0x25
 3062 0ea3 01       		.uleb128 0x1
 3063 0ea4 50       		.byte	0x50
 3064 0ea5 01       		.uleb128 0x1
 3065 0ea6 37       		.byte	0x37
 3066 0ea7 00       		.byte	0
 3067 0ea8 2C       		.uleb128 0x2c
 3068 0ea9 82010000 		.4byte	.LVL32
 3069 0ead A9150000 		.4byte	0x15a9
ARM GAS  /tmp/ccAAWrMz.s 			page 55


 3070 0eb1 BF0E0000 		.4byte	0xebf
 3071 0eb5 25       		.uleb128 0x25
 3072 0eb6 01       		.uleb128 0x1
 3073 0eb7 50       		.byte	0x50
 3074 0eb8 05       		.uleb128 0x5
 3075 0eb9 03       		.byte	0x3
 3076 0eba 00000000 		.4byte	.LANCHOR0
 3077 0ebe 00       		.byte	0
 3078 0ebf 2C       		.uleb128 0x2c
 3079 0ec0 9E010000 		.4byte	.LVL33
 3080 0ec4 0F160000 		.4byte	0x160f
 3081 0ec8 E60E0000 		.4byte	0xee6
 3082 0ecc 25       		.uleb128 0x25
 3083 0ecd 01       		.uleb128 0x1
 3084 0ece 53       		.byte	0x53
 3085 0ecf 01       		.uleb128 0x1
 3086 0ed0 30       		.byte	0x30
 3087 0ed1 25       		.uleb128 0x25
 3088 0ed2 01       		.uleb128 0x1
 3089 0ed3 52       		.byte	0x52
 3090 0ed4 01       		.uleb128 0x1
 3091 0ed5 32       		.byte	0x32
 3092 0ed6 25       		.uleb128 0x25
 3093 0ed7 01       		.uleb128 0x1
 3094 0ed8 51       		.byte	0x51
 3095 0ed9 02       		.uleb128 0x2
 3096 0eda 76       		.byte	0x76
 3097 0edb 00       		.sleb128 0
 3098 0edc 25       		.uleb128 0x25
 3099 0edd 01       		.uleb128 0x1
 3100 0ede 50       		.byte	0x50
 3101 0edf 05       		.uleb128 0x5
 3102 0ee0 03       		.byte	0x3
 3103 0ee1 00000000 		.4byte	.LANCHOR0
 3104 0ee5 00       		.byte	0
 3105 0ee6 2C       		.uleb128 0x2c
 3106 0ee7 AA010000 		.4byte	.LVL36
 3107 0eeb C4150000 		.4byte	0x15c4
 3108 0eef F90E0000 		.4byte	0xef9
 3109 0ef3 25       		.uleb128 0x25
 3110 0ef4 01       		.uleb128 0x1
 3111 0ef5 50       		.byte	0x50
 3112 0ef6 01       		.uleb128 0x1
 3113 0ef7 38       		.byte	0x38
 3114 0ef8 00       		.byte	0
 3115 0ef9 2C       		.uleb128 0x2c
 3116 0efa C2010000 		.4byte	.LVL37
 3117 0efe 0F160000 		.4byte	0x160f
 3118 0f02 1B0F0000 		.4byte	0xf1b
 3119 0f06 25       		.uleb128 0x25
 3120 0f07 01       		.uleb128 0x1
 3121 0f08 52       		.byte	0x52
 3122 0f09 01       		.uleb128 0x1
 3123 0f0a 32       		.byte	0x32
 3124 0f0b 25       		.uleb128 0x25
 3125 0f0c 01       		.uleb128 0x1
 3126 0f0d 51       		.byte	0x51
ARM GAS  /tmp/ccAAWrMz.s 			page 56


 3127 0f0e 02       		.uleb128 0x2
 3128 0f0f 76       		.byte	0x76
 3129 0f10 00       		.sleb128 0
 3130 0f11 25       		.uleb128 0x25
 3131 0f12 01       		.uleb128 0x1
 3132 0f13 50       		.byte	0x50
 3133 0f14 05       		.uleb128 0x5
 3134 0f15 03       		.byte	0x3
 3135 0f16 00000000 		.4byte	.LANCHOR0
 3136 0f1a 00       		.byte	0
 3137 0f1b 2C       		.uleb128 0x2c
 3138 0f1c CE010000 		.4byte	.LVL39
 3139 0f20 C4150000 		.4byte	0x15c4
 3140 0f24 2E0F0000 		.4byte	0xf2e
 3141 0f28 25       		.uleb128 0x25
 3142 0f29 01       		.uleb128 0x1
 3143 0f2a 50       		.byte	0x50
 3144 0f2b 01       		.uleb128 0x1
 3145 0f2c 39       		.byte	0x39
 3146 0f2d 00       		.byte	0
 3147 0f2e 2C       		.uleb128 0x2c
 3148 0f2f EA010000 		.4byte	.LVL40
 3149 0f33 C4150000 		.4byte	0x15c4
 3150 0f37 410F0000 		.4byte	0xf41
 3151 0f3b 25       		.uleb128 0x25
 3152 0f3c 01       		.uleb128 0x1
 3153 0f3d 50       		.byte	0x50
 3154 0f3e 01       		.uleb128 0x1
 3155 0f3f 3A       		.byte	0x3a
 3156 0f40 00       		.byte	0
 3157 0f41 2C       		.uleb128 0x2c
 3158 0f42 0A020000 		.4byte	.LVL41
 3159 0f46 A9150000 		.4byte	0x15a9
 3160 0f4a 5D0F0000 		.4byte	0xf5d
 3161 0f4e 25       		.uleb128 0x25
 3162 0f4f 01       		.uleb128 0x1
 3163 0f50 51       		.byte	0x51
 3164 0f51 01       		.uleb128 0x1
 3165 0f52 30       		.byte	0x30
 3166 0f53 25       		.uleb128 0x25
 3167 0f54 01       		.uleb128 0x1
 3168 0f55 50       		.byte	0x50
 3169 0f56 05       		.uleb128 0x5
 3170 0f57 03       		.byte	0x3
 3171 0f58 00000000 		.4byte	.LANCHOR0
 3172 0f5c 00       		.byte	0
 3173 0f5d 2C       		.uleb128 0x2c
 3174 0f5e 16020000 		.4byte	.LVL42
 3175 0f62 34160000 		.4byte	0x1634
 3176 0f66 740F0000 		.4byte	0xf74
 3177 0f6a 25       		.uleb128 0x25
 3178 0f6b 01       		.uleb128 0x1
 3179 0f6c 50       		.byte	0x50
 3180 0f6d 05       		.uleb128 0x5
 3181 0f6e 03       		.byte	0x3
 3182 0f6f 00000000 		.4byte	.LANCHOR0
 3183 0f73 00       		.byte	0
ARM GAS  /tmp/ccAAWrMz.s 			page 57


 3184 0f74 2C       		.uleb128 0x2c
 3185 0f75 32020000 		.4byte	.LVL43
 3186 0f79 C4150000 		.4byte	0x15c4
 3187 0f7d 870F0000 		.4byte	0xf87
 3188 0f81 25       		.uleb128 0x25
 3189 0f82 01       		.uleb128 0x1
 3190 0f83 50       		.byte	0x50
 3191 0f84 01       		.uleb128 0x1
 3192 0f85 3B       		.byte	0x3b
 3193 0f86 00       		.byte	0
 3194 0f87 2C       		.uleb128 0x2c
 3195 0f88 62020000 		.4byte	.LVL44
 3196 0f8c 46160000 		.4byte	0x1646
 3197 0f90 B20F0000 		.4byte	0xfb2
 3198 0f94 25       		.uleb128 0x25
 3199 0f95 01       		.uleb128 0x1
 3200 0f96 53       		.byte	0x53
 3201 0f97 05       		.uleb128 0x5
 3202 0f98 03       		.byte	0x3
 3203 0f99 00000000 		.4byte	thread1
 3204 0f9d 25       		.uleb128 0x25
 3205 0f9e 01       		.uleb128 0x1
 3206 0f9f 51       		.byte	0x51
 3207 0fa0 03       		.uleb128 0x3
 3208 0fa1 0A       		.byte	0xa
 3209 0fa2 5001     		.2byte	0x150
 3210 0fa4 25       		.uleb128 0x25
 3211 0fa5 01       		.uleb128 0x1
 3212 0fa6 50       		.byte	0x50
 3213 0fa7 03       		.uleb128 0x3
 3214 0fa8 74       		.byte	0x74
 3215 0fa9 00       		.sleb128 0
 3216 0faa 06       		.byte	0x6
 3217 0fab 25       		.uleb128 0x25
 3218 0fac 02       		.uleb128 0x2
 3219 0fad 7D       		.byte	0x7d
 3220 0fae 00       		.sleb128 0
 3221 0faf 01       		.uleb128 0x1
 3222 0fb0 30       		.byte	0x30
 3223 0fb1 00       		.byte	0
 3224 0fb2 2C       		.uleb128 0x2c
 3225 0fb3 82020000 		.4byte	.LVL45
 3226 0fb7 C4150000 		.4byte	0x15c4
 3227 0fbb C50F0000 		.4byte	0xfc5
 3228 0fbf 25       		.uleb128 0x25
 3229 0fc0 01       		.uleb128 0x1
 3230 0fc1 50       		.byte	0x50
 3231 0fc2 01       		.uleb128 0x1
 3232 0fc3 3C       		.byte	0x3c
 3233 0fc4 00       		.byte	0
 3234 0fc5 2D       		.uleb128 0x2d
 3235 0fc6 92020000 		.4byte	.LVL46
 3236 0fca 70160000 		.4byte	0x1670
 3237 0fce 2C       		.uleb128 0x2c
 3238 0fcf A0020000 		.4byte	.LVL47
 3239 0fd3 16150000 		.4byte	0x1516
 3240 0fd7 EA0F0000 		.4byte	0xfea
ARM GAS  /tmp/ccAAWrMz.s 			page 58


 3241 0fdb 25       		.uleb128 0x25
 3242 0fdc 01       		.uleb128 0x1
 3243 0fdd 51       		.byte	0x51
 3244 0fde 01       		.uleb128 0x1
 3245 0fdf 3A       		.byte	0x3a
 3246 0fe0 25       		.uleb128 0x25
 3247 0fe1 01       		.uleb128 0x1
 3248 0fe2 50       		.byte	0x50
 3249 0fe3 05       		.uleb128 0x5
 3250 0fe4 03       		.byte	0x3
 3251 0fe5 00000000 		.4byte	.LANCHOR0
 3252 0fe9 00       		.byte	0
 3253 0fea 2E       		.uleb128 0x2e
 3254 0feb B4020000 		.4byte	.LVL48
 3255 0fef C4150000 		.4byte	0x15c4
 3256 0ff3 25       		.uleb128 0x25
 3257 0ff4 01       		.uleb128 0x1
 3258 0ff5 50       		.byte	0x50
 3259 0ff6 01       		.uleb128 0x1
 3260 0ff7 3D       		.byte	0x3d
 3261 0ff8 00       		.byte	0
 3262 0ff9 00       		.byte	0
 3263 0ffa 24       		.uleb128 0x24
 3264 0ffb 22000000 		.4byte	.LVL9
 3265 0fff C4150000 		.4byte	0x15c4
 3266 1003 25       		.uleb128 0x25
 3267 1004 01       		.uleb128 0x1
 3268 1005 50       		.byte	0x50
 3269 1006 01       		.uleb128 0x1
 3270 1007 31       		.byte	0x31
 3271 1008 00       		.byte	0
 3272 1009 00       		.byte	0
 3273 100a 26       		.uleb128 0x26
 3274 100b 23080000 		.4byte	0x823
 3275 100f 00000000 		.4byte	.LFB13
 3276 1013 8E020000 		.4byte	.LFE13-.LFB13
 3277 1017 01       		.uleb128 0x1
 3278 1018 9C       		.byte	0x9c
 3279 1019 58140000 		.4byte	0x1458
 3280 101d 27       		.uleb128 0x27
 3281 101e 2F080000 		.4byte	0x82f
 3282 1022 27       		.uleb128 0x27
 3283 1023 38080000 		.4byte	0x838
 3284 1027 28       		.uleb128 0x28
 3285 1028 38000000 		.4byte	.Ldebug_ranges0+0x38
 3286 102c 38100000 		.4byte	0x1038
 3287 1030 29       		.uleb128 0x29
 3288 1031 46080000 		.4byte	0x846
 3289 1035 01       		.uleb128 0x1
 3290 1036 53       		.byte	0x53
 3291 1037 00       		.byte	0
 3292 1038 28       		.uleb128 0x28
 3293 1039 50000000 		.4byte	.Ldebug_ranges0+0x50
 3294 103d 48140000 		.4byte	0x1448
 3295 1041 2A       		.uleb128 0x2a
 3296 1042 2F080000 		.4byte	0x82f
 3297 1046 F7000000 		.4byte	.LLST4
ARM GAS  /tmp/ccAAWrMz.s 			page 59


 3298 104a 2A       		.uleb128 0x2a
 3299 104b 38080000 		.4byte	0x838
 3300 104f 62010000 		.4byte	.LLST5
 3301 1053 2B       		.uleb128 0x2b
 3302 1054 2A000000 		.4byte	.LBB168
 3303 1058 08000000 		.4byte	.LBE168-.LBB168
 3304 105c 68100000 		.4byte	0x1068
 3305 1060 29       		.uleb128 0x29
 3306 1061 68080000 		.4byte	0x868
 3307 1065 01       		.uleb128 0x1
 3308 1066 53       		.byte	0x53
 3309 1067 00       		.byte	0
 3310 1068 2B       		.uleb128 0x2b
 3311 1069 4C000000 		.4byte	.LBB169
 3312 106d 06000000 		.4byte	.LBE169-.LBB169
 3313 1071 7D100000 		.4byte	0x107d
 3314 1075 29       		.uleb128 0x29
 3315 1076 79080000 		.4byte	0x879
 3316 107a 01       		.uleb128 0x1
 3317 107b 53       		.byte	0x53
 3318 107c 00       		.byte	0
 3319 107d 2B       		.uleb128 0x2b
 3320 107e 66000000 		.4byte	.LBB170
 3321 1082 08000000 		.4byte	.LBE170-.LBB170
 3322 1086 92100000 		.4byte	0x1092
 3323 108a 29       		.uleb128 0x29
 3324 108b 9B080000 		.4byte	0x89b
 3325 108f 01       		.uleb128 0x1
 3326 1090 53       		.byte	0x53
 3327 1091 00       		.byte	0
 3328 1092 2B       		.uleb128 0x2b
 3329 1093 6E000000 		.4byte	.LBB171
 3330 1097 1E000000 		.4byte	.LBE171-.LBB171
 3331 109b F3100000 		.4byte	0x10f3
 3332 109f 2A       		.uleb128 0x2a
 3333 10a0 AC080000 		.4byte	0x8ac
 3334 10a4 B2010000 		.4byte	.LLST6
 3335 10a8 2B       		.uleb128 0x2b
 3336 10a9 6E000000 		.4byte	.LBB172
 3337 10ad 06000000 		.4byte	.LBE172-.LBB172
 3338 10b1 BD100000 		.4byte	0x10bd
 3339 10b5 29       		.uleb128 0x29
 3340 10b6 BA080000 		.4byte	0x8ba
 3341 10ba 01       		.uleb128 0x1
 3342 10bb 53       		.byte	0x53
 3343 10bc 00       		.byte	0
 3344 10bd 2B       		.uleb128 0x2b
 3345 10be 80000000 		.4byte	.LBB173
 3346 10c2 06000000 		.4byte	.LBE173-.LBB173
 3347 10c6 D2100000 		.4byte	0x10d2
 3348 10ca 29       		.uleb128 0x29
 3349 10cb C7080000 		.4byte	0x8c7
 3350 10cf 01       		.uleb128 0x1
 3351 10d0 53       		.byte	0x53
 3352 10d1 00       		.byte	0
 3353 10d2 2C       		.uleb128 0x2c
 3354 10d3 80000000 		.4byte	.LVL56
ARM GAS  /tmp/ccAAWrMz.s 			page 60


 3355 10d7 77160000 		.4byte	0x1677
 3356 10db E9100000 		.4byte	0x10e9
 3357 10df 25       		.uleb128 0x25
 3358 10e0 01       		.uleb128 0x1
 3359 10e1 50       		.byte	0x50
 3360 10e2 05       		.uleb128 0x5
 3361 10e3 03       		.byte	0x3
 3362 10e4 00000000 		.4byte	.LANCHOR1
 3363 10e8 00       		.byte	0
 3364 10e9 2D       		.uleb128 0x2d
 3365 10ea 8C000000 		.4byte	.LVL58
 3366 10ee DE150000 		.4byte	0x15de
 3367 10f2 00       		.byte	0
 3368 10f3 2B       		.uleb128 0x2b
 3369 10f4 90000000 		.4byte	.LBB174
 3370 10f8 06000000 		.4byte	.LBE174-.LBB174
 3371 10fc 08110000 		.4byte	0x1108
 3372 1100 29       		.uleb128 0x29
 3373 1101 D9080000 		.4byte	0x8d9
 3374 1105 01       		.uleb128 0x1
 3375 1106 53       		.byte	0x53
 3376 1107 00       		.byte	0
 3377 1108 2B       		.uleb128 0x2b
 3378 1109 B2000000 		.4byte	.LBB175
 3379 110d 06000000 		.4byte	.LBE175-.LBB175
 3380 1111 1D110000 		.4byte	0x111d
 3381 1115 29       		.uleb128 0x29
 3382 1116 D8090000 		.4byte	0x9d8
 3383 111a 01       		.uleb128 0x1
 3384 111b 53       		.byte	0x53
 3385 111c 00       		.byte	0
 3386 111d 2B       		.uleb128 0x2b
 3387 111e BC000000 		.4byte	.LBB176
 3388 1122 06000000 		.4byte	.LBE176-.LBB176
 3389 1126 32110000 		.4byte	0x1132
 3390 112a 29       		.uleb128 0x29
 3391 112b FB080000 		.4byte	0x8fb
 3392 112f 01       		.uleb128 0x1
 3393 1130 53       		.byte	0x53
 3394 1131 00       		.byte	0
 3395 1132 2B       		.uleb128 0x2b
 3396 1133 D4000000 		.4byte	.LBB177
 3397 1137 06000000 		.4byte	.LBE177-.LBB177
 3398 113b 47110000 		.4byte	0x1147
 3399 113f 29       		.uleb128 0x29
 3400 1140 0C090000 		.4byte	0x90c
 3401 1144 01       		.uleb128 0x1
 3402 1145 53       		.byte	0x53
 3403 1146 00       		.byte	0
 3404 1147 2B       		.uleb128 0x2b
 3405 1148 F8000000 		.4byte	.LBB178
 3406 114c 06000000 		.4byte	.LBE178-.LBB178
 3407 1150 5C110000 		.4byte	0x115c
 3408 1154 29       		.uleb128 0x29
 3409 1155 2E090000 		.4byte	0x92e
 3410 1159 01       		.uleb128 0x1
 3411 115a 53       		.byte	0x53
ARM GAS  /tmp/ccAAWrMz.s 			page 61


 3412 115b 00       		.byte	0
 3413 115c 2B       		.uleb128 0x2b
 3414 115d 28010000 		.4byte	.LBB179
 3415 1161 06000000 		.4byte	.LBE179-.LBB179
 3416 1165 71110000 		.4byte	0x1171
 3417 1169 29       		.uleb128 0x29
 3418 116a 3F090000 		.4byte	0x93f
 3419 116e 01       		.uleb128 0x1
 3420 116f 53       		.byte	0x53
 3421 1170 00       		.byte	0
 3422 1171 2B       		.uleb128 0x2b
 3423 1172 42010000 		.4byte	.LBB180
 3424 1176 06000000 		.4byte	.LBE180-.LBB180
 3425 117a 86110000 		.4byte	0x1186
 3426 117e 29       		.uleb128 0x29
 3427 117f 61090000 		.4byte	0x961
 3428 1183 01       		.uleb128 0x1
 3429 1184 53       		.byte	0x53
 3430 1185 00       		.byte	0
 3431 1186 2B       		.uleb128 0x2b
 3432 1187 76010000 		.4byte	.LBB181
 3433 118b 06000000 		.4byte	.LBE181-.LBB181
 3434 118f 9B110000 		.4byte	0x119b
 3435 1193 29       		.uleb128 0x29
 3436 1194 72090000 		.4byte	0x972
 3437 1198 01       		.uleb128 0x1
 3438 1199 53       		.byte	0x53
 3439 119a 00       		.byte	0
 3440 119b 2B       		.uleb128 0x2b
 3441 119c 98010000 		.4byte	.LBB182
 3442 11a0 04000000 		.4byte	.LBE182-.LBB182
 3443 11a4 B0110000 		.4byte	0x11b0
 3444 11a8 29       		.uleb128 0x29
 3445 11a9 94090000 		.4byte	0x994
 3446 11ad 01       		.uleb128 0x1
 3447 11ae 53       		.byte	0x53
 3448 11af 00       		.byte	0
 3449 11b0 2B       		.uleb128 0x2b
 3450 11b1 A0010000 		.4byte	.LBB183
 3451 11b5 06000000 		.4byte	.LBE183-.LBB183
 3452 11b9 C5110000 		.4byte	0x11c5
 3453 11bd 29       		.uleb128 0x29
 3454 11be A5090000 		.4byte	0x9a5
 3455 11c2 01       		.uleb128 0x1
 3456 11c3 53       		.byte	0x53
 3457 11c4 00       		.byte	0
 3458 11c5 2B       		.uleb128 0x2b
 3459 11c6 B2010000 		.4byte	.LBB184
 3460 11ca 06000000 		.4byte	.LBE184-.LBB184
 3461 11ce DA110000 		.4byte	0x11da
 3462 11d2 29       		.uleb128 0x29
 3463 11d3 B6090000 		.4byte	0x9b6
 3464 11d7 01       		.uleb128 0x1
 3465 11d8 53       		.byte	0x53
 3466 11d9 00       		.byte	0
 3467 11da 2B       		.uleb128 0x2b
 3468 11db B8010000 		.4byte	.LBB185
ARM GAS  /tmp/ccAAWrMz.s 			page 62


 3469 11df 06000000 		.4byte	.LBE185-.LBB185
 3470 11e3 EF110000 		.4byte	0x11ef
 3471 11e7 29       		.uleb128 0x29
 3472 11e8 C7090000 		.4byte	0x9c7
 3473 11ec 01       		.uleb128 0x1
 3474 11ed 53       		.byte	0x53
 3475 11ee 00       		.byte	0
 3476 11ef 2B       		.uleb128 0x2b
 3477 11f0 DA010000 		.4byte	.LBB186
 3478 11f4 04000000 		.4byte	.LBE186-.LBB186
 3479 11f8 04120000 		.4byte	0x1204
 3480 11fc 29       		.uleb128 0x29
 3481 11fd E9090000 		.4byte	0x9e9
 3482 1201 01       		.uleb128 0x1
 3483 1202 53       		.byte	0x53
 3484 1203 00       		.byte	0
 3485 1204 2B       		.uleb128 0x2b
 3486 1205 2E020000 		.4byte	.LBB187
 3487 1209 06000000 		.4byte	.LBE187-.LBB187
 3488 120d 19120000 		.4byte	0x1219
 3489 1211 29       		.uleb128 0x29
 3490 1212 FA090000 		.4byte	0x9fa
 3491 1216 01       		.uleb128 0x1
 3492 1217 53       		.byte	0x53
 3493 1218 00       		.byte	0
 3494 1219 28       		.uleb128 0x28
 3495 121a 78000000 		.4byte	.Ldebug_ranges0+0x78
 3496 121e 2A120000 		.4byte	0x122a
 3497 1222 29       		.uleb128 0x29
 3498 1223 0B0A0000 		.4byte	0xa0b
 3499 1227 01       		.uleb128 0x1
 3500 1228 53       		.byte	0x53
 3501 1229 00       		.byte	0
 3502 122a 2B       		.uleb128 0x2b
 3503 122b 62020000 		.4byte	.LBB190
 3504 122f 04000000 		.4byte	.LBE190-.LBB190
 3505 1233 3F120000 		.4byte	0x123f
 3506 1237 29       		.uleb128 0x29
 3507 1238 180A0000 		.4byte	0xa18
 3508 123c 01       		.uleb128 0x1
 3509 123d 53       		.byte	0x53
 3510 123e 00       		.byte	0
 3511 123f 2C       		.uleb128 0x2c
 3512 1240 48000000 		.4byte	.LVL52
 3513 1244 5D150000 		.4byte	0x155d
 3514 1248 5C120000 		.4byte	0x125c
 3515 124c 25       		.uleb128 0x25
 3516 124d 01       		.uleb128 0x1
 3517 124e 52       		.byte	0x52
 3518 124f 02       		.uleb128 0x2
 3519 1250 09       		.byte	0x9
 3520 1251 FF       		.byte	0xff
 3521 1252 25       		.uleb128 0x25
 3522 1253 01       		.uleb128 0x1
 3523 1254 50       		.byte	0x50
 3524 1255 05       		.uleb128 0x5
 3525 1256 03       		.byte	0x3
ARM GAS  /tmp/ccAAWrMz.s 			page 63


 3526 1257 00000000 		.4byte	.LANCHOR1
 3527 125b 00       		.byte	0
 3528 125c 2C       		.uleb128 0x2c
 3529 125d 62000000 		.4byte	.LVL53
 3530 1261 C4150000 		.4byte	0x15c4
 3531 1265 6F120000 		.4byte	0x126f
 3532 1269 25       		.uleb128 0x25
 3533 126a 01       		.uleb128 0x1
 3534 126b 50       		.byte	0x50
 3535 126c 01       		.uleb128 0x1
 3536 126d 32       		.byte	0x32
 3537 126e 00       		.byte	0
 3538 126f 2C       		.uleb128 0x2c
 3539 1270 B0000000 		.4byte	.LVL60
 3540 1274 C4150000 		.4byte	0x15c4
 3541 1278 88120000 		.4byte	0x1288
 3542 127c 25       		.uleb128 0x25
 3543 127d 01       		.uleb128 0x1
 3544 127e 51       		.byte	0x51
 3545 127f 02       		.uleb128 0x2
 3546 1280 76       		.byte	0x76
 3547 1281 00       		.sleb128 0
 3548 1282 25       		.uleb128 0x25
 3549 1283 01       		.uleb128 0x1
 3550 1284 50       		.byte	0x50
 3551 1285 01       		.uleb128 0x1
 3552 1286 33       		.byte	0x33
 3553 1287 00       		.byte	0
 3554 1288 2C       		.uleb128 0x2c
 3555 1289 D0000000 		.4byte	.LVL63
 3556 128d EF150000 		.4byte	0x15ef
 3557 1291 A4120000 		.4byte	0x12a4
 3558 1295 25       		.uleb128 0x25
 3559 1296 01       		.uleb128 0x1
 3560 1297 51       		.byte	0x51
 3561 1298 05       		.uleb128 0x5
 3562 1299 03       		.byte	0x3
 3563 129a 00000000 		.4byte	.LC0
 3564 129e 25       		.uleb128 0x25
 3565 129f 01       		.uleb128 0x1
 3566 12a0 50       		.byte	0x50
 3567 12a1 01       		.uleb128 0x1
 3568 12a2 34       		.byte	0x34
 3569 12a3 00       		.byte	0
 3570 12a4 2C       		.uleb128 0x2c
 3571 12a5 E6000000 		.4byte	.LVL64
 3572 12a9 77160000 		.4byte	0x1677
 3573 12ad BB120000 		.4byte	0x12bb
 3574 12b1 25       		.uleb128 0x25
 3575 12b2 01       		.uleb128 0x1
 3576 12b3 50       		.byte	0x50
 3577 12b4 05       		.uleb128 0x5
 3578 12b5 03       		.byte	0x3
 3579 12b6 00000000 		.4byte	.LANCHOR1
 3580 12ba 00       		.byte	0
 3581 12bb 2C       		.uleb128 0x2c
 3582 12bc F4000000 		.4byte	.LVL65
ARM GAS  /tmp/ccAAWrMz.s 			page 64


 3583 12c0 C4150000 		.4byte	0x15c4
 3584 12c4 CE120000 		.4byte	0x12ce
 3585 12c8 25       		.uleb128 0x25
 3586 12c9 01       		.uleb128 0x1
 3587 12ca 50       		.byte	0x50
 3588 12cb 01       		.uleb128 0x1
 3589 12cc 35       		.byte	0x35
 3590 12cd 00       		.byte	0
 3591 12ce 2C       		.uleb128 0x2c
 3592 12cf 18010000 		.4byte	.LVL67
 3593 12d3 8D160000 		.4byte	0x168d
 3594 12d7 F6120000 		.4byte	0x12f6
 3595 12db 25       		.uleb128 0x25
 3596 12dc 01       		.uleb128 0x1
 3597 12dd 53       		.byte	0x53
 3598 12de 01       		.uleb128 0x1
 3599 12df 30       		.byte	0x30
 3600 12e0 25       		.uleb128 0x25
 3601 12e1 01       		.uleb128 0x1
 3602 12e2 52       		.byte	0x52
 3603 12e3 01       		.uleb128 0x1
 3604 12e4 38       		.byte	0x38
 3605 12e5 25       		.uleb128 0x25
 3606 12e6 01       		.uleb128 0x1
 3607 12e7 51       		.byte	0x51
 3608 12e8 03       		.uleb128 0x3
 3609 12e9 74       		.byte	0x74
 3610 12ea 04       		.sleb128 4
 3611 12eb 06       		.byte	0x6
 3612 12ec 25       		.uleb128 0x25
 3613 12ed 01       		.uleb128 0x1
 3614 12ee 50       		.byte	0x50
 3615 12ef 05       		.uleb128 0x5
 3616 12f0 03       		.byte	0x3
 3617 12f1 00000000 		.4byte	.LANCHOR1
 3618 12f5 00       		.byte	0
 3619 12f6 2C       		.uleb128 0x2c
 3620 12f7 24010000 		.4byte	.LVL69
 3621 12fb C4150000 		.4byte	0x15c4
 3622 12ff 11130000 		.4byte	0x1311
 3623 1303 25       		.uleb128 0x25
 3624 1304 01       		.uleb128 0x1
 3625 1305 51       		.byte	0x51
 3626 1306 04       		.uleb128 0x4
 3627 1307 76       		.byte	0x76
 3628 1308 00       		.sleb128 0
 3629 1309 30       		.byte	0x30
 3630 130a 29       		.byte	0x29
 3631 130b 25       		.uleb128 0x25
 3632 130c 01       		.uleb128 0x1
 3633 130d 50       		.byte	0x50
 3634 130e 01       		.uleb128 0x1
 3635 130f 36       		.byte	0x36
 3636 1310 00       		.byte	0
 3637 1311 2C       		.uleb128 0x2c
 3638 1312 3E010000 		.4byte	.LVL70
 3639 1316 C4150000 		.4byte	0x15c4
ARM GAS  /tmp/ccAAWrMz.s 			page 65


 3640 131a 24130000 		.4byte	0x1324
 3641 131e 25       		.uleb128 0x25
 3642 131f 01       		.uleb128 0x1
 3643 1320 50       		.byte	0x50
 3644 1321 01       		.uleb128 0x1
 3645 1322 37       		.byte	0x37
 3646 1323 00       		.byte	0
 3647 1324 2C       		.uleb128 0x2c
 3648 1325 6C010000 		.4byte	.LVL71
 3649 1329 46160000 		.4byte	0x1646
 3650 132d 4F130000 		.4byte	0x134f
 3651 1331 25       		.uleb128 0x25
 3652 1332 01       		.uleb128 0x1
 3653 1333 53       		.byte	0x53
 3654 1334 05       		.uleb128 0x5
 3655 1335 03       		.byte	0x3
 3656 1336 00000000 		.4byte	thread2
 3657 133a 25       		.uleb128 0x25
 3658 133b 01       		.uleb128 0x1
 3659 133c 51       		.byte	0x51
 3660 133d 03       		.uleb128 0x3
 3661 133e 0A       		.byte	0xa
 3662 133f 5001     		.2byte	0x150
 3663 1341 25       		.uleb128 0x25
 3664 1342 01       		.uleb128 0x1
 3665 1343 50       		.byte	0x50
 3666 1344 03       		.uleb128 0x3
 3667 1345 74       		.byte	0x74
 3668 1346 00       		.sleb128 0
 3669 1347 06       		.byte	0x6
 3670 1348 25       		.uleb128 0x25
 3671 1349 02       		.uleb128 0x2
 3672 134a 7D       		.byte	0x7d
 3673 134b 00       		.sleb128 0
 3674 134c 01       		.uleb128 0x1
 3675 134d 30       		.byte	0x30
 3676 134e 00       		.byte	0
 3677 134f 2C       		.uleb128 0x2c
 3678 1350 92010000 		.4byte	.LVL72
 3679 1354 C4150000 		.4byte	0x15c4
 3680 1358 62130000 		.4byte	0x1362
 3681 135c 25       		.uleb128 0x25
 3682 135d 01       		.uleb128 0x1
 3683 135e 50       		.byte	0x50
 3684 135f 01       		.uleb128 0x1
 3685 1360 38       		.byte	0x38
 3686 1361 00       		.byte	0
 3687 1362 2D       		.uleb128 0x2d
 3688 1363 A0010000 		.4byte	.LVL73
 3689 1367 70160000 		.4byte	0x1670
 3690 136b 2C       		.uleb128 0x2c
 3691 136c B2010000 		.4byte	.LVL74
 3692 1370 B2160000 		.4byte	0x16b2
 3693 1374 82130000 		.4byte	0x1382
 3694 1378 25       		.uleb128 0x25
 3695 1379 01       		.uleb128 0x1
 3696 137a 50       		.byte	0x50
ARM GAS  /tmp/ccAAWrMz.s 			page 66


 3697 137b 05       		.uleb128 0x5
 3698 137c 03       		.byte	0x3
 3699 137d 00000000 		.4byte	.LANCHOR1
 3700 1381 00       		.byte	0
 3701 1382 2C       		.uleb128 0x2c
 3702 1383 D2010000 		.4byte	.LVL75
 3703 1387 C4150000 		.4byte	0x15c4
 3704 138b 95130000 		.4byte	0x1395
 3705 138f 25       		.uleb128 0x25
 3706 1390 01       		.uleb128 0x1
 3707 1391 50       		.byte	0x50
 3708 1392 01       		.uleb128 0x1
 3709 1393 39       		.byte	0x39
 3710 1394 00       		.byte	0
 3711 1395 2C       		.uleb128 0x2c
 3712 1396 F2010000 		.4byte	.LVL76
 3713 139a 8D160000 		.4byte	0x168d
 3714 139e BC130000 		.4byte	0x13bc
 3715 13a2 25       		.uleb128 0x25
 3716 13a3 01       		.uleb128 0x1
 3717 13a4 53       		.byte	0x53
 3718 13a5 01       		.uleb128 0x1
 3719 13a6 30       		.byte	0x30
 3720 13a7 25       		.uleb128 0x25
 3721 13a8 01       		.uleb128 0x1
 3722 13a9 52       		.byte	0x52
 3723 13aa 01       		.uleb128 0x1
 3724 13ab 32       		.byte	0x32
 3725 13ac 25       		.uleb128 0x25
 3726 13ad 01       		.uleb128 0x1
 3727 13ae 51       		.byte	0x51
 3728 13af 02       		.uleb128 0x2
 3729 13b0 74       		.byte	0x74
 3730 13b1 00       		.sleb128 0
 3731 13b2 25       		.uleb128 0x25
 3732 13b3 01       		.uleb128 0x1
 3733 13b4 50       		.byte	0x50
 3734 13b5 05       		.uleb128 0x5
 3735 13b6 03       		.byte	0x3
 3736 13b7 00000000 		.4byte	.LANCHOR1
 3737 13bb 00       		.byte	0
 3738 13bc 2C       		.uleb128 0x2c
 3739 13bd FE010000 		.4byte	.LVL78
 3740 13c1 C4150000 		.4byte	0x15c4
 3741 13c5 CF130000 		.4byte	0x13cf
 3742 13c9 25       		.uleb128 0x25
 3743 13ca 01       		.uleb128 0x1
 3744 13cb 50       		.byte	0x50
 3745 13cc 01       		.uleb128 0x1
 3746 13cd 3A       		.byte	0x3a
 3747 13ce 00       		.byte	0
 3748 13cf 2C       		.uleb128 0x2c
 3749 13d0 16020000 		.4byte	.LVL79
 3750 13d4 8D160000 		.4byte	0x168d
 3751 13d8 F1130000 		.4byte	0x13f1
 3752 13dc 25       		.uleb128 0x25
 3753 13dd 01       		.uleb128 0x1
ARM GAS  /tmp/ccAAWrMz.s 			page 67


 3754 13de 52       		.byte	0x52
 3755 13df 01       		.uleb128 0x1
 3756 13e0 32       		.byte	0x32
 3757 13e1 25       		.uleb128 0x25
 3758 13e2 01       		.uleb128 0x1
 3759 13e3 51       		.byte	0x51
 3760 13e4 02       		.uleb128 0x2
 3761 13e5 74       		.byte	0x74
 3762 13e6 00       		.sleb128 0
 3763 13e7 25       		.uleb128 0x25
 3764 13e8 01       		.uleb128 0x1
 3765 13e9 50       		.byte	0x50
 3766 13ea 05       		.uleb128 0x5
 3767 13eb 03       		.byte	0x3
 3768 13ec 00000000 		.4byte	.LANCHOR1
 3769 13f0 00       		.byte	0
 3770 13f1 2C       		.uleb128 0x2c
 3771 13f2 28020000 		.4byte	.LVL81
 3772 13f6 C4150000 		.4byte	0x15c4
 3773 13fa 04140000 		.4byte	0x1404
 3774 13fe 25       		.uleb128 0x25
 3775 13ff 01       		.uleb128 0x1
 3776 1400 50       		.byte	0x50
 3777 1401 01       		.uleb128 0x1
 3778 1402 3B       		.byte	0x3b
 3779 1403 00       		.byte	0
 3780 1404 2C       		.uleb128 0x2c
 3781 1405 44020000 		.4byte	.LVL82
 3782 1409 C4150000 		.4byte	0x15c4
 3783 140d 17140000 		.4byte	0x1417
 3784 1411 25       		.uleb128 0x25
 3785 1412 01       		.uleb128 0x1
 3786 1413 50       		.byte	0x50
 3787 1414 01       		.uleb128 0x1
 3788 1415 3C       		.byte	0x3c
 3789 1416 00       		.byte	0
 3790 1417 2C       		.uleb128 0x2c
 3791 1418 76020000 		.4byte	.LVL85
 3792 141c 5D150000 		.4byte	0x155d
 3793 1420 38140000 		.4byte	0x1438
 3794 1424 25       		.uleb128 0x25
 3795 1425 01       		.uleb128 0x1
 3796 1426 52       		.byte	0x52
 3797 1427 01       		.uleb128 0x1
 3798 1428 3A       		.byte	0x3a
 3799 1429 25       		.uleb128 0x25
 3800 142a 01       		.uleb128 0x1
 3801 142b 51       		.byte	0x51
 3802 142c 01       		.uleb128 0x1
 3803 142d 30       		.byte	0x30
 3804 142e 25       		.uleb128 0x25
 3805 142f 01       		.uleb128 0x1
 3806 1430 50       		.byte	0x50
 3807 1431 05       		.uleb128 0x5
 3808 1432 03       		.byte	0x3
 3809 1433 00000000 		.4byte	.LANCHOR1
 3810 1437 00       		.byte	0
ARM GAS  /tmp/ccAAWrMz.s 			page 68


 3811 1438 2E       		.uleb128 0x2e
 3812 1439 8E020000 		.4byte	.LVL86
 3813 143d C4150000 		.4byte	0x15c4
 3814 1441 25       		.uleb128 0x25
 3815 1442 01       		.uleb128 0x1
 3816 1443 50       		.byte	0x50
 3817 1444 01       		.uleb128 0x1
 3818 1445 3D       		.byte	0x3d
 3819 1446 00       		.byte	0
 3820 1447 00       		.byte	0
 3821 1448 24       		.uleb128 0x24
 3822 1449 26000000 		.4byte	.LVL49
 3823 144d C4150000 		.4byte	0x15c4
 3824 1451 25       		.uleb128 0x25
 3825 1452 01       		.uleb128 0x1
 3826 1453 50       		.byte	0x50
 3827 1454 01       		.uleb128 0x1
 3828 1455 31       		.byte	0x31
 3829 1456 00       		.byte	0
 3830 1457 00       		.byte	0
 3831 1458 2F       		.uleb128 0x2f
 3832 1459 697100   		.ascii	"iq\000"
 3833 145c 01       		.byte	0x1
 3834 145d 42       		.byte	0x42
 3835 145e FA040000 		.4byte	0x4fa
 3836 1462 05       		.uleb128 0x5
 3837 1463 03       		.byte	0x3
 3838 1464 00000000 		.4byte	iq
 3839 1468 2F       		.uleb128 0x2f
 3840 1469 6F7100   		.ascii	"oq\000"
 3841 146c 01       		.byte	0x1
 3842 146d 43       		.byte	0x43
 3843 146e 05050000 		.4byte	0x505
 3844 1472 05       		.uleb128 0x5
 3845 1473 03       		.byte	0x3
 3846 1474 00000000 		.4byte	oq
 3847 1478 30       		.uleb128 0x30
 3848 1479 F1040000 		.4byte	.LASF97
 3849 147d 09       		.byte	0x9
 3850 147e 6F       		.byte	0x6f
 3851 147f A0030000 		.4byte	0x3a0
 3852 1483 17       		.uleb128 0x17
 3853 1484 5D020000 		.4byte	0x25d
 3854 1488 93140000 		.4byte	0x1493
 3855 148c 18       		.uleb128 0x18
 3856 148d 43030000 		.4byte	0x343
 3857 1491 04       		.byte	0x4
 3858 1492 00       		.byte	0
 3859 1493 30       		.uleb128 0x30
 3860 1494 24040000 		.4byte	.LASF98
 3861 1498 0C       		.byte	0xc
 3862 1499 A5       		.byte	0xa5
 3863 149a 83140000 		.4byte	0x1483
 3864 149e 30       		.uleb128 0x30
 3865 149f B9000000 		.4byte	.LASF99
 3866 14a3 0C       		.byte	0xc
 3867 14a4 A6       		.byte	0xa6
ARM GAS  /tmp/ccAAWrMz.s 			page 69


 3868 14a5 B4050000 		.4byte	0x5b4
 3869 14a9 17       		.uleb128 0x17
 3870 14aa 99020000 		.4byte	0x299
 3871 14ae B4140000 		.4byte	0x14b4
 3872 14b2 31       		.uleb128 0x31
 3873 14b3 00       		.byte	0
 3874 14b4 32       		.uleb128 0x32
 3875 14b5 776100   		.ascii	"wa\000"
 3876 14b8 0C       		.byte	0xc
 3877 14b9 A7       		.byte	0xa7
 3878 14ba BE140000 		.4byte	0x14be
 3879 14be 10       		.uleb128 0x10
 3880 14bf A9140000 		.4byte	0x14a9
 3881 14c3 33       		.uleb128 0x33
 3882 14c4 FA010000 		.4byte	.LASF100
 3883 14c8 01       		.byte	0x1
 3884 14c9 95       		.byte	0x95
 3885 14ca D4140000 		.4byte	0x14d4
 3886 14ce 05       		.uleb128 0x5
 3887 14cf 03       		.byte	0x3
 3888 14d0 00000000 		.4byte	testqueues1
 3889 14d4 10       		.uleb128 0x10
 3890 14d5 1B050000 		.4byte	0x51b
 3891 14d9 33       		.uleb128 0x33
 3892 14da 19030000 		.4byte	.LASF101
 3893 14de 01       		.byte	0x1
 3894 14df E3       		.byte	0xe3
 3895 14e0 D4140000 		.4byte	0x14d4
 3896 14e4 05       		.uleb128 0x5
 3897 14e5 03       		.byte	0x3
 3898 14e6 00000000 		.4byte	testqueues2
 3899 14ea 17       		.uleb128 0x17
 3900 14eb FA140000 		.4byte	0x14fa
 3901 14ef FA140000 		.4byte	0x14fa
 3902 14f3 18       		.uleb128 0x18
 3903 14f4 43030000 		.4byte	0x343
 3904 14f8 02       		.byte	0x2
 3905 14f9 00       		.byte	0
 3906 14fa 09       		.uleb128 0x9
 3907 14fb 04       		.byte	0x4
 3908 14fc D4140000 		.4byte	0x14d4
 3909 1500 33       		.uleb128 0x33
 3910 1501 63000000 		.4byte	.LASF102
 3911 1505 01       		.byte	0x1
 3912 1506 EE       		.byte	0xee
 3913 1507 11150000 		.4byte	0x1511
 3914 150b 05       		.uleb128 0x5
 3915 150c 03       		.byte	0x3
 3916 150d 00000000 		.4byte	patternqueues
 3917 1511 10       		.uleb128 0x10
 3918 1512 EA140000 		.4byte	0x14ea
 3919 1516 34       		.uleb128 0x34
 3920 1517 39050000 		.4byte	.LASF103
 3921 151b 0B       		.byte	0xb
 3922 151c 6601     		.2byte	0x166
 3923 151e 13010000 		.4byte	0x113
 3924 1522 31150000 		.4byte	0x1531
ARM GAS  /tmp/ccAAWrMz.s 			page 70


 3925 1526 12       		.uleb128 0x12
 3926 1527 31150000 		.4byte	0x1531
 3927 152b 12       		.uleb128 0x12
 3928 152c 29010000 		.4byte	0x129
 3929 1530 00       		.byte	0
 3930 1531 09       		.uleb128 0x9
 3931 1532 04       		.byte	0x4
 3932 1533 FA040000 		.4byte	0x4fa
 3933 1537 35       		.uleb128 0x35
 3934 1538 2B000000 		.4byte	.LASF105
 3935 153c 0B       		.byte	0xb
 3936 153d 6201     		.2byte	0x162
 3937 153f 5D150000 		.4byte	0x155d
 3938 1543 12       		.uleb128 0x12
 3939 1544 31150000 		.4byte	0x1531
 3940 1548 12       		.uleb128 0x12
 3941 1549 F4040000 		.4byte	0x4f4
 3942 154d 12       		.uleb128 0x12
 3943 154e 28000000 		.4byte	0x28
 3944 1552 12       		.uleb128 0x12
 3945 1553 D2040000 		.4byte	0x4d2
 3946 1557 12       		.uleb128 0x12
 3947 1558 99020000 		.4byte	0x299
 3948 155c 00       		.byte	0
 3949 155d 34       		.uleb128 0x34
 3950 155e 00000000 		.4byte	.LASF104
 3951 1562 0B       		.byte	0xb
 3952 1563 6D01     		.2byte	0x16d
 3953 1565 13010000 		.4byte	0x113
 3954 1569 7D150000 		.4byte	0x157d
 3955 156d 12       		.uleb128 0x12
 3956 156e 7D150000 		.4byte	0x157d
 3957 1572 12       		.uleb128 0x12
 3958 1573 9E000000 		.4byte	0x9e
 3959 1577 12       		.uleb128 0x12
 3960 1578 29010000 		.4byte	0x129
 3961 157c 00       		.byte	0
 3962 157d 09       		.uleb128 0x9
 3963 157e 04       		.byte	0x4
 3964 157f 05050000 		.4byte	0x505
 3965 1583 35       		.uleb128 0x35
 3966 1584 99000000 		.4byte	.LASF106
 3967 1588 0B       		.byte	0xb
 3968 1589 6A01     		.2byte	0x16a
 3969 158b A9150000 		.4byte	0x15a9
 3970 158f 12       		.uleb128 0x12
 3971 1590 7D150000 		.4byte	0x157d
 3972 1594 12       		.uleb128 0x12
 3973 1595 F4040000 		.4byte	0x4f4
 3974 1599 12       		.uleb128 0x12
 3975 159a 28000000 		.4byte	0x28
 3976 159e 12       		.uleb128 0x12
 3977 159f D2040000 		.4byte	0x4d2
 3978 15a3 12       		.uleb128 0x12
 3979 15a4 99020000 		.4byte	0x299
 3980 15a8 00       		.byte	0
 3981 15a9 34       		.uleb128 0x34
ARM GAS  /tmp/ccAAWrMz.s 			page 71


 3982 15aa 8E010000 		.4byte	.LASF107
 3983 15ae 0B       		.byte	0xb
 3984 15af 6501     		.2byte	0x165
 3985 15b1 13010000 		.4byte	0x113
 3986 15b5 C4150000 		.4byte	0x15c4
 3987 15b9 12       		.uleb128 0x12
 3988 15ba 31150000 		.4byte	0x1531
 3989 15be 12       		.uleb128 0x12
 3990 15bf 9E000000 		.4byte	0x9e
 3991 15c3 00       		.byte	0
 3992 15c4 36       		.uleb128 0x36
 3993 15c5 0D050000 		.4byte	.LASF108
 3994 15c9 0C       		.byte	0xc
 3995 15ca 58       		.byte	0x58
 3996 15cb CA000000 		.4byte	0xca
 3997 15cf DE150000 		.4byte	0x15de
 3998 15d3 12       		.uleb128 0x12
 3999 15d4 33000000 		.4byte	0x33
 4000 15d8 12       		.uleb128 0x12
 4001 15d9 CA000000 		.4byte	0xca
 4002 15dd 00       		.byte	0
 4003 15de 37       		.uleb128 0x37
 4004 15df 00010000 		.4byte	.LASF109
 4005 15e3 0C       		.byte	0xc
 4006 15e4 56       		.byte	0x56
 4007 15e5 EF150000 		.4byte	0x15ef
 4008 15e9 12       		.uleb128 0x12
 4009 15ea 2D040000 		.4byte	0x42d
 4010 15ee 00       		.byte	0
 4011 15ef 36       		.uleb128 0x36
 4012 15f0 70030000 		.4byte	.LASF110
 4013 15f4 0C       		.byte	0xc
 4014 15f5 59       		.byte	0x59
 4015 15f6 CA000000 		.4byte	0xca
 4016 15fa 09160000 		.4byte	0x1609
 4017 15fe 12       		.uleb128 0x12
 4018 15ff 33000000 		.4byte	0x33
 4019 1603 12       		.uleb128 0x12
 4020 1604 09160000 		.4byte	0x1609
 4021 1608 00       		.byte	0
 4022 1609 09       		.uleb128 0x9
 4023 160a 04       		.byte	0x4
 4024 160b 2D040000 		.4byte	0x42d
 4025 160f 34       		.uleb128 0x34
 4026 1610 53000000 		.4byte	.LASF111
 4027 1614 0B       		.byte	0xb
 4028 1615 6701     		.2byte	0x167
 4029 1617 28000000 		.4byte	0x28
 4030 161b 34160000 		.4byte	0x1634
 4031 161f 12       		.uleb128 0x12
 4032 1620 31150000 		.4byte	0x1531
 4033 1624 12       		.uleb128 0x12
 4034 1625 F4040000 		.4byte	0x4f4
 4035 1629 12       		.uleb128 0x12
 4036 162a 28000000 		.4byte	0x28
 4037 162e 12       		.uleb128 0x12
 4038 162f 29010000 		.4byte	0x129
ARM GAS  /tmp/ccAAWrMz.s 			page 72


 4039 1633 00       		.byte	0
 4040 1634 35       		.uleb128 0x35
 4041 1635 A4010000 		.4byte	.LASF112
 4042 1639 0B       		.byte	0xb
 4043 163a 6401     		.2byte	0x164
 4044 163c 46160000 		.4byte	0x1646
 4045 1640 12       		.uleb128 0x12
 4046 1641 31150000 		.4byte	0x1531
 4047 1645 00       		.byte	0
 4048 1646 34       		.uleb128 0x34
 4049 1647 DD020000 		.4byte	.LASF113
 4050 164b 07       		.byte	0x7
 4051 164c 7001     		.2byte	0x170
 4052 164e 5D020000 		.4byte	0x25d
 4053 1652 70160000 		.4byte	0x1670
 4054 1656 12       		.uleb128 0x12
 4055 1657 99020000 		.4byte	0x299
 4056 165b 12       		.uleb128 0x12
 4057 165c 28000000 		.4byte	0x28
 4058 1660 12       		.uleb128 0x12
 4059 1661 08010000 		.4byte	0x108
 4060 1665 12       		.uleb128 0x12
 4061 1666 3A040000 		.4byte	0x43a
 4062 166a 12       		.uleb128 0x12
 4063 166b 99020000 		.4byte	0x299
 4064 166f 00       		.byte	0
 4065 1670 38       		.uleb128 0x38
 4066 1671 25030000 		.4byte	.LASF119
 4067 1675 0C       		.byte	0xc
 4068 1676 5C       		.byte	0x5c
 4069 1677 34       		.uleb128 0x34
 4070 1678 2C010000 		.4byte	.LASF114
 4071 167c 0B       		.byte	0xb
 4072 167d 6E01     		.2byte	0x16e
 4073 167f 13010000 		.4byte	0x113
 4074 1683 8D160000 		.4byte	0x168d
 4075 1687 12       		.uleb128 0x12
 4076 1688 7D150000 		.4byte	0x157d
 4077 168c 00       		.byte	0
 4078 168d 34       		.uleb128 0x34
 4079 168e 88000000 		.4byte	.LASF115
 4080 1692 0B       		.byte	0xb
 4081 1693 6F01     		.2byte	0x16f
 4082 1695 28000000 		.4byte	0x28
 4083 1699 B2160000 		.4byte	0x16b2
 4084 169d 12       		.uleb128 0x12
 4085 169e 7D150000 		.4byte	0x157d
 4086 16a2 12       		.uleb128 0x12
 4087 16a3 10050000 		.4byte	0x510
 4088 16a7 12       		.uleb128 0x12
 4089 16a8 28000000 		.4byte	0x28
 4090 16ac 12       		.uleb128 0x12
 4091 16ad 29010000 		.4byte	0x129
 4092 16b1 00       		.byte	0
 4093 16b2 39       		.uleb128 0x39
 4094 16b3 AD040000 		.4byte	.LASF120
 4095 16b7 0B       		.byte	0xb
ARM GAS  /tmp/ccAAWrMz.s 			page 73


 4096 16b8 6C01     		.2byte	0x16c
 4097 16ba 12       		.uleb128 0x12
 4098 16bb 7D150000 		.4byte	0x157d
 4099 16bf 00       		.byte	0
 4100 16c0 00       		.byte	0
 4101              		.section	.debug_abbrev,"",%progbits
 4102              	.Ldebug_abbrev0:
 4103 0000 01       		.uleb128 0x1
 4104 0001 11       		.uleb128 0x11
 4105 0002 01       		.byte	0x1
 4106 0003 25       		.uleb128 0x25
 4107 0004 0E       		.uleb128 0xe
 4108 0005 13       		.uleb128 0x13
 4109 0006 0B       		.uleb128 0xb
 4110 0007 03       		.uleb128 0x3
 4111 0008 0E       		.uleb128 0xe
 4112 0009 55       		.uleb128 0x55
 4113 000a 17       		.uleb128 0x17
 4114 000b 11       		.uleb128 0x11
 4115 000c 01       		.uleb128 0x1
 4116 000d 10       		.uleb128 0x10
 4117 000e 17       		.uleb128 0x17
 4118 000f 00       		.byte	0
 4119 0010 00       		.byte	0
 4120 0011 02       		.uleb128 0x2
 4121 0012 24       		.uleb128 0x24
 4122 0013 00       		.byte	0
 4123 0014 0B       		.uleb128 0xb
 4124 0015 0B       		.uleb128 0xb
 4125 0016 3E       		.uleb128 0x3e
 4126 0017 0B       		.uleb128 0xb
 4127 0018 03       		.uleb128 0x3
 4128 0019 08       		.uleb128 0x8
 4129 001a 00       		.byte	0
 4130 001b 00       		.byte	0
 4131 001c 03       		.uleb128 0x3
 4132 001d 16       		.uleb128 0x16
 4133 001e 00       		.byte	0
 4134 001f 03       		.uleb128 0x3
 4135 0020 0E       		.uleb128 0xe
 4136 0021 3A       		.uleb128 0x3a
 4137 0022 0B       		.uleb128 0xb
 4138 0023 3B       		.uleb128 0x3b
 4139 0024 0B       		.uleb128 0xb
 4140 0025 49       		.uleb128 0x49
 4141 0026 13       		.uleb128 0x13
 4142 0027 00       		.byte	0
 4143 0028 00       		.byte	0
 4144 0029 04       		.uleb128 0x4
 4145 002a 24       		.uleb128 0x24
 4146 002b 00       		.byte	0
 4147 002c 0B       		.uleb128 0xb
 4148 002d 0B       		.uleb128 0xb
 4149 002e 3E       		.uleb128 0x3e
 4150 002f 0B       		.uleb128 0xb
 4151 0030 03       		.uleb128 0x3
 4152 0031 0E       		.uleb128 0xe
ARM GAS  /tmp/ccAAWrMz.s 			page 74


 4153 0032 00       		.byte	0
 4154 0033 00       		.byte	0
 4155 0034 05       		.uleb128 0x5
 4156 0035 13       		.uleb128 0x13
 4157 0036 01       		.byte	0x1
 4158 0037 03       		.uleb128 0x3
 4159 0038 0E       		.uleb128 0xe
 4160 0039 0B       		.uleb128 0xb
 4161 003a 0B       		.uleb128 0xb
 4162 003b 3A       		.uleb128 0x3a
 4163 003c 0B       		.uleb128 0xb
 4164 003d 3B       		.uleb128 0x3b
 4165 003e 0B       		.uleb128 0xb
 4166 003f 01       		.uleb128 0x1
 4167 0040 13       		.uleb128 0x13
 4168 0041 00       		.byte	0
 4169 0042 00       		.byte	0
 4170 0043 06       		.uleb128 0x6
 4171 0044 0D       		.uleb128 0xd
 4172 0045 00       		.byte	0
 4173 0046 03       		.uleb128 0x3
 4174 0047 0E       		.uleb128 0xe
 4175 0048 3A       		.uleb128 0x3a
 4176 0049 0B       		.uleb128 0xb
 4177 004a 3B       		.uleb128 0x3b
 4178 004b 0B       		.uleb128 0xb
 4179 004c 49       		.uleb128 0x49
 4180 004d 13       		.uleb128 0x13
 4181 004e 38       		.uleb128 0x38
 4182 004f 0B       		.uleb128 0xb
 4183 0050 00       		.byte	0
 4184 0051 00       		.byte	0
 4185 0052 07       		.uleb128 0x7
 4186 0053 0D       		.uleb128 0xd
 4187 0054 00       		.byte	0
 4188 0055 03       		.uleb128 0x3
 4189 0056 08       		.uleb128 0x8
 4190 0057 3A       		.uleb128 0x3a
 4191 0058 0B       		.uleb128 0xb
 4192 0059 3B       		.uleb128 0x3b
 4193 005a 0B       		.uleb128 0xb
 4194 005b 49       		.uleb128 0x49
 4195 005c 13       		.uleb128 0x13
 4196 005d 38       		.uleb128 0x38
 4197 005e 0B       		.uleb128 0xb
 4198 005f 00       		.byte	0
 4199 0060 00       		.byte	0
 4200 0061 08       		.uleb128 0x8
 4201 0062 13       		.uleb128 0x13
 4202 0063 01       		.byte	0x1
 4203 0064 0B       		.uleb128 0xb
 4204 0065 0B       		.uleb128 0xb
 4205 0066 3A       		.uleb128 0x3a
 4206 0067 0B       		.uleb128 0xb
 4207 0068 3B       		.uleb128 0x3b
 4208 0069 0B       		.uleb128 0xb
 4209 006a 01       		.uleb128 0x1
ARM GAS  /tmp/ccAAWrMz.s 			page 75


 4210 006b 13       		.uleb128 0x13
 4211 006c 00       		.byte	0
 4212 006d 00       		.byte	0
 4213 006e 09       		.uleb128 0x9
 4214 006f 0F       		.uleb128 0xf
 4215 0070 00       		.byte	0
 4216 0071 0B       		.uleb128 0xb
 4217 0072 0B       		.uleb128 0xb
 4218 0073 49       		.uleb128 0x49
 4219 0074 13       		.uleb128 0x13
 4220 0075 00       		.byte	0
 4221 0076 00       		.byte	0
 4222 0077 0A       		.uleb128 0xa
 4223 0078 0F       		.uleb128 0xf
 4224 0079 00       		.byte	0
 4225 007a 0B       		.uleb128 0xb
 4226 007b 0B       		.uleb128 0xb
 4227 007c 00       		.byte	0
 4228 007d 00       		.byte	0
 4229 007e 0B       		.uleb128 0xb
 4230 007f 13       		.uleb128 0x13
 4231 0080 01       		.byte	0x1
 4232 0081 03       		.uleb128 0x3
 4233 0082 0E       		.uleb128 0xe
 4234 0083 0B       		.uleb128 0xb
 4235 0084 0B       		.uleb128 0xb
 4236 0085 3A       		.uleb128 0x3a
 4237 0086 0B       		.uleb128 0xb
 4238 0087 3B       		.uleb128 0x3b
 4239 0088 05       		.uleb128 0x5
 4240 0089 01       		.uleb128 0x1
 4241 008a 13       		.uleb128 0x13
 4242 008b 00       		.byte	0
 4243 008c 00       		.byte	0
 4244 008d 0C       		.uleb128 0xc
 4245 008e 0D       		.uleb128 0xd
 4246 008f 00       		.byte	0
 4247 0090 03       		.uleb128 0x3
 4248 0091 08       		.uleb128 0x8
 4249 0092 3A       		.uleb128 0x3a
 4250 0093 0B       		.uleb128 0xb
 4251 0094 3B       		.uleb128 0x3b
 4252 0095 05       		.uleb128 0x5
 4253 0096 49       		.uleb128 0x49
 4254 0097 13       		.uleb128 0x13
 4255 0098 38       		.uleb128 0x38
 4256 0099 0B       		.uleb128 0xb
 4257 009a 00       		.byte	0
 4258 009b 00       		.byte	0
 4259 009c 0D       		.uleb128 0xd
 4260 009d 35       		.uleb128 0x35
 4261 009e 00       		.byte	0
 4262 009f 49       		.uleb128 0x49
 4263 00a0 13       		.uleb128 0x13
 4264 00a1 00       		.byte	0
 4265 00a2 00       		.byte	0
 4266 00a3 0E       		.uleb128 0xe
ARM GAS  /tmp/ccAAWrMz.s 			page 76


 4267 00a4 17       		.uleb128 0x17
 4268 00a5 01       		.byte	0x1
 4269 00a6 0B       		.uleb128 0xb
 4270 00a7 0B       		.uleb128 0xb
 4271 00a8 3A       		.uleb128 0x3a
 4272 00a9 0B       		.uleb128 0xb
 4273 00aa 3B       		.uleb128 0x3b
 4274 00ab 0B       		.uleb128 0xb
 4275 00ac 01       		.uleb128 0x1
 4276 00ad 13       		.uleb128 0x13
 4277 00ae 00       		.byte	0
 4278 00af 00       		.byte	0
 4279 00b0 0F       		.uleb128 0xf
 4280 00b1 0D       		.uleb128 0xd
 4281 00b2 00       		.byte	0
 4282 00b3 03       		.uleb128 0x3
 4283 00b4 0E       		.uleb128 0xe
 4284 00b5 3A       		.uleb128 0x3a
 4285 00b6 0B       		.uleb128 0xb
 4286 00b7 3B       		.uleb128 0x3b
 4287 00b8 0B       		.uleb128 0xb
 4288 00b9 49       		.uleb128 0x49
 4289 00ba 13       		.uleb128 0x13
 4290 00bb 00       		.byte	0
 4291 00bc 00       		.byte	0
 4292 00bd 10       		.uleb128 0x10
 4293 00be 26       		.uleb128 0x26
 4294 00bf 00       		.byte	0
 4295 00c0 49       		.uleb128 0x49
 4296 00c1 13       		.uleb128 0x13
 4297 00c2 00       		.byte	0
 4298 00c3 00       		.byte	0
 4299 00c4 11       		.uleb128 0x11
 4300 00c5 15       		.uleb128 0x15
 4301 00c6 01       		.byte	0x1
 4302 00c7 27       		.uleb128 0x27
 4303 00c8 19       		.uleb128 0x19
 4304 00c9 49       		.uleb128 0x49
 4305 00ca 13       		.uleb128 0x13
 4306 00cb 01       		.uleb128 0x1
 4307 00cc 13       		.uleb128 0x13
 4308 00cd 00       		.byte	0
 4309 00ce 00       		.byte	0
 4310 00cf 12       		.uleb128 0x12
 4311 00d0 05       		.uleb128 0x5
 4312 00d1 00       		.byte	0
 4313 00d2 49       		.uleb128 0x49
 4314 00d3 13       		.uleb128 0x13
 4315 00d4 00       		.byte	0
 4316 00d5 00       		.byte	0
 4317 00d6 13       		.uleb128 0x13
 4318 00d7 15       		.uleb128 0x15
 4319 00d8 01       		.byte	0x1
 4320 00d9 27       		.uleb128 0x27
 4321 00da 19       		.uleb128 0x19
 4322 00db 01       		.uleb128 0x1
 4323 00dc 13       		.uleb128 0x13
ARM GAS  /tmp/ccAAWrMz.s 			page 77


 4324 00dd 00       		.byte	0
 4325 00de 00       		.byte	0
 4326 00df 14       		.uleb128 0x14
 4327 00e0 15       		.uleb128 0x15
 4328 00e1 00       		.byte	0
 4329 00e2 27       		.uleb128 0x27
 4330 00e3 19       		.uleb128 0x19
 4331 00e4 00       		.byte	0
 4332 00e5 00       		.byte	0
 4333 00e6 15       		.uleb128 0x15
 4334 00e7 13       		.uleb128 0x13
 4335 00e8 01       		.byte	0x1
 4336 00e9 0B       		.uleb128 0xb
 4337 00ea 05       		.uleb128 0x5
 4338 00eb 3A       		.uleb128 0x3a
 4339 00ec 0B       		.uleb128 0xb
 4340 00ed 3B       		.uleb128 0x3b
 4341 00ee 0B       		.uleb128 0xb
 4342 00ef 01       		.uleb128 0x1
 4343 00f0 13       		.uleb128 0x13
 4344 00f1 00       		.byte	0
 4345 00f2 00       		.byte	0
 4346 00f3 16       		.uleb128 0x16
 4347 00f4 0D       		.uleb128 0xd
 4348 00f5 00       		.byte	0
 4349 00f6 03       		.uleb128 0x3
 4350 00f7 08       		.uleb128 0x8
 4351 00f8 3A       		.uleb128 0x3a
 4352 00f9 0B       		.uleb128 0xb
 4353 00fa 3B       		.uleb128 0x3b
 4354 00fb 0B       		.uleb128 0xb
 4355 00fc 49       		.uleb128 0x49
 4356 00fd 13       		.uleb128 0x13
 4357 00fe 38       		.uleb128 0x38
 4358 00ff 05       		.uleb128 0x5
 4359 0100 00       		.byte	0
 4360 0101 00       		.byte	0
 4361 0102 17       		.uleb128 0x17
 4362 0103 01       		.uleb128 0x1
 4363 0104 01       		.byte	0x1
 4364 0105 49       		.uleb128 0x49
 4365 0106 13       		.uleb128 0x13
 4366 0107 01       		.uleb128 0x1
 4367 0108 13       		.uleb128 0x13
 4368 0109 00       		.byte	0
 4369 010a 00       		.byte	0
 4370 010b 18       		.uleb128 0x18
 4371 010c 21       		.uleb128 0x21
 4372 010d 00       		.byte	0
 4373 010e 49       		.uleb128 0x49
 4374 010f 13       		.uleb128 0x13
 4375 0110 2F       		.uleb128 0x2f
 4376 0111 0B       		.uleb128 0xb
 4377 0112 00       		.byte	0
 4378 0113 00       		.byte	0
 4379 0114 19       		.uleb128 0x19
 4380 0115 17       		.uleb128 0x17
ARM GAS  /tmp/ccAAWrMz.s 			page 78


 4381 0116 01       		.byte	0x1
 4382 0117 03       		.uleb128 0x3
 4383 0118 0E       		.uleb128 0xe
 4384 0119 0B       		.uleb128 0xb
 4385 011a 05       		.uleb128 0x5
 4386 011b 3A       		.uleb128 0x3a
 4387 011c 0B       		.uleb128 0xb
 4388 011d 3B       		.uleb128 0x3b
 4389 011e 0B       		.uleb128 0xb
 4390 011f 01       		.uleb128 0x1
 4391 0120 13       		.uleb128 0x13
 4392 0121 00       		.byte	0
 4393 0122 00       		.byte	0
 4394 0123 1A       		.uleb128 0x1a
 4395 0124 0D       		.uleb128 0xd
 4396 0125 00       		.byte	0
 4397 0126 03       		.uleb128 0x3
 4398 0127 08       		.uleb128 0x8
 4399 0128 3A       		.uleb128 0x3a
 4400 0129 0B       		.uleb128 0xb
 4401 012a 3B       		.uleb128 0x3b
 4402 012b 0B       		.uleb128 0xb
 4403 012c 49       		.uleb128 0x49
 4404 012d 13       		.uleb128 0x13
 4405 012e 00       		.byte	0
 4406 012f 00       		.byte	0
 4407 0130 1B       		.uleb128 0x1b
 4408 0131 21       		.uleb128 0x21
 4409 0132 00       		.byte	0
 4410 0133 49       		.uleb128 0x49
 4411 0134 13       		.uleb128 0x13
 4412 0135 2F       		.uleb128 0x2f
 4413 0136 05       		.uleb128 0x5
 4414 0137 00       		.byte	0
 4415 0138 00       		.byte	0
 4416 0139 1C       		.uleb128 0x1c
 4417 013a 2E       		.uleb128 0x2e
 4418 013b 01       		.byte	0x1
 4419 013c 03       		.uleb128 0x3
 4420 013d 0E       		.uleb128 0xe
 4421 013e 3A       		.uleb128 0x3a
 4422 013f 0B       		.uleb128 0xb
 4423 0140 3B       		.uleb128 0x3b
 4424 0141 0B       		.uleb128 0xb
 4425 0142 27       		.uleb128 0x27
 4426 0143 19       		.uleb128 0x19
 4427 0144 20       		.uleb128 0x20
 4428 0145 0B       		.uleb128 0xb
 4429 0146 01       		.uleb128 0x1
 4430 0147 13       		.uleb128 0x13
 4431 0148 00       		.byte	0
 4432 0149 00       		.byte	0
 4433 014a 1D       		.uleb128 0x1d
 4434 014b 34       		.uleb128 0x34
 4435 014c 00       		.byte	0
 4436 014d 03       		.uleb128 0x3
 4437 014e 08       		.uleb128 0x8
ARM GAS  /tmp/ccAAWrMz.s 			page 79


 4438 014f 3A       		.uleb128 0x3a
 4439 0150 0B       		.uleb128 0xb
 4440 0151 3B       		.uleb128 0x3b
 4441 0152 0B       		.uleb128 0xb
 4442 0153 49       		.uleb128 0x49
 4443 0154 13       		.uleb128 0x13
 4444 0155 00       		.byte	0
 4445 0156 00       		.byte	0
 4446 0157 1E       		.uleb128 0x1e
 4447 0158 0B       		.uleb128 0xb
 4448 0159 01       		.byte	0x1
 4449 015a 01       		.uleb128 0x1
 4450 015b 13       		.uleb128 0x13
 4451 015c 00       		.byte	0
 4452 015d 00       		.byte	0
 4453 015e 1F       		.uleb128 0x1f
 4454 015f 0B       		.uleb128 0xb
 4455 0160 01       		.byte	0x1
 4456 0161 00       		.byte	0
 4457 0162 00       		.byte	0
 4458 0163 20       		.uleb128 0x20
 4459 0164 2E       		.uleb128 0x2e
 4460 0165 01       		.byte	0x1
 4461 0166 03       		.uleb128 0x3
 4462 0167 0E       		.uleb128 0xe
 4463 0168 3A       		.uleb128 0x3a
 4464 0169 0B       		.uleb128 0xb
 4465 016a 3B       		.uleb128 0x3b
 4466 016b 0B       		.uleb128 0xb
 4467 016c 27       		.uleb128 0x27
 4468 016d 19       		.uleb128 0x19
 4469 016e 11       		.uleb128 0x11
 4470 016f 01       		.uleb128 0x1
 4471 0170 12       		.uleb128 0x12
 4472 0171 06       		.uleb128 0x6
 4473 0172 40       		.uleb128 0x40
 4474 0173 18       		.uleb128 0x18
 4475 0174 9742     		.uleb128 0x2117
 4476 0176 19       		.uleb128 0x19
 4477 0177 01       		.uleb128 0x1
 4478 0178 13       		.uleb128 0x13
 4479 0179 00       		.byte	0
 4480 017a 00       		.byte	0
 4481 017b 21       		.uleb128 0x21
 4482 017c 05       		.uleb128 0x5
 4483 017d 00       		.byte	0
 4484 017e 03       		.uleb128 0x3
 4485 017f 08       		.uleb128 0x8
 4486 0180 3A       		.uleb128 0x3a
 4487 0181 0B       		.uleb128 0xb
 4488 0182 3B       		.uleb128 0x3b
 4489 0183 0B       		.uleb128 0xb
 4490 0184 49       		.uleb128 0x49
 4491 0185 13       		.uleb128 0x13
 4492 0186 02       		.uleb128 0x2
 4493 0187 18       		.uleb128 0x18
 4494 0188 00       		.byte	0
ARM GAS  /tmp/ccAAWrMz.s 			page 80


 4495 0189 00       		.byte	0
 4496 018a 22       		.uleb128 0x22
 4497 018b 2E       		.uleb128 0x2e
 4498 018c 01       		.byte	0x1
 4499 018d 03       		.uleb128 0x3
 4500 018e 0E       		.uleb128 0xe
 4501 018f 3A       		.uleb128 0x3a
 4502 0190 0B       		.uleb128 0xb
 4503 0191 3B       		.uleb128 0x3b
 4504 0192 0B       		.uleb128 0xb
 4505 0193 27       		.uleb128 0x27
 4506 0194 19       		.uleb128 0x19
 4507 0195 49       		.uleb128 0x49
 4508 0196 13       		.uleb128 0x13
 4509 0197 11       		.uleb128 0x11
 4510 0198 01       		.uleb128 0x1
 4511 0199 12       		.uleb128 0x12
 4512 019a 06       		.uleb128 0x6
 4513 019b 40       		.uleb128 0x40
 4514 019c 18       		.uleb128 0x18
 4515 019d 9742     		.uleb128 0x2117
 4516 019f 19       		.uleb128 0x19
 4517 01a0 01       		.uleb128 0x1
 4518 01a1 13       		.uleb128 0x13
 4519 01a2 00       		.byte	0
 4520 01a3 00       		.byte	0
 4521 01a4 23       		.uleb128 0x23
 4522 01a5 05       		.uleb128 0x5
 4523 01a6 00       		.byte	0
 4524 01a7 03       		.uleb128 0x3
 4525 01a8 08       		.uleb128 0x8
 4526 01a9 3A       		.uleb128 0x3a
 4527 01aa 0B       		.uleb128 0xb
 4528 01ab 3B       		.uleb128 0x3b
 4529 01ac 0B       		.uleb128 0xb
 4530 01ad 49       		.uleb128 0x49
 4531 01ae 13       		.uleb128 0x13
 4532 01af 02       		.uleb128 0x2
 4533 01b0 17       		.uleb128 0x17
 4534 01b1 00       		.byte	0
 4535 01b2 00       		.byte	0
 4536 01b3 24       		.uleb128 0x24
 4537 01b4 898201   		.uleb128 0x4109
 4538 01b7 01       		.byte	0x1
 4539 01b8 11       		.uleb128 0x11
 4540 01b9 01       		.uleb128 0x1
 4541 01ba 31       		.uleb128 0x31
 4542 01bb 13       		.uleb128 0x13
 4543 01bc 00       		.byte	0
 4544 01bd 00       		.byte	0
 4545 01be 25       		.uleb128 0x25
 4546 01bf 8A8201   		.uleb128 0x410a
 4547 01c2 00       		.byte	0
 4548 01c3 02       		.uleb128 0x2
 4549 01c4 18       		.uleb128 0x18
 4550 01c5 9142     		.uleb128 0x2111
 4551 01c7 18       		.uleb128 0x18
ARM GAS  /tmp/ccAAWrMz.s 			page 81


 4552 01c8 00       		.byte	0
 4553 01c9 00       		.byte	0
 4554 01ca 26       		.uleb128 0x26
 4555 01cb 2E       		.uleb128 0x2e
 4556 01cc 01       		.byte	0x1
 4557 01cd 31       		.uleb128 0x31
 4558 01ce 13       		.uleb128 0x13
 4559 01cf 11       		.uleb128 0x11
 4560 01d0 01       		.uleb128 0x1
 4561 01d1 12       		.uleb128 0x12
 4562 01d2 06       		.uleb128 0x6
 4563 01d3 40       		.uleb128 0x40
 4564 01d4 18       		.uleb128 0x18
 4565 01d5 9742     		.uleb128 0x2117
 4566 01d7 19       		.uleb128 0x19
 4567 01d8 01       		.uleb128 0x1
 4568 01d9 13       		.uleb128 0x13
 4569 01da 00       		.byte	0
 4570 01db 00       		.byte	0
 4571 01dc 27       		.uleb128 0x27
 4572 01dd 34       		.uleb128 0x34
 4573 01de 00       		.byte	0
 4574 01df 31       		.uleb128 0x31
 4575 01e0 13       		.uleb128 0x13
 4576 01e1 00       		.byte	0
 4577 01e2 00       		.byte	0
 4578 01e3 28       		.uleb128 0x28
 4579 01e4 0B       		.uleb128 0xb
 4580 01e5 01       		.byte	0x1
 4581 01e6 55       		.uleb128 0x55
 4582 01e7 17       		.uleb128 0x17
 4583 01e8 01       		.uleb128 0x1
 4584 01e9 13       		.uleb128 0x13
 4585 01ea 00       		.byte	0
 4586 01eb 00       		.byte	0
 4587 01ec 29       		.uleb128 0x29
 4588 01ed 34       		.uleb128 0x34
 4589 01ee 00       		.byte	0
 4590 01ef 31       		.uleb128 0x31
 4591 01f0 13       		.uleb128 0x13
 4592 01f1 02       		.uleb128 0x2
 4593 01f2 18       		.uleb128 0x18
 4594 01f3 00       		.byte	0
 4595 01f4 00       		.byte	0
 4596 01f5 2A       		.uleb128 0x2a
 4597 01f6 34       		.uleb128 0x34
 4598 01f7 00       		.byte	0
 4599 01f8 31       		.uleb128 0x31
 4600 01f9 13       		.uleb128 0x13
 4601 01fa 02       		.uleb128 0x2
 4602 01fb 17       		.uleb128 0x17
 4603 01fc 00       		.byte	0
 4604 01fd 00       		.byte	0
 4605 01fe 2B       		.uleb128 0x2b
 4606 01ff 0B       		.uleb128 0xb
 4607 0200 01       		.byte	0x1
 4608 0201 11       		.uleb128 0x11
ARM GAS  /tmp/ccAAWrMz.s 			page 82


 4609 0202 01       		.uleb128 0x1
 4610 0203 12       		.uleb128 0x12
 4611 0204 06       		.uleb128 0x6
 4612 0205 01       		.uleb128 0x1
 4613 0206 13       		.uleb128 0x13
 4614 0207 00       		.byte	0
 4615 0208 00       		.byte	0
 4616 0209 2C       		.uleb128 0x2c
 4617 020a 898201   		.uleb128 0x4109
 4618 020d 01       		.byte	0x1
 4619 020e 11       		.uleb128 0x11
 4620 020f 01       		.uleb128 0x1
 4621 0210 31       		.uleb128 0x31
 4622 0211 13       		.uleb128 0x13
 4623 0212 01       		.uleb128 0x1
 4624 0213 13       		.uleb128 0x13
 4625 0214 00       		.byte	0
 4626 0215 00       		.byte	0
 4627 0216 2D       		.uleb128 0x2d
 4628 0217 898201   		.uleb128 0x4109
 4629 021a 00       		.byte	0
 4630 021b 11       		.uleb128 0x11
 4631 021c 01       		.uleb128 0x1
 4632 021d 31       		.uleb128 0x31
 4633 021e 13       		.uleb128 0x13
 4634 021f 00       		.byte	0
 4635 0220 00       		.byte	0
 4636 0221 2E       		.uleb128 0x2e
 4637 0222 898201   		.uleb128 0x4109
 4638 0225 01       		.byte	0x1
 4639 0226 11       		.uleb128 0x11
 4640 0227 01       		.uleb128 0x1
 4641 0228 9542     		.uleb128 0x2115
 4642 022a 19       		.uleb128 0x19
 4643 022b 31       		.uleb128 0x31
 4644 022c 13       		.uleb128 0x13
 4645 022d 00       		.byte	0
 4646 022e 00       		.byte	0
 4647 022f 2F       		.uleb128 0x2f
 4648 0230 34       		.uleb128 0x34
 4649 0231 00       		.byte	0
 4650 0232 03       		.uleb128 0x3
 4651 0233 08       		.uleb128 0x8
 4652 0234 3A       		.uleb128 0x3a
 4653 0235 0B       		.uleb128 0xb
 4654 0236 3B       		.uleb128 0x3b
 4655 0237 0B       		.uleb128 0xb
 4656 0238 49       		.uleb128 0x49
 4657 0239 13       		.uleb128 0x13
 4658 023a 02       		.uleb128 0x2
 4659 023b 18       		.uleb128 0x18
 4660 023c 00       		.byte	0
 4661 023d 00       		.byte	0
 4662 023e 30       		.uleb128 0x30
 4663 023f 34       		.uleb128 0x34
 4664 0240 00       		.byte	0
 4665 0241 03       		.uleb128 0x3
ARM GAS  /tmp/ccAAWrMz.s 			page 83


 4666 0242 0E       		.uleb128 0xe
 4667 0243 3A       		.uleb128 0x3a
 4668 0244 0B       		.uleb128 0xb
 4669 0245 3B       		.uleb128 0x3b
 4670 0246 0B       		.uleb128 0xb
 4671 0247 49       		.uleb128 0x49
 4672 0248 13       		.uleb128 0x13
 4673 0249 3F       		.uleb128 0x3f
 4674 024a 19       		.uleb128 0x19
 4675 024b 3C       		.uleb128 0x3c
 4676 024c 19       		.uleb128 0x19
 4677 024d 00       		.byte	0
 4678 024e 00       		.byte	0
 4679 024f 31       		.uleb128 0x31
 4680 0250 21       		.uleb128 0x21
 4681 0251 00       		.byte	0
 4682 0252 00       		.byte	0
 4683 0253 00       		.byte	0
 4684 0254 32       		.uleb128 0x32
 4685 0255 34       		.uleb128 0x34
 4686 0256 00       		.byte	0
 4687 0257 03       		.uleb128 0x3
 4688 0258 08       		.uleb128 0x8
 4689 0259 3A       		.uleb128 0x3a
 4690 025a 0B       		.uleb128 0xb
 4691 025b 3B       		.uleb128 0x3b
 4692 025c 0B       		.uleb128 0xb
 4693 025d 49       		.uleb128 0x49
 4694 025e 13       		.uleb128 0x13
 4695 025f 3F       		.uleb128 0x3f
 4696 0260 19       		.uleb128 0x19
 4697 0261 3C       		.uleb128 0x3c
 4698 0262 19       		.uleb128 0x19
 4699 0263 00       		.byte	0
 4700 0264 00       		.byte	0
 4701 0265 33       		.uleb128 0x33
 4702 0266 34       		.uleb128 0x34
 4703 0267 00       		.byte	0
 4704 0268 03       		.uleb128 0x3
 4705 0269 0E       		.uleb128 0xe
 4706 026a 3A       		.uleb128 0x3a
 4707 026b 0B       		.uleb128 0xb
 4708 026c 3B       		.uleb128 0x3b
 4709 026d 0B       		.uleb128 0xb
 4710 026e 49       		.uleb128 0x49
 4711 026f 13       		.uleb128 0x13
 4712 0270 3F       		.uleb128 0x3f
 4713 0271 19       		.uleb128 0x19
 4714 0272 02       		.uleb128 0x2
 4715 0273 18       		.uleb128 0x18
 4716 0274 00       		.byte	0
 4717 0275 00       		.byte	0
 4718 0276 34       		.uleb128 0x34
 4719 0277 2E       		.uleb128 0x2e
 4720 0278 01       		.byte	0x1
 4721 0279 3F       		.uleb128 0x3f
 4722 027a 19       		.uleb128 0x19
ARM GAS  /tmp/ccAAWrMz.s 			page 84


 4723 027b 03       		.uleb128 0x3
 4724 027c 0E       		.uleb128 0xe
 4725 027d 3A       		.uleb128 0x3a
 4726 027e 0B       		.uleb128 0xb
 4727 027f 3B       		.uleb128 0x3b
 4728 0280 05       		.uleb128 0x5
 4729 0281 27       		.uleb128 0x27
 4730 0282 19       		.uleb128 0x19
 4731 0283 49       		.uleb128 0x49
 4732 0284 13       		.uleb128 0x13
 4733 0285 3C       		.uleb128 0x3c
 4734 0286 19       		.uleb128 0x19
 4735 0287 01       		.uleb128 0x1
 4736 0288 13       		.uleb128 0x13
 4737 0289 00       		.byte	0
 4738 028a 00       		.byte	0
 4739 028b 35       		.uleb128 0x35
 4740 028c 2E       		.uleb128 0x2e
 4741 028d 01       		.byte	0x1
 4742 028e 3F       		.uleb128 0x3f
 4743 028f 19       		.uleb128 0x19
 4744 0290 03       		.uleb128 0x3
 4745 0291 0E       		.uleb128 0xe
 4746 0292 3A       		.uleb128 0x3a
 4747 0293 0B       		.uleb128 0xb
 4748 0294 3B       		.uleb128 0x3b
 4749 0295 05       		.uleb128 0x5
 4750 0296 27       		.uleb128 0x27
 4751 0297 19       		.uleb128 0x19
 4752 0298 3C       		.uleb128 0x3c
 4753 0299 19       		.uleb128 0x19
 4754 029a 01       		.uleb128 0x1
 4755 029b 13       		.uleb128 0x13
 4756 029c 00       		.byte	0
 4757 029d 00       		.byte	0
 4758 029e 36       		.uleb128 0x36
 4759 029f 2E       		.uleb128 0x2e
 4760 02a0 01       		.byte	0x1
 4761 02a1 3F       		.uleb128 0x3f
 4762 02a2 19       		.uleb128 0x19
 4763 02a3 03       		.uleb128 0x3
 4764 02a4 0E       		.uleb128 0xe
 4765 02a5 3A       		.uleb128 0x3a
 4766 02a6 0B       		.uleb128 0xb
 4767 02a7 3B       		.uleb128 0x3b
 4768 02a8 0B       		.uleb128 0xb
 4769 02a9 27       		.uleb128 0x27
 4770 02aa 19       		.uleb128 0x19
 4771 02ab 49       		.uleb128 0x49
 4772 02ac 13       		.uleb128 0x13
 4773 02ad 3C       		.uleb128 0x3c
 4774 02ae 19       		.uleb128 0x19
 4775 02af 01       		.uleb128 0x1
 4776 02b0 13       		.uleb128 0x13
 4777 02b1 00       		.byte	0
 4778 02b2 00       		.byte	0
 4779 02b3 37       		.uleb128 0x37
ARM GAS  /tmp/ccAAWrMz.s 			page 85


 4780 02b4 2E       		.uleb128 0x2e
 4781 02b5 01       		.byte	0x1
 4782 02b6 3F       		.uleb128 0x3f
 4783 02b7 19       		.uleb128 0x19
 4784 02b8 03       		.uleb128 0x3
 4785 02b9 0E       		.uleb128 0xe
 4786 02ba 3A       		.uleb128 0x3a
 4787 02bb 0B       		.uleb128 0xb
 4788 02bc 3B       		.uleb128 0x3b
 4789 02bd 0B       		.uleb128 0xb
 4790 02be 27       		.uleb128 0x27
 4791 02bf 19       		.uleb128 0x19
 4792 02c0 3C       		.uleb128 0x3c
 4793 02c1 19       		.uleb128 0x19
 4794 02c2 01       		.uleb128 0x1
 4795 02c3 13       		.uleb128 0x13
 4796 02c4 00       		.byte	0
 4797 02c5 00       		.byte	0
 4798 02c6 38       		.uleb128 0x38
 4799 02c7 2E       		.uleb128 0x2e
 4800 02c8 00       		.byte	0
 4801 02c9 3F       		.uleb128 0x3f
 4802 02ca 19       		.uleb128 0x19
 4803 02cb 03       		.uleb128 0x3
 4804 02cc 0E       		.uleb128 0xe
 4805 02cd 3A       		.uleb128 0x3a
 4806 02ce 0B       		.uleb128 0xb
 4807 02cf 3B       		.uleb128 0x3b
 4808 02d0 0B       		.uleb128 0xb
 4809 02d1 27       		.uleb128 0x27
 4810 02d2 19       		.uleb128 0x19
 4811 02d3 3C       		.uleb128 0x3c
 4812 02d4 19       		.uleb128 0x19
 4813 02d5 00       		.byte	0
 4814 02d6 00       		.byte	0
 4815 02d7 39       		.uleb128 0x39
 4816 02d8 2E       		.uleb128 0x2e
 4817 02d9 01       		.byte	0x1
 4818 02da 3F       		.uleb128 0x3f
 4819 02db 19       		.uleb128 0x19
 4820 02dc 03       		.uleb128 0x3
 4821 02dd 0E       		.uleb128 0xe
 4822 02de 3A       		.uleb128 0x3a
 4823 02df 0B       		.uleb128 0xb
 4824 02e0 3B       		.uleb128 0x3b
 4825 02e1 05       		.uleb128 0x5
 4826 02e2 27       		.uleb128 0x27
 4827 02e3 19       		.uleb128 0x19
 4828 02e4 3C       		.uleb128 0x3c
 4829 02e5 19       		.uleb128 0x19
 4830 02e6 00       		.byte	0
 4831 02e7 00       		.byte	0
 4832 02e8 00       		.byte	0
 4833              		.section	.debug_loc,"",%progbits
 4834              	.Ldebug_loc0:
 4835              	.LLST0:
 4836 0000 00000000 		.4byte	.LVL1
ARM GAS  /tmp/ccAAWrMz.s 			page 86


 4837 0004 06000000 		.4byte	.LVL2
 4838 0008 0100     		.2byte	0x1
 4839 000a 50       		.byte	0x50
 4840 000b 06000000 		.4byte	.LVL2
 4841 000f 14000000 		.4byte	.LFE9
 4842 0013 0400     		.2byte	0x4
 4843 0015 F3       		.byte	0xf3
 4844 0016 01       		.uleb128 0x1
 4845 0017 50       		.byte	0x50
 4846 0018 9F       		.byte	0x9f
 4847 0019 00000000 		.4byte	0
 4848 001d 00000000 		.4byte	0
 4849              	.LLST1:
 4850 0021 00000000 		.4byte	.LVL5
 4851 0025 06000000 		.4byte	.LVL6
 4852 0029 0100     		.2byte	0x1
 4853 002b 50       		.byte	0x50
 4854 002c 06000000 		.4byte	.LVL6
 4855 0030 16000000 		.4byte	.LFE12
 4856 0034 0400     		.2byte	0x4
 4857 0036 F3       		.byte	0xf3
 4858 0037 01       		.uleb128 0x1
 4859 0038 50       		.byte	0x50
 4860 0039 9F       		.byte	0x9f
 4861 003a 00000000 		.4byte	0
 4862 003e 00000000 		.4byte	0
 4863              	.LLST2:
 4864 0042 32000000 		.4byte	.LVL10
 4865 0046 34000000 		.4byte	.LVL11
 4866 004a 0200     		.2byte	0x2
 4867 004c 30       		.byte	0x30
 4868 004d 9F       		.byte	0x9f
 4869 004e AE000000 		.4byte	.LVL16
 4870 0052 B0000000 		.4byte	.LVL17
 4871 0056 0200     		.2byte	0x2
 4872 0058 30       		.byte	0x30
 4873 0059 9F       		.byte	0x9f
 4874 005a B0000000 		.4byte	.LVL17
 4875 005e C6000000 		.4byte	.LVL19
 4876 0062 0500     		.2byte	0x5
 4877 0064 34       		.byte	0x34
 4878 0065 74       		.byte	0x74
 4879 0066 00       		.sleb128 0
 4880 0067 1C       		.byte	0x1c
 4881 0068 9F       		.byte	0x9f
 4882 0069 C6000000 		.4byte	.LVL19
 4883 006d C8000000 		.4byte	.LVL20
 4884 0071 0500     		.2byte	0x5
 4885 0073 35       		.byte	0x35
 4886 0074 74       		.byte	0x74
 4887 0075 00       		.sleb128 0
 4888 0076 1C       		.byte	0x1c
 4889 0077 9F       		.byte	0x9f
 4890 0078 C8000000 		.4byte	.LVL20
 4891 007c 02010000 		.4byte	.LVL23
 4892 0080 0500     		.2byte	0x5
 4893 0082 34       		.byte	0x34
ARM GAS  /tmp/ccAAWrMz.s 			page 87


 4894 0083 74       		.byte	0x74
 4895 0084 00       		.sleb128 0
 4896 0085 1C       		.byte	0x1c
 4897 0086 9F       		.byte	0x9f
 4898 0087 02010000 		.4byte	.LVL23
 4899 008b 04010000 		.4byte	.LVL24
 4900 008f 0200     		.2byte	0x2
 4901 0091 30       		.byte	0x30
 4902 0092 9F       		.byte	0x9f
 4903 0093 6E010000 		.4byte	.LVL30
 4904 0097 70010000 		.4byte	.LVL31
 4905 009b 0200     		.2byte	0x2
 4906 009d 30       		.byte	0x30
 4907 009e 9F       		.byte	0x9f
 4908 009f 00000000 		.4byte	0
 4909 00a3 00000000 		.4byte	0
 4910              	.LLST3:
 4911 00a7 38010000 		.4byte	.LVL26
 4912 00ab 40010000 		.4byte	.LVL27
 4913 00af 0100     		.2byte	0x1
 4914 00b1 50       		.byte	0x50
 4915 00b2 40010000 		.4byte	.LVL27
 4916 00b6 70010000 		.4byte	.LVL31
 4917 00ba 0300     		.2byte	0x3
 4918 00bc 76       		.byte	0x76
 4919 00bd 04       		.sleb128 4
 4920 00be 9F       		.byte	0x9f
 4921 00bf 9E010000 		.4byte	.LVL33
 4922 00c3 A0010000 		.4byte	.LVL34
 4923 00c7 0100     		.2byte	0x1
 4924 00c9 50       		.byte	0x50
 4925 00ca A0010000 		.4byte	.LVL34
 4926 00ce A6010000 		.4byte	.LVL35
 4927 00d2 0300     		.2byte	0x3
 4928 00d4 70       		.byte	0x70
 4929 00d5 02       		.sleb128 2
 4930 00d6 9F       		.byte	0x9f
 4931 00d7 C2010000 		.4byte	.LVL37
 4932 00db CA010000 		.4byte	.LVL38
 4933 00df 0100     		.2byte	0x1
 4934 00e1 50       		.byte	0x50
 4935 00e2 CA010000 		.4byte	.LVL38
 4936 00e6 CD010000 		.4byte	.LVL39-1
 4937 00ea 0300     		.2byte	0x3
 4938 00ec 72       		.byte	0x72
 4939 00ed 02       		.sleb128 2
 4940 00ee 9F       		.byte	0x9f
 4941 00ef 00000000 		.4byte	0
 4942 00f3 00000000 		.4byte	0
 4943              	.LLST4:
 4944 00f7 30000000 		.4byte	.LVL50
 4945 00fb 32000000 		.4byte	.LVL51
 4946 00ff 0200     		.2byte	0x2
 4947 0101 30       		.byte	0x30
 4948 0102 9F       		.byte	0x9f
 4949 0103 6C000000 		.4byte	.LVL54
 4950 0107 6E000000 		.4byte	.LVL55
ARM GAS  /tmp/ccAAWrMz.s 			page 88


 4951 010b 0200     		.2byte	0x2
 4952 010d 30       		.byte	0x30
 4953 010e 9F       		.byte	0x9f
 4954 010f 6E000000 		.4byte	.LVL55
 4955 0113 8C000000 		.4byte	.LVL58
 4956 0117 0500     		.2byte	0x5
 4957 0119 34       		.byte	0x34
 4958 011a 74       		.byte	0x74
 4959 011b 00       		.sleb128 0
 4960 011c 1C       		.byte	0x1c
 4961 011d 9F       		.byte	0x9f
 4962 011e 8C000000 		.4byte	.LVL58
 4963 0122 8E000000 		.4byte	.LVL59
 4964 0126 0500     		.2byte	0x5
 4965 0128 35       		.byte	0x35
 4966 0129 74       		.byte	0x74
 4967 012a 00       		.sleb128 0
 4968 012b 1C       		.byte	0x1c
 4969 012c 9F       		.byte	0x9f
 4970 012d 8E000000 		.4byte	.LVL59
 4971 0131 B2000000 		.4byte	.LVL61
 4972 0135 0500     		.2byte	0x5
 4973 0137 34       		.byte	0x34
 4974 0138 74       		.byte	0x74
 4975 0139 00       		.sleb128 0
 4976 013a 1C       		.byte	0x1c
 4977 013b 9F       		.byte	0x9f
 4978 013c BC000000 		.4byte	.LVL62
 4979 0140 02010000 		.4byte	.LVL66
 4980 0144 0500     		.2byte	0x5
 4981 0146 34       		.byte	0x34
 4982 0147 74       		.byte	0x74
 4983 0148 00       		.sleb128 0
 4984 0149 1C       		.byte	0x1c
 4985 014a 9F       		.byte	0x9f
 4986 014b 58020000 		.4byte	.LVL83
 4987 014f 62020000 		.4byte	.LVL84
 4988 0153 0500     		.2byte	0x5
 4989 0155 34       		.byte	0x34
 4990 0156 74       		.byte	0x74
 4991 0157 00       		.sleb128 0
 4992 0158 1C       		.byte	0x1c
 4993 0159 9F       		.byte	0x9f
 4994 015a 00000000 		.4byte	0
 4995 015e 00000000 		.4byte	0
 4996              	.LLST5:
 4997 0162 18010000 		.4byte	.LVL67
 4998 0166 20010000 		.4byte	.LVL68
 4999 016a 0100     		.2byte	0x1
 5000 016c 50       		.byte	0x50
 5001 016d 20010000 		.4byte	.LVL68
 5002 0171 F2010000 		.4byte	.LVL76
 5003 0175 0300     		.2byte	0x3
 5004 0177 76       		.byte	0x76
 5005 0178 04       		.sleb128 4
 5006 0179 9F       		.byte	0x9f
 5007 017a F2010000 		.4byte	.LVL76
ARM GAS  /tmp/ccAAWrMz.s 			page 89


 5008 017e FA010000 		.4byte	.LVL77
 5009 0182 0100     		.2byte	0x1
 5010 0184 50       		.byte	0x50
 5011 0185 FA010000 		.4byte	.LVL77
 5012 0189 FD010000 		.4byte	.LVL78-1
 5013 018d 0300     		.2byte	0x3
 5014 018f 73       		.byte	0x73
 5015 0190 02       		.sleb128 2
 5016 0191 9F       		.byte	0x9f
 5017 0192 16020000 		.4byte	.LVL79
 5018 0196 24020000 		.4byte	.LVL80
 5019 019a 0100     		.2byte	0x1
 5020 019c 50       		.byte	0x50
 5021 019d 24020000 		.4byte	.LVL80
 5022 01a1 27020000 		.4byte	.LVL81-1
 5023 01a5 0300     		.2byte	0x3
 5024 01a7 7C       		.byte	0x7c
 5025 01a8 02       		.sleb128 2
 5026 01a9 9F       		.byte	0x9f
 5027 01aa 00000000 		.4byte	0
 5028 01ae 00000000 		.4byte	0
 5029              	.LLST6:
 5030 01b2 80000000 		.4byte	.LVL56
 5031 01b6 88000000 		.4byte	.LVL57
 5032 01ba 0100     		.2byte	0x1
 5033 01bc 50       		.byte	0x50
 5034 01bd 00000000 		.4byte	0
 5035 01c1 00000000 		.4byte	0
 5036              		.section	.debug_aranges,"",%progbits
 5037 0000 4C000000 		.4byte	0x4c
 5038 0004 0200     		.2byte	0x2
 5039 0006 00000000 		.4byte	.Ldebug_info0
 5040 000a 04       		.byte	0x4
 5041 000b 00       		.byte	0
 5042 000c 0000     		.2byte	0
 5043 000e 0000     		.2byte	0
 5044 0010 00000000 		.4byte	.LFB7
 5045 0014 02000000 		.4byte	.LFE7-.LFB7
 5046 0018 00000000 		.4byte	.LFB9
 5047 001c 14000000 		.4byte	.LFE9-.LFB9
 5048 0020 00000000 		.4byte	.LFB8
 5049 0024 2E000000 		.4byte	.LFE8-.LFB8
 5050 0028 00000000 		.4byte	.LFB12
 5051 002c 16000000 		.4byte	.LFE12-.LFB12
 5052 0030 00000000 		.4byte	.LFB11
 5053 0034 2E000000 		.4byte	.LFE11-.LFB11
 5054 0038 00000000 		.4byte	.LFB10
 5055 003c BE020000 		.4byte	.LFE10-.LFB10
 5056 0040 00000000 		.4byte	.LFB13
 5057 0044 8E020000 		.4byte	.LFE13-.LFB13
 5058 0048 00000000 		.4byte	0
 5059 004c 00000000 		.4byte	0
 5060              		.section	.debug_ranges,"",%progbits
 5061              	.Ldebug_ranges0:
 5062 0000 02000000 		.4byte	.LBB99
 5063 0004 04000000 		.4byte	.LBE99
 5064 0008 06000000 		.4byte	.LBB100
ARM GAS  /tmp/ccAAWrMz.s 			page 90


 5065 000c 0A000000 		.4byte	.LBE100
 5066 0010 00000000 		.4byte	0
 5067 0014 00000000 		.4byte	0
 5068 0018 26000000 		.4byte	.LBB102
 5069 001c 78000000 		.4byte	.LBE102
 5070 0020 7C000000 		.4byte	.LBB127
 5071 0024 AA020000 		.4byte	.LBE127
 5072 0028 B0020000 		.4byte	.LBB128
 5073 002c BE020000 		.4byte	.LBE128
 5074 0030 00000000 		.4byte	0
 5075 0034 00000000 		.4byte	0
 5076 0038 02000000 		.4byte	.LBB164
 5077 003c 04000000 		.4byte	.LBE164
 5078 0040 06000000 		.4byte	.LBB165
 5079 0044 0A000000 		.4byte	.LBE165
 5080 0048 00000000 		.4byte	0
 5081 004c 00000000 		.4byte	0
 5082 0050 2A000000 		.4byte	.LBB167
 5083 0054 B8000000 		.4byte	.LBE167
 5084 0058 BC000000 		.4byte	.LBB191
 5085 005c 4E020000 		.4byte	.LBE191
 5086 0060 58020000 		.4byte	.LBB192
 5087 0064 84020000 		.4byte	.LBE192
 5088 0068 8A020000 		.4byte	.LBB193
 5089 006c 8E020000 		.4byte	.LBE193
 5090 0070 00000000 		.4byte	0
 5091 0074 00000000 		.4byte	0
 5092 0078 44020000 		.4byte	.LBB188
 5093 007c 46020000 		.4byte	.LBE188
 5094 0080 48020000 		.4byte	.LBB189
 5095 0084 4E020000 		.4byte	.LBE189
 5096 0088 00000000 		.4byte	0
 5097 008c 00000000 		.4byte	0
 5098 0090 00000000 		.4byte	.LFB7
 5099 0094 02000000 		.4byte	.LFE7
 5100 0098 00000000 		.4byte	.LFB9
 5101 009c 14000000 		.4byte	.LFE9
 5102 00a0 00000000 		.4byte	.LFB8
 5103 00a4 2E000000 		.4byte	.LFE8
 5104 00a8 00000000 		.4byte	.LFB12
 5105 00ac 16000000 		.4byte	.LFE12
 5106 00b0 00000000 		.4byte	.LFB11
 5107 00b4 2E000000 		.4byte	.LFE11
 5108 00b8 00000000 		.4byte	.LFB10
 5109 00bc BE020000 		.4byte	.LFE10
 5110 00c0 00000000 		.4byte	.LFB13
 5111 00c4 8E020000 		.4byte	.LFE13
 5112 00c8 00000000 		.4byte	0
 5113 00cc 00000000 		.4byte	0
 5114              		.section	.debug_line,"",%progbits
 5115              	.Ldebug_line0:
 5116 0000 75020000 		.section	.debug_str,"MS",%progbits,1
 5116      02007401 
 5116      00000201 
 5116      FB0E0D00 
 5116      01010101 
 5117              	.LASF104:
ARM GAS  /tmp/ccAAWrMz.s 			page 91


 5118 0000 63684F51 		.ascii	"chOQPutTimeout\000"
 5118      50757454 
 5118      696D656F 
 5118      757400
 5119              	.LASF71:
 5120 000f 7466756E 		.ascii	"tfunc_t\000"
 5120      635F7400 
 5121              	.LASF43:
 5122 0017 705F6D73 		.ascii	"p_msg\000"
 5122      6700
 5123              	.LASF2:
 5124 001d 73697A65 		.ascii	"size_t\000"
 5124      5F7400
 5125              	.LASF66:
 5126 0024 7264796D 		.ascii	"rdymsg\000"
 5126      736700
 5127              	.LASF105:
 5128 002b 63684951 		.ascii	"chIQInit\000"
 5128      496E6974 
 5128      00
 5129              	.LASF17:
 5130 0034 75696E74 		.ascii	"uint64_t\000"
 5130      36345F74 
 5130      00
 5131              	.LASF83:
 5132 003d 4F757470 		.ascii	"OutputQueue\000"
 5132      75745175 
 5132      65756500 
 5133              	.LASF3:
 5134 0049 5F5F7569 		.ascii	"__uint8_t\000"
 5134      6E74385F 
 5134      7400
 5135              	.LASF111:
 5136 0053 63684951 		.ascii	"chIQReadTimeout\000"
 5136      52656164 
 5136      54696D65 
 5136      6F757400 
 5137              	.LASF102:
 5138 0063 70617474 		.ascii	"patternqueues\000"
 5138      65726E71 
 5138      75657565 
 5138      7300
 5139              	.LASF13:
 5140 0071 6C6F6E67 		.ascii	"long long unsigned int\000"
 5140      206C6F6E 
 5140      6720756E 
 5140      7369676E 
 5140      65642069 
 5141              	.LASF115:
 5142 0088 63684F51 		.ascii	"chOQWriteTimeout\000"
 5142      57726974 
 5142      6554696D 
 5142      656F7574 
 5142      00
 5143              	.LASF106:
 5144 0099 63684F51 		.ascii	"chOQInit\000"
 5144      496E6974 
ARM GAS  /tmp/ccAAWrMz.s 			page 92


 5144      00
 5145              	.LASF67:
 5146 00a2 65786974 		.ascii	"exitcode\000"
 5146      636F6465 
 5146      00
 5147              	.LASF96:
 5148 00ab 71756575 		.ascii	"queues2_setup\000"
 5148      6573325F 
 5148      73657475 
 5148      7000
 5149              	.LASF99:
 5150 00b9 74657374 		.ascii	"test\000"
 5150      00
 5151              	.LASF31:
 5152 00be 705F7072 		.ascii	"p_prio\000"
 5152      696F00
 5153              	.LASF73:
 5154 00c5 715F7761 		.ascii	"q_waiting\000"
 5154      6974696E 
 5154      6700
 5155              	.LASF11:
 5156 00cf 6C6F6E67 		.ascii	"long long int\000"
 5156      206C6F6E 
 5156      6720696E 
 5156      7400
 5157              	.LASF1:
 5158 00dd 7369676E 		.ascii	"signed char\000"
 5158      65642063 
 5158      68617200 
 5159              	.LASF47:
 5160 00e9 705F6D70 		.ascii	"p_mpool\000"
 5160      6F6F6C00 
 5161              	.LASF18:
 5162 00f1 626F6F6C 		.ascii	"bool_t\000"
 5162      5F7400
 5163              	.LASF63:
 5164 00f8 6D5F7175 		.ascii	"m_queue\000"
 5164      65756500 
 5165              	.LASF109:
 5166 0100 74657374 		.ascii	"test_emit_token\000"
 5166      5F656D69 
 5166      745F746F 
 5166      6B656E00 
 5167              	.LASF23:
 5168 0110 74736C69 		.ascii	"tslices_t\000"
 5168      6365735F 
 5168      7400
 5169              	.LASF8:
 5170 011a 6C6F6E67 		.ascii	"long int\000"
 5170      20696E74 
 5170      00
 5171              	.LASF21:
 5172 0123 74737461 		.ascii	"tstate_t\000"
 5172      74655F74 
 5172      00
 5173              	.LASF114:
 5174 012c 63684F51 		.ascii	"chOQGetI\000"
ARM GAS  /tmp/ccAAWrMz.s 			page 93


 5174      47657449 
 5174      00
 5175              	.LASF75:
 5176 0135 715F6275 		.ascii	"q_buffer\000"
 5176      66666572 
 5176      00
 5177              	.LASF77:
 5178 013e 715F7772 		.ascii	"q_wrptr\000"
 5178      70747200 
 5179              	.LASF89:
 5180 0146 62756666 		.ascii	"buffer\000"
 5180      657200
 5181              	.LASF33:
 5182 014d 705F6E65 		.ascii	"p_newer\000"
 5182      77657200 
 5183              	.LASF9:
 5184 0155 5F5F7569 		.ascii	"__uint32_t\000"
 5184      6E743332 
 5184      5F7400
 5185              	.LASF50:
 5186 0160 72656761 		.ascii	"regarm_t\000"
 5186      726D5F74 
 5186      00
 5187              	.LASF117:
 5188 0169 2F6F7074 		.ascii	"/opt/ChibiOS_2.6.6/test/testqueues.c\000"
 5188      2F436869 
 5188      62694F53 
 5188      5F322E36 
 5188      2E362F74 
 5189              	.LASF107:
 5190 018e 63684951 		.ascii	"chIQPutI\000"
 5190      50757449 
 5190      00
 5191              	.LASF0:
 5192 0197 756E7369 		.ascii	"unsigned int\000"
 5192      676E6564 
 5192      20696E74 
 5192      00
 5193              	.LASF112:
 5194 01a4 63684951 		.ascii	"chIQResetI\000"
 5194      52657365 
 5194      744900
 5195              	.LASF10:
 5196 01af 6C6F6E67 		.ascii	"long unsigned int\000"
 5196      20756E73 
 5196      69676E65 
 5196      6420696E 
 5196      7400
 5197              	.LASF87:
 5198 01c1 74656172 		.ascii	"teardown\000"
 5198      646F776E 
 5198      00
 5199              	.LASF85:
 5200 01ca 6E616D65 		.ascii	"name\000"
 5200      00
 5201              	.LASF53:
 5202 01cf 636F6E74 		.ascii	"context\000"
ARM GAS  /tmp/ccAAWrMz.s 			page 94


 5202      65787400 
 5203              	.LASF6:
 5204 01d7 73686F72 		.ascii	"short unsigned int\000"
 5204      7420756E 
 5204      7369676E 
 5204      65642069 
 5204      6E7400
 5205              	.LASF90:
 5206 01ea 71756575 		.ascii	"queues1_execute\000"
 5206      6573315F 
 5206      65786563 
 5206      75746500 
 5207              	.LASF100:
 5208 01fa 74657374 		.ascii	"testqueues1\000"
 5208      71756575 
 5208      65733100 
 5209              	.LASF25:
 5210 0206 6D73675F 		.ascii	"msg_t\000"
 5210      7400
 5211              	.LASF116:
 5212 020c 474E5520 		.ascii	"GNU C 4.8.2 -mcpu=cortex-m3 -mno-thumb-interwork -m"
 5212      4320342E 
 5212      382E3220 
 5212      2D6D6370 
 5212      753D636F 
 5213 023f 7468756D 		.ascii	"thumb -ggdb -O2 -fomit-frame-pointer -ffunction-sec"
 5213      62202D67 
 5213      67646220 
 5213      2D4F3220 
 5213      2D666F6D 
 5214 0272 74696F6E 		.ascii	"tions -fdata-sections -fno-common\000"
 5214      73202D66 
 5214      64617461 
 5214      2D736563 
 5214      74696F6E 
 5215              	.LASF20:
 5216 0294 746D6F64 		.ascii	"tmode_t\000"
 5216      655F7400 
 5217              	.LASF49:
 5218 029c 54687265 		.ascii	"ThreadsList\000"
 5218      6164734C 
 5218      69737400 
 5219              	.LASF26:
 5220 02a8 6576656E 		.ascii	"eventmask_t\000"
 5220      746D6173 
 5220      6B5F7400 
 5221              	.LASF82:
 5222 02b4 496E7075 		.ascii	"InputQueue\000"
 5222      74517565 
 5222      756500
 5223              	.LASF62:
 5224 02bf 4D757465 		.ascii	"Mutex\000"
 5224      7800
 5225              	.LASF72:
 5226 02c5 47656E65 		.ascii	"GenericQueue\000"
 5226      72696351 
 5226      75657565 
ARM GAS  /tmp/ccAAWrMz.s 			page 95


 5226      00
 5227              	.LASF51:
 5228 02d2 73746B61 		.ascii	"stkalign_t\000"
 5228      6C69676E 
 5228      5F7400
 5229              	.LASF113:
 5230 02dd 63685468 		.ascii	"chThdCreateStatic\000"
 5230      64437265 
 5230      61746553 
 5230      74617469 
 5230      6300
 5231              	.LASF92:
 5232 02ef 6E6F7469 		.ascii	"notify\000"
 5232      667900
 5233              	.LASF91:
 5234 02f6 71756575 		.ascii	"queues2_execute\000"
 5234      6573325F 
 5234      65786563 
 5234      75746500 
 5235              	.LASF54:
 5236 0306 73697A65 		.ascii	"sizetype\000"
 5236      74797065 
 5236      00
 5237              	.LASF74:
 5238 030f 715F636F 		.ascii	"q_counter\000"
 5238      756E7465 
 5238      7200
 5239              	.LASF101:
 5240 0319 74657374 		.ascii	"testqueues2\000"
 5240      71756575 
 5240      65733200 
 5241              	.LASF119:
 5242 0325 74657374 		.ascii	"test_wait_threads\000"
 5242      5F776169 
 5242      745F7468 
 5242      72656164 
 5242      7300
 5243              	.LASF34:
 5244 0337 705F6F6C 		.ascii	"p_older\000"
 5244      64657200 
 5245              	.LASF94:
 5246 033f 74687265 		.ascii	"thread1\000"
 5246      61643100 
 5247              	.LASF95:
 5248 0347 74687265 		.ascii	"thread2\000"
 5248      61643200 
 5249              	.LASF57:
 5250 034f 725F6374 		.ascii	"r_ctx\000"
 5250      7800
 5251              	.LASF58:
 5252 0355 725F6E65 		.ascii	"r_newer\000"
 5252      77657200 
 5253              	.LASF48:
 5254 035d 54687265 		.ascii	"ThreadsQueue\000"
 5254      61647351 
 5254      75657565 
 5254      00
ARM GAS  /tmp/ccAAWrMz.s 			page 96


 5255              	.LASF86:
 5256 036a 73657475 		.ascii	"setup\000"
 5256      7000
 5257              	.LASF110:
 5258 0370 5F746573 		.ascii	"_test_assert_sequence\000"
 5258      745F6173 
 5258      73657274 
 5258      5F736571 
 5258      75656E63 
 5259              	.LASF60:
 5260 0386 725F6375 		.ascii	"r_current\000"
 5260      7272656E 
 5260      7400
 5261              	.LASF59:
 5262 0390 725F6F6C 		.ascii	"r_older\000"
 5262      64657200 
 5263              	.LASF12:
 5264 0398 5F5F7569 		.ascii	"__uint64_t\000"
 5264      6E743634 
 5264      5F7400
 5265              	.LASF93:
 5266 03a3 71756575 		.ascii	"queues1_setup\000"
 5266      6573315F 
 5266      73657475 
 5266      7000
 5267              	.LASF22:
 5268 03b1 74726566 		.ascii	"trefs_t\000"
 5268      735F7400 
 5269              	.LASF81:
 5270 03b9 716E6F74 		.ascii	"qnotify_t\000"
 5270      6966795F 
 5270      7400
 5271              	.LASF30:
 5272 03c3 705F7072 		.ascii	"p_prev\000"
 5272      657600
 5273              	.LASF88:
 5274 03ca 65786563 		.ascii	"execute\000"
 5274      75746500 
 5275              	.LASF24:
 5276 03d2 74707269 		.ascii	"tprio_t\000"
 5276      6F5F7400 
 5277              	.LASF78:
 5278 03da 715F7264 		.ascii	"q_rdptr\000"
 5278      70747200 
 5279              	.LASF19:
 5280 03e2 5F426F6F 		.ascii	"_Bool\000"
 5280      6C00
 5281              	.LASF15:
 5282 03e8 696E7433 		.ascii	"int32_t\000"
 5282      325F7400 
 5283              	.LASF4:
 5284 03f0 756E7369 		.ascii	"unsigned char\000"
 5284      676E6564 
 5284      20636861 
 5284      7200
 5285              	.LASF45:
 5286 03fe 705F6D74 		.ascii	"p_mtxlist\000"
ARM GAS  /tmp/ccAAWrMz.s 			page 97


 5286      786C6973 
 5286      7400
 5287              	.LASF5:
 5288 0408 73686F72 		.ascii	"short int\000"
 5288      7420696E 
 5288      7400
 5289              	.LASF36:
 5290 0412 705F7374 		.ascii	"p_state\000"
 5290      61746500 
 5291              	.LASF39:
 5292 041a 705F7072 		.ascii	"p_preempt\000"
 5292      65656D70 
 5292      7400
 5293              	.LASF98:
 5294 0424 74687265 		.ascii	"threads\000"
 5294      61647300 
 5295              	.LASF56:
 5296 042c 725F7072 		.ascii	"r_prio\000"
 5296      696F00
 5297              	.LASF69:
 5298 0433 65776D61 		.ascii	"ewmask\000"
 5298      736B00
 5299              	.LASF29:
 5300 043a 705F6E65 		.ascii	"p_next\000"
 5300      787400
 5301              	.LASF37:
 5302 0441 705F666C 		.ascii	"p_flags\000"
 5302      61677300 
 5303              	.LASF28:
 5304 0449 54687265 		.ascii	"Thread\000"
 5304      616400
 5305              	.LASF84:
 5306 0450 74657374 		.ascii	"testcase\000"
 5306      63617365 
 5306      00
 5307              	.LASF44:
 5308 0459 705F6570 		.ascii	"p_epending\000"
 5308      656E6469 
 5308      6E6700
 5309              	.LASF16:
 5310 0464 75696E74 		.ascii	"uint32_t\000"
 5310      33325F74 
 5310      00
 5311              	.LASF55:
 5312 046d 725F7175 		.ascii	"r_queue\000"
 5312      65756500 
 5313              	.LASF70:
 5314 0475 63686172 		.ascii	"char\000"
 5314      00
 5315              	.LASF118:
 5316 047a 74657374 		.ascii	"test_buffers\000"
 5316      5F627566 
 5316      66657273 
 5316      00
 5317              	.LASF65:
 5318 0487 6D5F6E65 		.ascii	"m_next\000"
 5318      787400
ARM GAS  /tmp/ccAAWrMz.s 			page 98


 5319              	.LASF27:
 5320 048e 73797374 		.ascii	"systime_t\000"
 5320      696D655F 
 5320      7400
 5321              	.LASF46:
 5322 0498 705F7265 		.ascii	"p_realprio\000"
 5322      616C7072 
 5322      696F00
 5323              	.LASF7:
 5324 04a3 5F5F696E 		.ascii	"__int32_t\000"
 5324      7433325F 
 5324      7400
 5325              	.LASF120:
 5326 04ad 63684F51 		.ascii	"chOQResetI\000"
 5326      52657365 
 5326      744900
 5327              	.LASF40:
 5328 04b8 705F7469 		.ascii	"p_time\000"
 5328      6D6500
 5329              	.LASF52:
 5330 04bf 696E7463 		.ascii	"intctx\000"
 5330      747800
 5331              	.LASF42:
 5332 04c6 705F6D73 		.ascii	"p_msgqueue\000"
 5332      67717565 
 5332      756500
 5333              	.LASF76:
 5334 04d1 715F746F 		.ascii	"q_top\000"
 5334      7000
 5335              	.LASF38:
 5336 04d7 705F7265 		.ascii	"p_refs\000"
 5336      667300
 5337              	.LASF61:
 5338 04de 52656164 		.ascii	"ReadyList\000"
 5338      794C6973 
 5338      7400
 5339              	.LASF79:
 5340 04e8 715F6E6F 		.ascii	"q_notify\000"
 5340      74696679 
 5340      00
 5341              	.LASF97:
 5342 04f1 726C6973 		.ascii	"rlist\000"
 5342      7400
 5343              	.LASF14:
 5344 04f7 75696E74 		.ascii	"uint8_t\000"
 5344      385F7400 
 5345              	.LASF68:
 5346 04ff 77746F62 		.ascii	"wtobjp\000"
 5346      6A7000
 5347              	.LASF35:
 5348 0506 705F6E61 		.ascii	"p_name\000"
 5348      6D6500
 5349              	.LASF108:
 5350 050d 5F746573 		.ascii	"_test_assert\000"
 5350      745F6173 
 5350      73657274 
 5350      00
ARM GAS  /tmp/ccAAWrMz.s 			page 99


 5351              	.LASF80:
 5352 051a 715F6C69 		.ascii	"q_link\000"
 5352      6E6B00
 5353              	.LASF64:
 5354 0521 6D5F6F77 		.ascii	"m_owner\000"
 5354      6E657200 
 5355              	.LASF32:
 5356 0529 705F6374 		.ascii	"p_ctx\000"
 5356      7800
 5357              	.LASF41:
 5358 052f 705F7761 		.ascii	"p_waiting\000"
 5358      6974696E 
 5358      6700
 5359              	.LASF103:
 5360 0539 63684951 		.ascii	"chIQGetTimeout\000"
 5360      47657454 
 5360      696D656F 
 5360      757400
 5361              		.ident	"GCC: (4.8.2-14ubuntu1+6) 4.8.2"
ARM GAS  /tmp/ccAAWrMz.s 			page 100


DEFINED SYMBOLS
                            *ABS*:0000000000000000 testqueues.c
     /tmp/ccAAWrMz.s:19     .text.notify:0000000000000000 $t
     /tmp/ccAAWrMz.s:23     .text.notify:0000000000000000 notify
     /tmp/ccAAWrMz.s:37     .text.thread1:0000000000000000 $t
     /tmp/ccAAWrMz.s:41     .text.thread1:0000000000000000 thread1
     /tmp/ccAAWrMz.s:1205   .data.iq:0000000000000000 .LANCHOR0
     /tmp/ccAAWrMz.s:67     .text.queues1_setup:0000000000000000 $t
     /tmp/ccAAWrMz.s:71     .text.queues1_setup:0000000000000000 queues1_setup
     /tmp/ccAAWrMz.s:105    .text.thread2:0000000000000000 $t
     /tmp/ccAAWrMz.s:109    .text.thread2:0000000000000000 thread2
     /tmp/ccAAWrMz.s:1190   .data.oq:0000000000000000 .LANCHOR1
     /tmp/ccAAWrMz.s:135    .text.queues2_setup:0000000000000000 $t
     /tmp/ccAAWrMz.s:139    .text.queues2_setup:0000000000000000 queues2_setup
     /tmp/ccAAWrMz.s:173    .text.queues1_execute:0000000000000000 $t
     /tmp/ccAAWrMz.s:177    .text.queues1_execute:0000000000000000 queues1_execute
     /tmp/ccAAWrMz.s:1172   .rodata.str1.4:0000000000000000 .LC0
     /tmp/ccAAWrMz.s:674    .text.queues2_execute:0000000000000000 $t
     /tmp/ccAAWrMz.s:678    .text.queues2_execute:0000000000000000 queues2_execute
     /tmp/ccAAWrMz.s:1184   .rodata.patternqueues:0000000000000000 patternqueues
     /tmp/ccAAWrMz.s:1165   .rodata.testqueues2:0000000000000000 testqueues2
     /tmp/ccAAWrMz.s:1156   .rodata.testqueues1:0000000000000000 testqueues1
     /tmp/ccAAWrMz.s:1153   .rodata.testqueues1:0000000000000000 $d
     /tmp/ccAAWrMz.s:1162   .rodata.testqueues2:0000000000000000 $d
     /tmp/ccAAWrMz.s:1171   .rodata.str1.4:0000000000000000 $d
     /tmp/ccAAWrMz.s:1181   .rodata.patternqueues:0000000000000000 $d
     /tmp/ccAAWrMz.s:1189   .data.oq:0000000000000000 $d
     /tmp/ccAAWrMz.s:1193   .data.oq:0000000000000000 oq
     /tmp/ccAAWrMz.s:1204   .data.iq:0000000000000000 $d
     /tmp/ccAAWrMz.s:1208   .data.iq:0000000000000000 iq
                     .debug_frame:0000000000000010 $d

UNDEFINED SYMBOLS
chIQGetTimeout
wa
chIQInit
chOQPutTimeout
chOQInit
_test_assert
chIQPutI
test_emit_token
_test_assert_sequence
chIQReadTimeout
chIQResetI
rlist
chThdCreateStatic
threads
test_wait_threads
chOQGetI
chOQWriteTimeout
chOQResetI
test
