ARM GAS  /tmp/ccAAWrMz.s 			page 1


   1              		.syntax unified
   2              		.cpu cortex-m3
   3              		.fpu softvfp
   4              		.eabi_attribute 20, 1
   5              		.eabi_attribute 21, 1
   6              		.eabi_attribute 23, 3
   7              		.eabi_attribute 24, 1
   8              		.eabi_attribute 25, 1
   9              		.eabi_attribute 26, 1
  10              		.eabi_attribute 30, 2
  11              		.eabi_attribute 34, 1
  12              		.eabi_attribute 18, 4
  13              		.thumb
  14              		.file	"testqueues.c"
  15              		.text
  16              	.Ltext0:
  17              		.cfi_sections	.debug_frame
  18              		.section	.text.notify,"ax",%progbits
  19              		.align	2
  20              		.thumb
  21              		.thumb_func
  22              		.type	notify, %function
  23              	notify:
  24              	.LFB7:
  25              		.file 1 "/opt/ChibiOS_2.6.6/test/testqueues.c"
  26              		.loc 1 57 0
  27              		.cfi_startproc
  28              		@ args = 0, pretend = 0, frame = 0
  29              		@ frame_needed = 0, uses_anonymous_args = 0
  30              		@ link register save eliminated.
  31              	.LVL0:
  32 0000 7047     		bx	lr
  33              		.cfi_endproc
  34              	.LFE7:
  35              		.size	notify, .-notify
  36 0002 00BF     		.section	.text.thread1,"ax",%progbits
  37              		.align	2
  38              		.thumb
  39              		.thumb_func
  40              		.type	thread1, %function
  41              	thread1:
  42              	.LFB9:
  43              		.loc 1 83 0
  44              		.cfi_startproc
  45              		@ args = 0, pretend = 0, frame = 0
  46              		@ frame_needed = 0, uses_anonymous_args = 0
  47              	.LVL1:
  48              		.loc 1 83 0
  49 0000 08B5     		push	{r3, lr}
  50              		.cfi_def_cfa_offset 8
  51              		.cfi_offset 3, -8
  52              		.cfi_offset 14, -4
  53              		.loc 1 86 0
  54 0002 40F20000 		movw	r0, #:lower16:.LANCHOR0
  55              	.LVL2:
  56 0006 C821     		movs	r1, #200
  57 0008 C0F20000 		movt	r0, #:upper16:.LANCHOR0
ARM GAS  /tmp/ccAAWrMz.s 			page 2


  58 000c FFF7FEFF 		bl	chIQGetTimeout
  59              	.LVL3:
  60              		.loc 1 88 0
  61 0010 0020     		movs	r0, #0
  62 0012 08BD     		pop	{r3, pc}
  63              		.cfi_endproc
  64              	.LFE9:
  65              		.size	thread1, .-thread1
  66              		.section	.text.queues1_setup,"ax",%progbits
  67              		.align	2
  68              		.thumb
  69              		.thumb_func
  70              		.type	queues1_setup, %function
  71              	queues1_setup:
  72              	.LFB8:
  73              		.loc 1 78 0
  74              		.cfi_startproc
  75              		@ args = 0, pretend = 0, frame = 0
  76              		@ frame_needed = 0, uses_anonymous_args = 0
  77 0000 00B5     		push	{lr}
  78              		.cfi_def_cfa_offset 4
  79              		.cfi_offset 14, -4
  80              		.loc 1 80 0
  81 0002 40F20003 		movw	r3, #:lower16:wa
  82 0006 C0F20003 		movt	r3, #:upper16:wa
  83              		.loc 1 78 0
  84 000a 83B0     		sub	sp, sp, #12
  85              		.cfi_def_cfa_offset 16
  86              		.loc 1 80 0
  87 000c 1968     		ldr	r1, [r3]
  88 000e 0022     		movs	r2, #0
  89 0010 40F20000 		movw	r0, #:lower16:.LANCHOR0
  90 0014 40F20003 		movw	r3, #:lower16:notify
  91 0018 0092     		str	r2, [sp]
  92 001a C0F20000 		movt	r0, #:upper16:.LANCHOR0
  93 001e C0F20003 		movt	r3, #:upper16:notify
  94 0022 0422     		movs	r2, #4
  95 0024 FFF7FEFF 		bl	chIQInit
  96              	.LVL4:
  97              		.loc 1 81 0
  98 0028 03B0     		add	sp, sp, #12
  99              		@ sp needed
 100 002a 5DF804FB 		ldr	pc, [sp], #4
 101              		.cfi_endproc
 102              	.LFE8:
 103              		.size	queues1_setup, .-queues1_setup
 104 002e 00BF     		.section	.text.thread2,"ax",%progbits
 105              		.align	2
 106              		.thumb
 107              		.thumb_func
 108              		.type	thread2, %function
 109              	thread2:
 110              	.LFB12:
 111              		.loc 1 170 0
 112              		.cfi_startproc
 113              		@ args = 0, pretend = 0, frame = 0
 114              		@ frame_needed = 0, uses_anonymous_args = 0
ARM GAS  /tmp/ccAAWrMz.s 			page 3


 115              	.LVL5:
 116 0000 08B5     		push	{r3, lr}
 117              		.cfi_def_cfa_offset 8
 118              		.cfi_offset 3, -8
 119              		.cfi_offset 14, -4
 120              		.loc 1 173 0
 121 0002 40F20000 		movw	r0, #:lower16:.LANCHOR1
 122              	.LVL6:
 123 0006 0021     		movs	r1, #0
 124 0008 C822     		movs	r2, #200
 125 000a C0F20000 		movt	r0, #:upper16:.LANCHOR1
 126 000e FFF7FEFF 		bl	chOQPutTimeout
 127              	.LVL7:
 128              		.loc 1 175 0
 129 0012 0020     		movs	r0, #0
 130 0014 08BD     		pop	{r3, pc}
 131              		.cfi_endproc
 132              	.LFE12:
 133              		.size	thread2, .-thread2
 134 0016 00BF     		.section	.text.queues2_setup,"ax",%progbits
 135              		.align	2
 136              		.thumb
 137              		.thumb_func
 138              		.type	queues2_setup, %function
 139              	queues2_setup:
 140              	.LFB11:
 141              		.loc 1 165 0
 142              		.cfi_startproc
 143              		@ args = 0, pretend = 0, frame = 0
 144              		@ frame_needed = 0, uses_anonymous_args = 0
 145 0000 00B5     		push	{lr}
 146              		.cfi_def_cfa_offset 4
 147              		.cfi_offset 14, -4
 148              		.loc 1 167 0
 149 0002 40F20003 		movw	r3, #:lower16:wa
 150 0006 C0F20003 		movt	r3, #:upper16:wa
 151              		.loc 1 165 0
 152 000a 83B0     		sub	sp, sp, #12
 153              		.cfi_def_cfa_offset 16
 154              		.loc 1 167 0
 155 000c 1968     		ldr	r1, [r3]
 156 000e 0022     		movs	r2, #0
 157 0010 40F20000 		movw	r0, #:lower16:.LANCHOR1
 158 0014 40F20003 		movw	r3, #:lower16:notify
 159 0018 0092     		str	r2, [sp]
 160 001a C0F20000 		movt	r0, #:upper16:.LANCHOR1
 161 001e C0F20003 		movt	r3, #:upper16:notify
 162 0022 0422     		movs	r2, #4
 163 0024 FFF7FEFF 		bl	chOQInit
 164              	.LVL8:
 165              		.loc 1 168 0
 166 0028 03B0     		add	sp, sp, #12
 167              		@ sp needed
 168 002a 5DF804FB 		ldr	pc, [sp], #4
 169              		.cfi_endproc
 170              	.LFE11:
 171              		.size	queues2_setup, .-queues2_setup
ARM GAS  /tmp/ccAAWrMz.s 			page 4


 172 002e 00BF     		.section	.text.queues1_execute,"ax",%progbits
 173              		.align	2
 174              		.thumb
 175              		.thumb_func
 176              		.type	queues1_execute, %function
 177              	queues1_execute:
 178              	.LFB10:
 179              		.loc 1 90 0
 180              		.cfi_startproc
 181              		@ args = 0, pretend = 0, frame = 0
 182              		@ frame_needed = 0, uses_anonymous_args = 0
 183 0000 70B5     		push	{r4, r5, r6, lr}
 184              		.cfi_def_cfa_offset 16
 185              		.cfi_offset 4, -16
 186              		.cfi_offset 5, -12
 187              		.cfi_offset 6, -8
 188              		.cfi_offset 14, -4
 189              	.LBB99:
 190              		.loc 1 95 0
 191 0002 2023     		movs	r3, #32
 192              	.LBE99:
 193              		.loc 1 90 0
 194 0004 82B0     		sub	sp, sp, #8
 195              		.cfi_def_cfa_offset 24
 196              	.LBB100:
 197              		.loc 1 95 0
 198              	@ 95 "/opt/ChibiOS_2.6.6/test/testqueues.c" 1
 199 0006 83F31188 		msr     BASEPRI, r3
 200              	@ 0 "" 2
 201              		.thumb
 202              	.LBE100:
 203 000a 40F20005 		movw	r5, #:lower16:.LANCHOR0
 204 000e C0F20005 		movt	r5, #:upper16:.LANCHOR0
 205 0012 A968     		ldr	r1, [r5, #8]
 206 0014 0120     		movs	r0, #1
 207 0016 D1F10101 		rsbs	r1, r1, #1
 208 001a 38BF     		it	cc
 209 001c 0021     		movcc	r1, #0
 210 001e FFF7FEFF 		bl	_test_assert
 211              	.LVL9:
 212 0022 0646     		mov	r6, r0
 213 0024 28BB     		cbnz	r0, .L27
 214              	.LBB101:
 215              	.LBB102:
 216              	.LBB103:
 217 0026 0346     		mov	r3, r0
 218              	@ 95 "/opt/ChibiOS_2.6.6/test/testqueues.c" 1
 219 0028 83F31188 		msr     BASEPRI, r3
 220              	@ 0 "" 2
 221              		.thumb
 222              	.LBE103:
 223              	.LBB104:
 224              		.loc 1 98 0
 225 002c 2023     		movs	r3, #32
 226              	@ 98 "/opt/ChibiOS_2.6.6/test/testqueues.c" 1
 227 002e 83F31188 		msr     BASEPRI, r3
 228              	@ 0 "" 2
ARM GAS  /tmp/ccAAWrMz.s 			page 5


 229              	.LVL10:
 230              		.thumb
 231 0032 4124     		movs	r4, #65
 232              	.LVL11:
 233              	.L10:
 234              	.LBE104:
 235              		.loc 1 100 0
 236 0034 2146     		mov	r1, r4
 237 0036 40F20000 		movw	r0, #:lower16:.LANCHOR0
 238 003a 0134     		adds	r4, r4, #1
 239 003c C0F20000 		movt	r0, #:upper16:.LANCHOR0
 240 0040 E4B2     		uxtb	r4, r4
 241 0042 FFF7FEFF 		bl	chIQPutI
 242              	.LVL12:
 243              		.loc 1 99 0
 244 0046 452C     		cmp	r4, #69
 245 0048 F4D1     		bne	.L10
 246              	.LBB105:
 247              		.loc 1 101 0
 248 004a 0023     		movs	r3, #0
 249              	@ 101 "/opt/ChibiOS_2.6.6/test/testqueues.c" 1
 250 004c 83F31188 		msr     BASEPRI, r3
 251              	@ 0 "" 2
 252              		.thumb
 253              	.LBE105:
 254              	.LBB106:
 255              		.loc 1 102 0
 256 0050 2023     		movs	r3, #32
 257              	@ 102 "/opt/ChibiOS_2.6.6/test/testqueues.c" 1
 258 0052 83F31188 		msr     BASEPRI, r3
 259              	@ 0 "" 2
 260              		.thumb
 261              	.LBE106:
 262 0056 6969     		ldr	r1, [r5, #20]
 263 0058 AA69     		ldr	r2, [r5, #24]
 264 005a 40F20003 		movw	r3, #:lower16:.LANCHOR0
 265 005e 9142     		cmp	r1, r2
 266 0060 C0F20003 		movt	r3, #:upper16:.LANCHOR0
 267 0064 00F02681 		beq	.L29
 268              	.L11:
 269 0068 3146     		mov	r1, r6
 270 006a 0220     		movs	r0, #2
 271 006c FFF7FEFF 		bl	_test_assert
 272              	.LVL13:
 273 0070 20B1     		cbz	r0, .L12
 274              	.L27:
 275              	.LBB107:
 276              		.loc 1 142 0
 277 0072 0023     		movs	r3, #0
 278              	@ 142 "/opt/ChibiOS_2.6.6/test/testqueues.c" 1
 279 0074 83F31188 		msr     BASEPRI, r3
 280              	@ 0 "" 2
 281              		.thumb
 282              	.L6:
 283              	.LBE107:
 284              	.LBE102:
 285              	.LBE101:
ARM GAS  /tmp/ccAAWrMz.s 			page 6


 286              		.loc 1 147 0
 287 0078 02B0     		add	sp, sp, #8
 288              		@ sp needed
 289 007a 70BD     		pop	{r4, r5, r6, pc}
 290              	.L12:
 291              	.LBB129:
 292              	.LBB127:
 293              	.LBB108:
 294              		.loc 1 102 0
 295 007c 0346     		mov	r3, r0
 296              	@ 102 "/opt/ChibiOS_2.6.6/test/testqueues.c" 1
 297 007e 83F31188 		msr     BASEPRI, r3
 298              	@ 0 "" 2
 299              		.thumb
 300              	.LBE108:
 301              	.LBB109:
 302              		.loc 1 103 0
 303 0082 2023     		movs	r3, #32
 304              	@ 103 "/opt/ChibiOS_2.6.6/test/testqueues.c" 1
 305 0084 83F31188 		msr     BASEPRI, r3
 306              	@ 0 "" 2
 307              		.thumb
 308              	.LBE109:
 309 0088 40F20000 		movw	r0, #:lower16:.LANCHOR0
 310 008c 0021     		movs	r1, #0
 311 008e C0F20000 		movt	r0, #:upper16:.LANCHOR0
 312 0092 FFF7FEFF 		bl	chIQPutI
 313              	.LVL14:
 314 0096 0430     		adds	r0, r0, #4
 315 0098 14BF     		ite	ne
 316 009a 0021     		movne	r1, #0
 317 009c 0121     		moveq	r1, #1
 318 009e 0320     		movs	r0, #3
 319 00a0 FFF7FEFF 		bl	_test_assert
 320              	.LVL15:
 321 00a4 0028     		cmp	r0, #0
 322 00a6 E4D1     		bne	.L27
 323              	.LBB110:
 324 00a8 0346     		mov	r3, r0
 325              	@ 103 "/opt/ChibiOS_2.6.6/test/testqueues.c" 1
 326 00aa 83F31188 		msr     BASEPRI, r3
 327              	@ 0 "" 2
 328              	.LVL16:
 329              		.thumb
 330 00ae 0424     		movs	r4, #4
 331              	.LVL17:
 332              	.L15:
 333              	.LBE110:
 334              		.loc 1 107 0
 335 00b0 40F20000 		movw	r0, #:lower16:.LANCHOR0
 336 00b4 4FF0FF31 		mov	r1, #-1
 337 00b8 C0F20000 		movt	r0, #:upper16:.LANCHOR0
 338 00bc FFF7FEFF 		bl	chIQGetTimeout
 339              	.LVL18:
 340 00c0 C0B2     		uxtb	r0, r0
 341 00c2 FFF7FEFF 		bl	test_emit_token
 342              	.LVL19:
ARM GAS  /tmp/ccAAWrMz.s 			page 7


 343              		.loc 1 106 0
 344 00c6 013C     		subs	r4, r4, #1
 345              	.LVL20:
 346 00c8 F2D1     		bne	.L15
 347              	.LBB111:
 348              		.loc 1 108 0
 349 00ca 2023     		movs	r3, #32
 350              	@ 108 "/opt/ChibiOS_2.6.6/test/testqueues.c" 1
 351 00cc 83F31188 		msr     BASEPRI, r3
 352              	@ 0 "" 2
 353              		.thumb
 354              	.LBE111:
 355 00d0 A968     		ldr	r1, [r5, #8]
 356 00d2 0420     		movs	r0, #4
 357 00d4 D1F10101 		rsbs	r1, r1, #1
 358 00d8 38BF     		it	cc
 359 00da 0021     		movcc	r1, #0
 360 00dc FFF7FEFF 		bl	_test_assert
 361              	.LVL21:
 362 00e0 0028     		cmp	r0, #0
 363 00e2 C6D1     		bne	.L27
 364              	.LBB112:
 365 00e4 0346     		mov	r3, r0
 366              	@ 108 "/opt/ChibiOS_2.6.6/test/testqueues.c" 1
 367 00e6 83F31188 		msr     BASEPRI, r3
 368              	@ 0 "" 2
 369              		.thumb
 370              	.LBE112:
 371              		.loc 1 109 0
 372 00ea 40F20001 		movw	r1, #:lower16:.LC0
 373 00ee C0F20001 		movt	r1, #:upper16:.LC0
 374 00f2 0520     		movs	r0, #5
 375 00f4 FFF7FEFF 		bl	_test_assert_sequence
 376              	.LVL22:
 377 00f8 0028     		cmp	r0, #0
 378 00fa BDD1     		bne	.L6
 379              	.LBB113:
 380              		.loc 1 112 0
 381 00fc 2023     		movs	r3, #32
 382              	@ 112 "/opt/ChibiOS_2.6.6/test/testqueues.c" 1
 383 00fe 83F31188 		msr     BASEPRI, r3
 384              	@ 0 "" 2
 385              	.LVL23:
 386              		.thumb
 387 0102 4124     		movs	r4, #65
 388              	.LVL24:
 389              	.L19:
 390              	.LBE113:
 391              		.loc 1 114 0
 392 0104 2146     		mov	r1, r4
 393 0106 40F20000 		movw	r0, #:lower16:.LANCHOR0
 394 010a 0134     		adds	r4, r4, #1
 395 010c C0F20000 		movt	r0, #:upper16:.LANCHOR0
 396 0110 E4B2     		uxtb	r4, r4
 397 0112 FFF7FEFF 		bl	chIQPutI
 398              	.LVL25:
 399              		.loc 1 113 0
ARM GAS  /tmp/ccAAWrMz.s 			page 8


 400 0116 452C     		cmp	r4, #69
 401 0118 F4D1     		bne	.L19
 402              	.LBB114:
 403              		.loc 1 115 0
 404 011a 0023     		movs	r3, #0
 405              	@ 115 "/opt/ChibiOS_2.6.6/test/testqueues.c" 1
 406 011c 83F31188 		msr     BASEPRI, r3
 407              	@ 0 "" 2
 408              		.thumb
 409              	.LBE114:
 410              		.loc 1 118 0
 411 0120 40F20004 		movw	r4, #:lower16:wa
 412 0124 C0F20004 		movt	r4, #:upper16:wa
 413 0128 40F20000 		movw	r0, #:lower16:.LANCHOR0
 414 012c 6168     		ldr	r1, [r4, #4]
 415 012e C0F20000 		movt	r0, #:upper16:.LANCHOR0
 416 0132 0822     		movs	r2, #8
 417 0134 FFF7FEFF 		bl	chIQReadTimeout
 418              	.LVL26:
 419              		.loc 1 119 0
 420 0138 061F     		subs	r6, r0, #4
 421 013a 7142     		rsbs	r1, r6, #0
 422 013c 7141     		adcs	r1, r1, r6
 423 013e 0620     		movs	r0, #6
 424              	.LVL27:
 425 0140 FFF7FEFF 		bl	_test_assert
 426              	.LVL28:
 427 0144 0028     		cmp	r0, #0
 428 0146 97D1     		bne	.L6
 429              	.LBB115:
 430              		.loc 1 120 0
 431 0148 2023     		movs	r3, #32
 432              	@ 120 "/opt/ChibiOS_2.6.6/test/testqueues.c" 1
 433 014a 83F31188 		msr     BASEPRI, r3
 434              	@ 0 "" 2
 435              		.thumb
 436              	.LBE115:
 437 014e A968     		ldr	r1, [r5, #8]
 438 0150 0720     		movs	r0, #7
 439 0152 D1F10101 		rsbs	r1, r1, #1
 440 0156 38BF     		it	cc
 441 0158 0021     		movcc	r1, #0
 442 015a FFF7FEFF 		bl	_test_assert
 443              	.LVL29:
 444 015e 0028     		cmp	r0, #0
 445 0160 87D1     		bne	.L27
 446              	.LBB116:
 447 0162 0346     		mov	r3, r0
 448              	@ 120 "/opt/ChibiOS_2.6.6/test/testqueues.c" 1
 449 0164 83F31188 		msr     BASEPRI, r3
 450              	@ 0 "" 2
 451              		.thumb
 452              	.LBE116:
 453              	.LBB117:
 454              		.loc 1 123 0
 455 0168 2023     		movs	r3, #32
 456              	@ 123 "/opt/ChibiOS_2.6.6/test/testqueues.c" 1
ARM GAS  /tmp/ccAAWrMz.s 			page 9


 457 016a 83F31188 		msr     BASEPRI, r3
 458              	@ 0 "" 2
 459              	.LVL30:
 460              		.thumb
 461 016e 4126     		movs	r6, #65
 462              	.LVL31:
 463              	.L23:
 464              	.LBE117:
 465              		.loc 1 125 0
 466 0170 3146     		mov	r1, r6
 467 0172 40F20000 		movw	r0, #:lower16:.LANCHOR0
 468 0176 0136     		adds	r6, r6, #1
 469 0178 C0F20000 		movt	r0, #:upper16:.LANCHOR0
 470 017c F6B2     		uxtb	r6, r6
 471 017e FFF7FEFF 		bl	chIQPutI
 472              	.LVL32:
 473              		.loc 1 124 0
 474 0182 452E     		cmp	r6, #69
 475 0184 F4D1     		bne	.L23
 476              	.LBB118:
 477              		.loc 1 126 0
 478 0186 0023     		movs	r3, #0
 479              	@ 126 "/opt/ChibiOS_2.6.6/test/testqueues.c" 1
 480 0188 83F31188 		msr     BASEPRI, r3
 481              	@ 0 "" 2
 482              		.thumb
 483              	.LBE118:
 484              		.loc 1 129 0
 485 018c 6668     		ldr	r6, [r4, #4]
 486 018e 40F20000 		movw	r0, #:lower16:.LANCHOR0
 487 0192 3146     		mov	r1, r6
 488 0194 0222     		movs	r2, #2
 489 0196 C0F20000 		movt	r0, #:upper16:.LANCHOR0
 490 019a FFF7FEFF 		bl	chIQReadTimeout
 491              	.LVL33:
 492              		.loc 1 130 0
 493 019e 0238     		subs	r0, r0, #2
 494              	.LVL34:
 495 01a0 4142     		rsbs	r1, r0, #0
 496 01a2 4141     		adcs	r1, r1, r0
 497 01a4 0820     		movs	r0, #8
 498              	.LVL35:
 499 01a6 FFF7FEFF 		bl	_test_assert
 500              	.LVL36:
 501 01aa 0346     		mov	r3, r0
 502 01ac 0028     		cmp	r0, #0
 503 01ae 7FF463AF 		bne	.L6
 504              		.loc 1 131 0
 505 01b2 40F20000 		movw	r0, #:lower16:.LANCHOR0
 506 01b6 3146     		mov	r1, r6
 507 01b8 0222     		movs	r2, #2
 508 01ba C0F20000 		movt	r0, #:upper16:.LANCHOR0
 509 01be FFF7FEFF 		bl	chIQReadTimeout
 510              	.LVL37:
 511              		.loc 1 132 0
 512 01c2 821E     		subs	r2, r0, #2
 513 01c4 5142     		rsbs	r1, r2, #0
ARM GAS  /tmp/ccAAWrMz.s 			page 10


 514 01c6 5141     		adcs	r1, r1, r2
 515 01c8 0920     		movs	r0, #9
 516              	.LVL38:
 517 01ca FFF7FEFF 		bl	_test_assert
 518              	.LVL39:
 519 01ce 0028     		cmp	r0, #0
 520 01d0 7FF452AF 		bne	.L6
 521              	.LBB119:
 522              		.loc 1 133 0
 523 01d4 2023     		movs	r3, #32
 524              	@ 133 "/opt/ChibiOS_2.6.6/test/testqueues.c" 1
 525 01d6 83F31188 		msr     BASEPRI, r3
 526              	@ 0 "" 2
 527              		.thumb
 528              	.LBE119:
 529 01da A968     		ldr	r1, [r5, #8]
 530 01dc 0A20     		movs	r0, #10
 531 01de D1F10101 		rsbs	r1, r1, #1
 532 01e2 38BF     		it	cc
 533 01e4 0021     		movcc	r1, #0
 534 01e6 FFF7FEFF 		bl	_test_assert
 535              	.LVL40:
 536 01ea 0346     		mov	r3, r0
 537 01ec 0028     		cmp	r0, #0
 538 01ee 7FF440AF 		bne	.L27
 539              	.LBB120:
 540              	@ 133 "/opt/ChibiOS_2.6.6/test/testqueues.c" 1
 541 01f2 83F31188 		msr     BASEPRI, r3
 542              	@ 0 "" 2
 543              		.thumb
 544              	.LBE120:
 545              	.LBB121:
 546              		.loc 1 136 0
 547 01f6 2023     		movs	r3, #32
 548              	@ 136 "/opt/ChibiOS_2.6.6/test/testqueues.c" 1
 549 01f8 83F31188 		msr     BASEPRI, r3
 550              	@ 0 "" 2
 551              		.thumb
 552              	.LBE121:
 553              		.loc 1 137 0
 554 01fc 40F20000 		movw	r0, #:lower16:.LANCHOR0
 555 0200 0021     		movs	r1, #0
 556 0202 C0F20000 		movt	r0, #:upper16:.LANCHOR0
 557 0206 FFF7FEFF 		bl	chIQPutI
 558              	.LVL41:
 559              		.loc 1 138 0
 560 020a 40F20000 		movw	r0, #:lower16:.LANCHOR0
 561 020e C0F20000 		movt	r0, #:upper16:.LANCHOR0
 562 0212 FFF7FEFF 		bl	chIQResetI
 563              	.LVL42:
 564              	.LBB122:
 565              		.loc 1 139 0
 566 0216 0023     		movs	r3, #0
 567              	@ 139 "/opt/ChibiOS_2.6.6/test/testqueues.c" 1
 568 0218 83F31188 		msr     BASEPRI, r3
 569              	@ 0 "" 2
 570              		.thumb
ARM GAS  /tmp/ccAAWrMz.s 			page 11


 571              	.LBE122:
 572              	.LBB123:
 573              		.loc 1 140 0
 574 021c 2023     		movs	r3, #32
 575              	@ 140 "/opt/ChibiOS_2.6.6/test/testqueues.c" 1
 576 021e 83F31188 		msr     BASEPRI, r3
 577              	@ 0 "" 2
 578              		.thumb
 579              	.LBE123:
 580 0222 A968     		ldr	r1, [r5, #8]
 581 0224 0B20     		movs	r0, #11
 582 0226 D1F10101 		rsbs	r1, r1, #1
 583 022a 38BF     		it	cc
 584 022c 0021     		movcc	r1, #0
 585 022e FFF7FEFF 		bl	_test_assert
 586              	.LVL43:
 587 0232 0346     		mov	r3, r0
 588 0234 0028     		cmp	r0, #0
 589 0236 7FF41CAF 		bne	.L27
 590              	.LBB124:
 591              	@ 140 "/opt/ChibiOS_2.6.6/test/testqueues.c" 1
 592 023a 83F31188 		msr     BASEPRI, r3
 593              	@ 0 "" 2
 594              		.thumb
 595              	.LBE124:
 596              		.loc 1 141 0
 597 023e 40F20003 		movw	r3, #:lower16:rlist
 598 0242 C0F20003 		movt	r3, #:upper16:rlist
 599 0246 9B69     		ldr	r3, [r3, #24]
 600 0248 0021     		movs	r1, #0
 601 024a 9A68     		ldr	r2, [r3, #8]
 602 024c 40F20003 		movw	r3, #:lower16:thread1
 603 0250 0091     		str	r1, [sp]
 604 0252 2068     		ldr	r0, [r4]
 605 0254 0132     		adds	r2, r2, #1
 606 0256 C0F20003 		movt	r3, #:upper16:thread1
 607 025a 4FF4A871 		mov	r1, #336
 608 025e FFF7FEFF 		bl	chThdCreateStatic
 609              	.LVL44:
 610 0262 40F20003 		movw	r3, #:lower16:threads
 611 0266 C0F20003 		movt	r3, #:upper16:threads
 612 026a 1860     		str	r0, [r3]
 613              	.LBB125:
 614              		.loc 1 142 0
 615 026c 2023     		movs	r3, #32
 616              	@ 142 "/opt/ChibiOS_2.6.6/test/testqueues.c" 1
 617 026e 83F31188 		msr     BASEPRI, r3
 618              	@ 0 "" 2
 619              		.thumb
 620              	.LBE125:
 621 0272 A968     		ldr	r1, [r5, #8]
 622 0274 0C20     		movs	r0, #12
 623 0276 D1F10101 		rsbs	r1, r1, #1
 624 027a 38BF     		it	cc
 625 027c 0021     		movcc	r1, #0
 626 027e FFF7FEFF 		bl	_test_assert
 627              	.LVL45:
ARM GAS  /tmp/ccAAWrMz.s 			page 12


 628 0282 0346     		mov	r3, r0
 629 0284 0028     		cmp	r0, #0
 630 0286 7FF4F4AE 		bne	.L27
 631              	.LBB126:
 632              	@ 142 "/opt/ChibiOS_2.6.6/test/testqueues.c" 1
 633 028a 83F31188 		msr     BASEPRI, r3
 634              	@ 0 "" 2
 635              		.thumb
 636              	.LBE126:
 637              		.loc 1 143 0
 638 028e FFF7FEFF 		bl	test_wait_threads
 639              	.LVL46:
 640              		.loc 1 146 0
 641 0292 40F20000 		movw	r0, #:lower16:.LANCHOR0
 642 0296 0A21     		movs	r1, #10
 643 0298 C0F20000 		movt	r0, #:upper16:.LANCHOR0
 644 029c FFF7FEFF 		bl	chIQGetTimeout
 645              	.LVL47:
 646 02a0 B0F1FF33 		subs	r3, r0, #-1
 647 02a4 5942     		rsbs	r1, r3, #0
 648 02a6 5941     		adcs	r1, r1, r3
 649 02a8 0D20     		movs	r0, #13
 650              	.LBE127:
 651              	.LBE129:
 652              		.loc 1 147 0
 653 02aa 02B0     		add	sp, sp, #8
 654              		@ sp needed
 655 02ac BDE87040 		pop	{r4, r5, r6, lr}
 656              	.LBB130:
 657              	.LBB128:
 658              		.loc 1 146 0
 659 02b0 FFF7FEBF 		b	_test_assert
 660              	.LVL48:
 661              	.L29:
 662              		.loc 1 102 0
 663 02b4 9E68     		ldr	r6, [r3, #8]
 664 02b6 0036     		adds	r6, r6, #0
 665 02b8 18BF     		it	ne
 666 02ba 0126     		movne	r6, #1
 667 02bc D4E6     		b	.L11
 668              	.LBE128:
 669              	.LBE130:
 670              		.cfi_endproc
 671              	.LFE10:
 672              		.size	queues1_execute, .-queues1_execute
 673 02be 00BF     		.section	.text.queues2_execute,"ax",%progbits
 674              		.align	2
 675              		.thumb
 676              		.thumb_func
 677              		.type	queues2_execute, %function
 678              	queues2_execute:
 679              	.LFB13:
 680              		.loc 1 177 0
 681              		.cfi_startproc
 682              		@ args = 0, pretend = 0, frame = 0
 683              		@ frame_needed = 0, uses_anonymous_args = 0
 684 0000 70B5     		push	{r4, r5, r6, lr}
ARM GAS  /tmp/ccAAWrMz.s 			page 13


 685              		.cfi_def_cfa_offset 16
 686              		.cfi_offset 4, -16
 687              		.cfi_offset 5, -12
 688              		.cfi_offset 6, -8
 689              		.cfi_offset 14, -4
 690              	.LBB164:
 691              		.loc 1 182 0
 692 0002 2023     		movs	r3, #32
 693              	.LBE164:
 694              		.loc 1 177 0
 695 0004 82B0     		sub	sp, sp, #8
 696              		.cfi_def_cfa_offset 24
 697              	.LBB165:
 698              		.loc 1 182 0
 699              	@ 182 "/opt/ChibiOS_2.6.6/test/testqueues.c" 1
 700 0006 83F31188 		msr     BASEPRI, r3
 701              	@ 0 "" 2
 702              		.thumb
 703              	.LBE165:
 704 000a 40F20005 		movw	r5, #:lower16:.LANCHOR1
 705 000e C0F20005 		movt	r5, #:upper16:.LANCHOR1
 706 0012 6A69     		ldr	r2, [r5, #20]
 707 0014 AB69     		ldr	r3, [r5, #24]
 708 0016 9A42     		cmp	r2, r3
 709 0018 18BF     		it	ne
 710 001a 0021     		movne	r1, #0
 711 001c 00F01781 		beq	.L50
 712              	.L31:
 713              		.loc 1 182 0 is_stmt 0 discriminator 4
 714 0020 0120     		movs	r0, #1
 715 0022 FFF7FEFF 		bl	_test_assert
 716              	.LVL49:
 717 0026 0028     		cmp	r0, #0
 718 0028 43D1     		bne	.L49
 719              	.LBB166:
 720              	.LBB167:
 721              	.LBB168:
 722              		.loc 1 182 0
 723 002a 0346     		mov	r3, r0
 724              	@ 182 "/opt/ChibiOS_2.6.6/test/testqueues.c" 1
 725 002c 83F31188 		msr     BASEPRI, r3
 726              	@ 0 "" 2
 727              	.LVL50:
 728              		.thumb
 729 0030 4124     		movs	r4, #65
 730              	.LVL51:
 731              	.L35:
 732              	.LBE168:
 733              		.loc 1 186 0 is_stmt 1
 734 0032 2146     		mov	r1, r4
 735 0034 40F20000 		movw	r0, #:lower16:.LANCHOR1
 736 0038 0134     		adds	r4, r4, #1
 737 003a C0F20000 		movt	r0, #:upper16:.LANCHOR1
 738 003e 4FF0FF32 		mov	r2, #-1
 739 0042 E4B2     		uxtb	r4, r4
 740 0044 FFF7FEFF 		bl	chOQPutTimeout
 741              	.LVL52:
ARM GAS  /tmp/ccAAWrMz.s 			page 14


 742              		.loc 1 185 0
 743 0048 452C     		cmp	r4, #69
 744 004a F2D1     		bne	.L35
 745              	.LBB169:
 746              		.loc 1 187 0
 747 004c 2023     		movs	r3, #32
 748              	@ 187 "/opt/ChibiOS_2.6.6/test/testqueues.c" 1
 749 004e 83F31188 		msr     BASEPRI, r3
 750              	@ 0 "" 2
 751              		.thumb
 752              	.LBE169:
 753 0052 A968     		ldr	r1, [r5, #8]
 754 0054 0220     		movs	r0, #2
 755 0056 D1F10101 		rsbs	r1, r1, #1
 756 005a 38BF     		it	cc
 757 005c 0021     		movcc	r1, #0
 758 005e FFF7FEFF 		bl	_test_assert
 759              	.LVL53:
 760 0062 0646     		mov	r6, r0
 761 0064 28BB     		cbnz	r0, .L49
 762              	.LBB170:
 763 0066 0346     		mov	r3, r0
 764              	@ 187 "/opt/ChibiOS_2.6.6/test/testqueues.c" 1
 765 0068 83F31188 		msr     BASEPRI, r3
 766              	@ 0 "" 2
 767              	.LVL54:
 768              		.thumb
 769 006c 0424     		movs	r4, #4
 770              	.LVL55:
 771              	.L38:
 772              	.LBE170:
 773              	.LBB171:
 774              	.LBB172:
 775              		.loc 1 193 0
 776 006e 2023     		movs	r3, #32
 777              	@ 193 "/opt/ChibiOS_2.6.6/test/testqueues.c" 1
 778 0070 83F31188 		msr     BASEPRI, r3
 779              	@ 0 "" 2
 780              		.thumb
 781              	.LBE172:
 782              		.loc 1 194 0
 783 0074 40F20000 		movw	r0, #:lower16:.LANCHOR1
 784 0078 C0F20000 		movt	r0, #:upper16:.LANCHOR1
 785 007c FFF7FEFF 		bl	chOQGetI
 786              	.LVL56:
 787              	.LBB173:
 788              		.loc 1 195 0
 789 0080 0023     		movs	r3, #0
 790              	@ 195 "/opt/ChibiOS_2.6.6/test/testqueues.c" 1
 791 0082 83F31188 		msr     BASEPRI, r3
 792              	@ 0 "" 2
 793              		.thumb
 794              	.LBE173:
 795              		.loc 1 196 0
 796 0086 C0B2     		uxtb	r0, r0
 797              	.LVL57:
 798 0088 FFF7FEFF 		bl	test_emit_token
ARM GAS  /tmp/ccAAWrMz.s 			page 15


 799              	.LVL58:
 800              	.LBE171:
 801              		.loc 1 190 0
 802 008c 013C     		subs	r4, r4, #1
 803              	.LVL59:
 804 008e EED1     		bne	.L38
 805              	.LBB174:
 806              		.loc 1 198 0
 807 0090 2023     		movs	r3, #32
 808              	@ 198 "/opt/ChibiOS_2.6.6/test/testqueues.c" 1
 809 0092 83F31188 		msr     BASEPRI, r3
 810              	@ 0 "" 2
 811              		.thumb
 812              	.LBE174:
 813 0096 6969     		ldr	r1, [r5, #20]
 814 0098 AA69     		ldr	r2, [r5, #24]
 815 009a 40F20003 		movw	r3, #:lower16:.LANCHOR1
 816 009e 9142     		cmp	r1, r2
 817 00a0 C0F20003 		movt	r3, #:upper16:.LANCHOR1
 818 00a4 00F0D880 		beq	.L51
 819              	.L39:
 820 00a8 3146     		mov	r1, r6
 821 00aa 0320     		movs	r0, #3
 822 00ac FFF7FEFF 		bl	_test_assert
 823              	.LVL60:
 824 00b0 20B1     		cbz	r0, .L40
 825              	.LVL61:
 826              	.L49:
 827              	.LBB175:
 828              		.loc 1 214 0
 829 00b2 0023     		movs	r3, #0
 830              	@ 214 "/opt/ChibiOS_2.6.6/test/testqueues.c" 1
 831 00b4 83F31188 		msr     BASEPRI, r3
 832              	@ 0 "" 2
 833              		.thumb
 834              	.L30:
 835              	.LBE175:
 836              	.LBE167:
 837              	.LBE166:
 838              		.loc 1 225 0
 839 00b8 02B0     		add	sp, sp, #8
 840              		@ sp needed
 841 00ba 70BD     		pop	{r4, r5, r6, pc}
 842              	.LVL62:
 843              	.L40:
 844              	.LBB194:
 845              	.LBB191:
 846              	.LBB176:
 847              		.loc 1 198 0
 848 00bc 0346     		mov	r3, r0
 849              	@ 198 "/opt/ChibiOS_2.6.6/test/testqueues.c" 1
 850 00be 83F31188 		msr     BASEPRI, r3
 851              	@ 0 "" 2
 852              		.thumb
 853              	.LBE176:
 854              		.loc 1 199 0
 855 00c2 40F20001 		movw	r1, #:lower16:.LC0
ARM GAS  /tmp/ccAAWrMz.s 			page 16


 856 00c6 C0F20001 		movt	r1, #:upper16:.LC0
 857 00ca 0420     		movs	r0, #4
 858 00cc FFF7FEFF 		bl	_test_assert_sequence
 859              	.LVL63:
 860 00d0 0028     		cmp	r0, #0
 861 00d2 F1D1     		bne	.L30
 862              	.LBB177:
 863              		.loc 1 200 0
 864 00d4 2023     		movs	r3, #32
 865              	@ 200 "/opt/ChibiOS_2.6.6/test/testqueues.c" 1
 866 00d6 83F31188 		msr     BASEPRI, r3
 867              	@ 0 "" 2
 868              		.thumb
 869              	.LBE177:
 870 00da 40F20000 		movw	r0, #:lower16:.LANCHOR1
 871 00de C0F20000 		movt	r0, #:upper16:.LANCHOR1
 872 00e2 FFF7FEFF 		bl	chOQGetI
 873              	.LVL64:
 874 00e6 0330     		adds	r0, r0, #3
 875 00e8 14BF     		ite	ne
 876 00ea 0021     		movne	r1, #0
 877 00ec 0121     		moveq	r1, #1
 878 00ee 0520     		movs	r0, #5
 879 00f0 FFF7FEFF 		bl	_test_assert
 880              	.LVL65:
 881 00f4 0028     		cmp	r0, #0
 882 00f6 DCD1     		bne	.L49
 883              	.LBB178:
 884 00f8 0346     		mov	r3, r0
 885              	@ 200 "/opt/ChibiOS_2.6.6/test/testqueues.c" 1
 886 00fa 83F31188 		msr     BASEPRI, r3
 887              	@ 0 "" 2
 888              		.thumb
 889              	.LBE178:
 890              		.loc 1 203 0
 891 00fe 40F20004 		movw	r4, #:lower16:wa
 892              	.LVL66:
 893 0102 C0F20004 		movt	r4, #:upper16:wa
 894 0106 40F20000 		movw	r0, #:lower16:.LANCHOR1
 895 010a 6168     		ldr	r1, [r4, #4]
 896 010c C0F20000 		movt	r0, #:upper16:.LANCHOR1
 897 0110 0822     		movs	r2, #8
 898 0112 0023     		movs	r3, #0
 899 0114 FFF7FEFF 		bl	chOQWriteTimeout
 900              	.LVL67:
 901              		.loc 1 204 0
 902 0118 061F     		subs	r6, r0, #4
 903 011a 7142     		rsbs	r1, r6, #0
 904 011c 7141     		adcs	r1, r1, r6
 905 011e 0620     		movs	r0, #6
 906              	.LVL68:
 907 0120 FFF7FEFF 		bl	_test_assert
 908              	.LVL69:
 909 0124 0028     		cmp	r0, #0
 910 0126 C7D1     		bne	.L30
 911              	.LBB179:
 912              		.loc 1 205 0
ARM GAS  /tmp/ccAAWrMz.s 			page 17


 913 0128 2023     		movs	r3, #32
 914              	@ 205 "/opt/ChibiOS_2.6.6/test/testqueues.c" 1
 915 012a 83F31188 		msr     BASEPRI, r3
 916              	@ 0 "" 2
 917              		.thumb
 918              	.LBE179:
 919 012e A968     		ldr	r1, [r5, #8]
 920 0130 0720     		movs	r0, #7
 921 0132 D1F10101 		rsbs	r1, r1, #1
 922 0136 38BF     		it	cc
 923 0138 0021     		movcc	r1, #0
 924 013a FFF7FEFF 		bl	_test_assert
 925              	.LVL70:
 926 013e 0028     		cmp	r0, #0
 927 0140 B7D1     		bne	.L49
 928              	.LBB180:
 929 0142 0346     		mov	r3, r0
 930              	@ 205 "/opt/ChibiOS_2.6.6/test/testqueues.c" 1
 931 0144 83F31188 		msr     BASEPRI, r3
 932              	@ 0 "" 2
 933              		.thumb
 934              	.LBE180:
 935              		.loc 1 206 0
 936 0148 40F20003 		movw	r3, #:lower16:rlist
 937 014c C0F20003 		movt	r3, #:upper16:rlist
 938 0150 9B69     		ldr	r3, [r3, #24]
 939 0152 0021     		movs	r1, #0
 940 0154 9A68     		ldr	r2, [r3, #8]
 941 0156 40F20003 		movw	r3, #:lower16:thread2
 942 015a 0091     		str	r1, [sp]
 943 015c 2068     		ldr	r0, [r4]
 944 015e 0132     		adds	r2, r2, #1
 945 0160 C0F20003 		movt	r3, #:upper16:thread2
 946 0164 4FF4A871 		mov	r1, #336
 947 0168 FFF7FEFF 		bl	chThdCreateStatic
 948              	.LVL71:
 949 016c 40F20003 		movw	r3, #:lower16:threads
 950 0170 C0F20003 		movt	r3, #:upper16:threads
 951 0174 1860     		str	r0, [r3]
 952              	.LBB181:
 953              		.loc 1 207 0
 954 0176 2023     		movs	r3, #32
 955              	@ 207 "/opt/ChibiOS_2.6.6/test/testqueues.c" 1
 956 0178 83F31188 		msr     BASEPRI, r3
 957              	@ 0 "" 2
 958              		.thumb
 959              	.LBE181:
 960 017c 2969     		ldr	r1, [r5, #16]
 961 017e EA68     		ldr	r2, [r5, #12]
 962 0180 AB68     		ldr	r3, [r5, #8]
 963 0182 8A1A     		subs	r2, r1, r2
 964 0184 D11A     		subs	r1, r2, r3
 965 0186 081F     		subs	r0, r1, #4
 966 0188 4142     		rsbs	r1, r0, #0
 967 018a 4141     		adcs	r1, r1, r0
 968 018c 0820     		movs	r0, #8
 969 018e FFF7FEFF 		bl	_test_assert
ARM GAS  /tmp/ccAAWrMz.s 			page 18


 970              	.LVL72:
 971 0192 0346     		mov	r3, r0
 972 0194 0028     		cmp	r0, #0
 973 0196 8CD1     		bne	.L49
 974              	.LBB182:
 975              	@ 207 "/opt/ChibiOS_2.6.6/test/testqueues.c" 1
 976 0198 83F31188 		msr     BASEPRI, r3
 977              	@ 0 "" 2
 978              		.thumb
 979              	.LBE182:
 980              		.loc 1 208 0
 981 019c FFF7FEFF 		bl	test_wait_threads
 982              	.LVL73:
 983              	.LBB183:
 984              		.loc 1 211 0
 985 01a0 2023     		movs	r3, #32
 986              	@ 211 "/opt/ChibiOS_2.6.6/test/testqueues.c" 1
 987 01a2 83F31188 		msr     BASEPRI, r3
 988              	@ 0 "" 2
 989              		.thumb
 990              	.LBE183:
 991              		.loc 1 212 0
 992 01a6 40F20000 		movw	r0, #:lower16:.LANCHOR1
 993 01aa C0F20000 		movt	r0, #:upper16:.LANCHOR1
 994 01ae FFF7FEFF 		bl	chOQResetI
 995              	.LVL74:
 996              	.LBB184:
 997              		.loc 1 213 0
 998 01b2 0023     		movs	r3, #0
 999              	@ 213 "/opt/ChibiOS_2.6.6/test/testqueues.c" 1
 1000 01b4 83F31188 		msr     BASEPRI, r3
 1001              	@ 0 "" 2
 1002              		.thumb
 1003              	.LBE184:
 1004              	.LBB185:
 1005              		.loc 1 214 0
 1006 01b8 2023     		movs	r3, #32
 1007              	@ 214 "/opt/ChibiOS_2.6.6/test/testqueues.c" 1
 1008 01ba 83F31188 		msr     BASEPRI, r3
 1009              	@ 0 "" 2
 1010              		.thumb
 1011              	.LBE185:
 1012 01be EA68     		ldr	r2, [r5, #12]
 1013 01c0 2969     		ldr	r1, [r5, #16]
 1014 01c2 AB68     		ldr	r3, [r5, #8]
 1015 01c4 891A     		subs	r1, r1, r2
 1016 01c6 CA1A     		subs	r2, r1, r3
 1017 01c8 5142     		rsbs	r1, r2, #0
 1018 01ca 5141     		adcs	r1, r1, r2
 1019 01cc 0920     		movs	r0, #9
 1020 01ce FFF7FEFF 		bl	_test_assert
 1021              	.LVL75:
 1022 01d2 0346     		mov	r3, r0
 1023 01d4 0028     		cmp	r0, #0
 1024 01d6 7FF46CAF 		bne	.L49
 1025              	.LBB186:
 1026              	@ 214 "/opt/ChibiOS_2.6.6/test/testqueues.c" 1
ARM GAS  /tmp/ccAAWrMz.s 			page 19


 1027 01da 83F31188 		msr     BASEPRI, r3
 1028              	@ 0 "" 2
 1029              		.thumb
 1030              	.LBE186:
 1031              		.loc 1 217 0
 1032 01de 6468     		ldr	r4, [r4, #4]
 1033 01e0 40F20000 		movw	r0, #:lower16:.LANCHOR1
 1034 01e4 2146     		mov	r1, r4
 1035 01e6 0222     		movs	r2, #2
 1036 01e8 0023     		movs	r3, #0
 1037 01ea C0F20000 		movt	r0, #:upper16:.LANCHOR1
 1038 01ee FFF7FEFF 		bl	chOQWriteTimeout
 1039              	.LVL76:
 1040              		.loc 1 218 0
 1041 01f2 831E     		subs	r3, r0, #2
 1042 01f4 5942     		rsbs	r1, r3, #0
 1043 01f6 5941     		adcs	r1, r1, r3
 1044 01f8 0A20     		movs	r0, #10
 1045              	.LVL77:
 1046 01fa FFF7FEFF 		bl	_test_assert
 1047              	.LVL78:
 1048 01fe 0346     		mov	r3, r0
 1049 0200 0028     		cmp	r0, #0
 1050 0202 7FF459AF 		bne	.L30
 1051              		.loc 1 219 0
 1052 0206 40F20000 		movw	r0, #:lower16:.LANCHOR1
 1053 020a 2146     		mov	r1, r4
 1054 020c C0F20000 		movt	r0, #:upper16:.LANCHOR1
 1055 0210 0222     		movs	r2, #2
 1056 0212 FFF7FEFF 		bl	chOQWriteTimeout
 1057              	.LVL79:
 1058              		.loc 1 220 0
 1059 0216 B0F1020C 		subs	ip, r0, #2
 1060 021a DCF10001 		rsbs	r1, ip, #0
 1061 021e 51EB0C01 		adcs	r1, r1, ip
 1062 0222 0B20     		movs	r0, #11
 1063              	.LVL80:
 1064 0224 FFF7FEFF 		bl	_test_assert
 1065              	.LVL81:
 1066 0228 0028     		cmp	r0, #0
 1067 022a 7FF445AF 		bne	.L30
 1068              	.LBB187:
 1069              		.loc 1 221 0
 1070 022e 2023     		movs	r3, #32
 1071              	@ 221 "/opt/ChibiOS_2.6.6/test/testqueues.c" 1
 1072 0230 83F31188 		msr     BASEPRI, r3
 1073              	@ 0 "" 2
 1074              		.thumb
 1075              	.LBE187:
 1076 0234 A968     		ldr	r1, [r5, #8]
 1077 0236 0C20     		movs	r0, #12
 1078 0238 D1F10101 		rsbs	r1, r1, #1
 1079 023c 38BF     		it	cc
 1080 023e 0021     		movcc	r1, #0
 1081 0240 FFF7FEFF 		bl	_test_assert
 1082              	.LVL82:
 1083              	.LBB188:
ARM GAS  /tmp/ccAAWrMz.s 			page 20


 1084 0244 0023     		movs	r3, #0
 1085              	.LBE188:
 1086 0246 60B1     		cbz	r0, .L47
 1087              	.LBB189:
 1088              	@ 221 "/opt/ChibiOS_2.6.6/test/testqueues.c" 1
 1089 0248 83F31188 		msr     BASEPRI, r3
 1090              	@ 0 "" 2
 1091              		.thumb
 1092 024c 34E7     		b	.L30
 1093              	.L50:
 1094              	.LBE189:
 1095              	.LBE191:
 1096              	.LBE194:
 1097              		.loc 1 182 0 discriminator 1
 1098 024e A968     		ldr	r1, [r5, #8]
 1099 0250 0031     		adds	r1, r1, #0
 1100 0252 18BF     		it	ne
 1101 0254 0121     		movne	r1, #1
 1102 0256 E3E6     		b	.L31
 1103              	.LVL83:
 1104              	.L51:
 1105              	.LBB195:
 1106              	.LBB192:
 1107              		.loc 1 198 0
 1108 0258 9E68     		ldr	r6, [r3, #8]
 1109 025a 0036     		adds	r6, r6, #0
 1110 025c 18BF     		it	ne
 1111 025e 0126     		movne	r6, #1
 1112 0260 22E7     		b	.L39
 1113              	.LVL84:
 1114              	.L47:
 1115              	.LBB190:
 1116              		.loc 1 221 0
 1117              	@ 221 "/opt/ChibiOS_2.6.6/test/testqueues.c" 1
 1118 0262 83F31188 		msr     BASEPRI, r3
 1119              	@ 0 "" 2
 1120              		.thumb
 1121              	.LBE190:
 1122              		.loc 1 224 0
 1123 0266 40F20000 		movw	r0, #:lower16:.LANCHOR1
 1124 026a 0021     		movs	r1, #0
 1125 026c 0A22     		movs	r2, #10
 1126 026e C0F20000 		movt	r0, #:upper16:.LANCHOR1
 1127 0272 FFF7FEFF 		bl	chOQPutTimeout
 1128              	.LVL85:
 1129 0276 B0F1FF3E 		subs	lr, r0, #-1
 1130 027a DEF10001 		rsbs	r1, lr, #0
 1131 027e 51EB0E01 		adcs	r1, r1, lr
 1132 0282 0D20     		movs	r0, #13
 1133              	.LBE192:
 1134              	.LBE195:
 1135              		.loc 1 225 0
 1136 0284 02B0     		add	sp, sp, #8
 1137              		@ sp needed
 1138 0286 BDE87040 		pop	{r4, r5, r6, lr}
 1139              	.LBB196:
 1140              	.LBB193:
ARM GAS  /tmp/ccAAWrMz.s 			page 21


 1141              		.loc 1 224 0
 1142 028a FFF7FEBF 		b	_test_assert
 1143              	.LVL86:
 1144              	.LBE193:
 1145              	.LBE196:
 1146              		.cfi_endproc
 1147              	.LFE13:
 1148              		.size	queues2_execute, .-queues2_execute
 1149              		.global	patternqueues
 1150              		.global	testqueues2
 1151              		.global	testqueues1
 1152 028e 00BF     		.section	.rodata.testqueues1,"a",%progbits
 1153              		.align	2
 1154              		.type	testqueues1, %object
 1155              		.size	testqueues1, 16
 1156              	testqueues1:
 1157 0000 20000000 		.word	.LC2
 1158 0004 00000000 		.word	queues1_setup
 1159 0008 00000000 		.word	0
 1160 000c 00000000 		.word	queues1_execute
 1161              		.section	.rodata.testqueues2,"a",%progbits
 1162              		.align	2
 1163              		.type	testqueues2, %object
 1164              		.size	testqueues2, 16
 1165              	testqueues2:
 1166 0000 08000000 		.word	.LC1
 1167 0004 00000000 		.word	queues2_setup
 1168 0008 00000000 		.word	0
 1169 000c 00000000 		.word	queues2_execute
 1170              		.section	.rodata.str1.4,"aMS",%progbits,1
 1171              		.align	2
 1172              	.LC0:
 1173 0000 41424344 		.ascii	"ABCD\000"
 1173      00
 1174 0005 000000   		.space	3
 1175              	.LC1:
 1176 0008 51756575 		.ascii	"Queues, output queues\000"
 1176      65732C20 
 1176      6F757470 
 1176      75742071 
 1176      75657565 
 1177 001e 0000     		.space	2
 1178              	.LC2:
 1179 0020 51756575 		.ascii	"Queues, input queues\000"
 1179      65732C20 
 1179      696E7075 
 1179      74207175 
 1179      65756573 
 1180 0035 000000   		.section	.rodata.patternqueues,"a",%progbits
 1181              		.align	2
 1182              		.type	patternqueues, %object
 1183              		.size	patternqueues, 12
 1184              	patternqueues:
 1185 0000 00000000 		.word	testqueues1
 1186 0004 00000000 		.word	testqueues2
 1187 0008 00000000 		.word	0
 1188              		.section	.data.oq,"aw",%progbits
ARM GAS  /tmp/ccAAWrMz.s 			page 22


 1189              		.align	2
 1190              		.set	.LANCHOR1,. + 0
 1191              		.type	oq, %object
 1192              		.size	oq, 36
 1193              	oq:
 1194 0000 00000000 		.word	oq
 1195 0004 00000000 		.word	oq
 1196 0008 04000000 		.word	4
 1197 000c 50010000 		.word	test+336
 1198 0010 54010000 		.word	test+340
 1199 0014 50010000 		.word	test+336
 1200 0018 50010000 		.word	test+336
 1201 001c 00000000 		.word	notify
 1202 0020 00000000 		.word	0
 1203              		.section	.data.iq,"aw",%progbits
 1204              		.align	2
 1205              		.set	.LANCHOR0,. + 0
 1206              		.type	iq, %object
 1207              		.size	iq, 36
 1208              	iq:
 1209 0000 00000000 		.word	iq
 1210 0004 00000000 		.word	iq
 1211 0008 00000000 		.word	0
 1212 000c 00000000 		.word	test
 1213 0010 04000000 		.word	test+4
 1214 0014 00000000 		.word	test
 1215 0018 00000000 		.word	test
 1216 001c 00000000 		.word	notify
 1217 0020 00000000 		.word	0
 1218              		.text
 1219              	.Letext0:
 1220              		.file 2 "/usr/lib/gcc/arm-none-eabi/4.8.2/include/stddef.h"
 1221              		.file 3 "/usr/include/newlib/machine/_default_types.h"
 1222              		.file 4 "/usr/include/newlib/stdint.h"
 1223              		.file 5 "/opt/ChibiOS_2.6.6/os/ports/GCC/ARMCMx/chtypes.h"
 1224              		.file 6 "/opt/ChibiOS_2.6.6/os/kernel/include/chlists.h"
 1225              		.file 7 "/opt/ChibiOS_2.6.6/os/kernel/include/chthreads.h"
 1226              		.file 8 "/opt/ChibiOS_2.6.6/os/ports/GCC/ARMCMx/chcore_v7m.h"
 1227              		.file 9 "/opt/ChibiOS_2.6.6/os/kernel/include/chschd.h"
 1228              		.file 10 "/opt/ChibiOS_2.6.6/os/kernel/include/chmtx.h"
 1229              		.file 11 "/opt/ChibiOS_2.6.6/os/kernel/include/chqueues.h"
 1230              		.file 12 "/opt/ChibiOS_2.6.6/test/test.h"