ARM GAS  /tmp/ccLB3ATm.s 			page 1


   1              		.syntax unified
   2              		.cpu cortex-m3
   3              		.fpu softvfp
   4              		.eabi_attribute 20, 1
   5              		.eabi_attribute 21, 1
   6              		.eabi_attribute 23, 3
   7              		.eabi_attribute 24, 1
   8              		.eabi_attribute 25, 1
   9              		.eabi_attribute 26, 1
  10              		.eabi_attribute 30, 2
  11              		.eabi_attribute 34, 1
  12              		.eabi_attribute 18, 4
  13              		.thumb
  14              		.file	"testevt.c"
  15              		.text
  16              	.Ltext0:
  17              		.cfi_sections	.debug_frame
  18              		.section	.text.evt1_execute,"ax",%progbits
  19              		.align	2
  20              		.thumb
  21              		.thumb_func
  22              		.type	evt1_execute, %function
  23              	evt1_execute:
  24              	.LFB11:
  25              		.file 1 "/opt/ChibiOS_2.6.6/test/testevt.c"
  26              		.loc 1 85 0
  27              		.cfi_startproc
  28              		@ args = 0, pretend = 0, frame = 32
  29              		@ frame_needed = 0, uses_anonymous_args = 0
  30 0000 10B5     		push	{r4, lr}
  31              		.cfi_def_cfa_offset 8
  32              		.cfi_offset 4, -8
  33              		.cfi_offset 14, -4
  34              		.loc 1 91 0
  35 0002 40F20004 		movw	r4, #:lower16:.LANCHOR0
  36              		.loc 1 85 0
  37 0006 88B0     		sub	sp, sp, #32
  38              		.cfi_def_cfa_offset 40
  39              		.loc 1 91 0
  40 0008 C0F20004 		movt	r4, #:upper16:.LANCHOR0
  41              		.loc 1 92 0
  42 000c 2046     		mov	r0, r4
  43 000e 6946     		mov	r1, sp
  44 0010 0122     		movs	r2, #1
  45              		.loc 1 91 0
  46 0012 2460     		str	r4, [r4]
  47              		.loc 1 92 0
  48 0014 FFF7FEFF 		bl	chEvtRegisterMask
  49              	.LVL0:
  50              		.loc 1 93 0
  51 0018 2046     		mov	r0, r4
  52 001a 04A9     		add	r1, sp, #16
  53 001c 0222     		movs	r2, #2
  54 001e FFF7FEFF 		bl	chEvtRegisterMask
  55              	.LVL1:
  56              		.loc 1 94 0
  57 0022 2168     		ldr	r1, [r4]
ARM GAS  /tmp/ccLB3ATm.s 			page 2


  58 0024 0120     		movs	r0, #1
  59 0026 091B     		subs	r1, r1, r4
  60 0028 18BF     		it	ne
  61 002a 0121     		movne	r1, #1
  62 002c FFF7FEFF 		bl	_test_assert
  63              	.LVL2:
  64 0030 08B1     		cbz	r0, .L5
  65              	.L1:
  66              		.loc 1 105 0
  67 0032 08B0     		add	sp, sp, #32
  68              		@ sp needed
  69 0034 10BD     		pop	{r4, pc}
  70              	.L5:
  71              		.loc 1 95 0
  72 0036 6946     		mov	r1, sp
  73 0038 2046     		mov	r0, r4
  74 003a FFF7FEFF 		bl	chEvtUnregister
  75              	.LVL3:
  76              		.loc 1 96 0
  77 003e 2168     		ldr	r1, [r4]
  78 0040 0220     		movs	r0, #2
  79 0042 091B     		subs	r1, r1, r4
  80 0044 18BF     		it	ne
  81 0046 0121     		movne	r1, #1
  82 0048 FFF7FEFF 		bl	_test_assert
  83              	.LVL4:
  84 004c 0028     		cmp	r0, #0
  85 004e F0D1     		bne	.L1
  86              		.loc 1 97 0
  87 0050 04A9     		add	r1, sp, #16
  88 0052 2046     		mov	r0, r4
  89 0054 FFF7FEFF 		bl	chEvtUnregister
  90              	.LVL5:
  91              		.loc 1 98 0
  92 0058 2168     		ldr	r1, [r4]
  93 005a 0320     		movs	r0, #3
  94 005c 0B1B     		subs	r3, r1, r4
  95 005e 5942     		rsbs	r1, r3, #0
  96 0060 5941     		adcs	r1, r1, r3
  97 0062 FFF7FEFF 		bl	_test_assert
  98              	.LVL6:
  99 0066 0028     		cmp	r0, #0
 100 0068 E3D1     		bne	.L1
 101              		.loc 1 103 0
 102 006a 40F20000 		movw	r0, #:lower16:.LANCHOR1
 103 006e C0F20000 		movt	r0, #:upper16:.LANCHOR1
 104 0072 0721     		movs	r1, #7
 105 0074 FFF7FEFF 		bl	chEvtDispatch
 106              	.LVL7:
 107              		.loc 1 104 0
 108 0078 40F20001 		movw	r1, #:lower16:.LC0
 109 007c C0F20001 		movt	r1, #:upper16:.LC0
 110 0080 0420     		movs	r0, #4
 111 0082 FFF7FEFF 		bl	_test_assert_sequence
 112              	.LVL8:
 113 0086 D4E7     		b	.L1
 114              		.cfi_endproc
ARM GAS  /tmp/ccLB3ATm.s 			page 3


 115              	.LFE11:
 116              		.size	evt1_execute, .-evt1_execute
 117              		.section	.text.h3,"ax",%progbits
 118              		.align	2
 119              		.thumb
 120              		.thumb_func
 121              		.type	h3, %function
 122              	h3:
 123              	.LFB10:
 124              		.loc 1 82 0
 125              		.cfi_startproc
 126              		@ args = 0, pretend = 0, frame = 0
 127              		@ frame_needed = 0, uses_anonymous_args = 0
 128              		@ link register save eliminated.
 129              	.LVL9:
 130              		.loc 1 82 0
 131 0000 4320     		movs	r0, #67
 132              	.LVL10:
 133 0002 FFF7FEBF 		b	test_emit_token
 134              	.LVL11:
 135              		.cfi_endproc
 136              	.LFE10:
 137              		.size	h3, .-h3
 138 0006 00BF     		.section	.text.h2,"ax",%progbits
 139              		.align	2
 140              		.thumb
 141              		.thumb_func
 142              		.type	h2, %function
 143              	h2:
 144              	.LFB9:
 145              		.loc 1 81 0
 146              		.cfi_startproc
 147              		@ args = 0, pretend = 0, frame = 0
 148              		@ frame_needed = 0, uses_anonymous_args = 0
 149              		@ link register save eliminated.
 150              	.LVL12:
 151              		.loc 1 81 0
 152 0000 4220     		movs	r0, #66
 153              	.LVL13:
 154 0002 FFF7FEBF 		b	test_emit_token
 155              	.LVL14:
 156              		.cfi_endproc
 157              	.LFE9:
 158              		.size	h2, .-h2
 159 0006 00BF     		.section	.text.h1,"ax",%progbits
 160              		.align	2
 161              		.thumb
 162              		.thumb_func
 163              		.type	h1, %function
 164              	h1:
 165              	.LFB8:
 166              		.loc 1 80 0
 167              		.cfi_startproc
 168              		@ args = 0, pretend = 0, frame = 0
 169              		@ frame_needed = 0, uses_anonymous_args = 0
 170              		@ link register save eliminated.
 171              	.LVL15:
ARM GAS  /tmp/ccLB3ATm.s 			page 4


 172              		.loc 1 80 0
 173 0000 4120     		movs	r0, #65
 174              	.LVL16:
 175 0002 FFF7FEBF 		b	test_emit_token
 176              	.LVL17:
 177              		.cfi_endproc
 178              	.LFE8:
 179              		.size	h1, .-h1
 180 0006 00BF     		.section	.text.evt1_setup,"ax",%progbits
 181              		.align	2
 182              		.thumb
 183              		.thumb_func
 184              		.type	evt1_setup, %function
 185              	evt1_setup:
 186              	.LFB7:
 187              		.loc 1 75 0
 188              		.cfi_startproc
 189              		@ args = 0, pretend = 0, frame = 0
 190              		@ frame_needed = 0, uses_anonymous_args = 0
 191              		@ link register save eliminated.
 192              		.loc 1 77 0
 193 0000 4FF0FF30 		mov	r0, #-1
 194 0004 FFF7FEBF 		b	chEvtGetAndClearEvents
 195              	.LVL18:
 196              		.cfi_endproc
 197              	.LFE7:
 198              		.size	evt1_setup, .-evt1_setup
 199              		.section	.text.evt2_setup,"ax",%progbits
 200              		.align	2
 201              		.thumb
 202              		.thumb_func
 203              		.type	evt2_setup, %function
 204              	evt2_setup:
 205              	.LFB12:
 206              		.loc 1 128 0
 207              		.cfi_startproc
 208              		@ args = 0, pretend = 0, frame = 0
 209              		@ frame_needed = 0, uses_anonymous_args = 0
 210              		@ link register save eliminated.
 211              		.loc 1 130 0
 212 0000 4FF0FF30 		mov	r0, #-1
 213 0004 FFF7FEBF 		b	chEvtGetAndClearEvents
 214              	.LVL19:
 215              		.cfi_endproc
 216              	.LFE12:
 217              		.size	evt2_setup, .-evt2_setup
 218              		.section	.text.evt3_setup,"ax",%progbits
 219              		.align	2
 220              		.thumb
 221              		.thumb_func
 222              		.type	evt3_setup, %function
 223              	evt3_setup:
 224              	.LFB16:
 225              		.loc 1 247 0
 226              		.cfi_startproc
 227              		@ args = 0, pretend = 0, frame = 0
 228              		@ frame_needed = 0, uses_anonymous_args = 0
ARM GAS  /tmp/ccLB3ATm.s 			page 5


 229              		@ link register save eliminated.
 230              		.loc 1 249 0
 231 0000 4FF0FF30 		mov	r0, #-1
 232 0004 FFF7FEBF 		b	chEvtGetAndClearEvents
 233              	.LVL20:
 234              		.cfi_endproc
 235              	.LFE16:
 236              		.size	evt3_setup, .-evt3_setup
 237              		.section	.text.evt2_execute,"ax",%progbits
 238              		.align	2
 239              		.thumb
 240              		.thumb_func
 241              		.type	evt2_execute, %function
 242              	evt2_execute:
 243              	.LFB15:
 244              		.loc 1 149 0
 245              		.cfi_startproc
 246              		@ args = 0, pretend = 0, frame = 40
 247              		@ frame_needed = 0, uses_anonymous_args = 0
 248 0000 2DE9F043 		push	{r4, r5, r6, r7, r8, r9, lr}
 249              		.cfi_def_cfa_offset 28
 250              		.cfi_offset 4, -28
 251              		.cfi_offset 5, -24
 252              		.cfi_offset 6, -20
 253              		.cfi_offset 7, -16
 254              		.cfi_offset 8, -12
 255              		.cfi_offset 9, -8
 256              		.cfi_offset 14, -4
 257              		.loc 1 157 0
 258 0004 0520     		movs	r0, #5
 259              		.loc 1 149 0
 260 0006 8DB0     		sub	sp, sp, #52
 261              		.cfi_def_cfa_offset 80
 262              		.loc 1 157 0
 263 0008 FFF7FEFF 		bl	chEvtAddEvents
 264              	.LVL21:
 265              		.loc 1 158 0
 266 000c 4FF0FF30 		mov	r0, #-1
 267 0010 FFF7FEFF 		bl	chEvtWaitOne
 268              	.LVL22:
 269              		.loc 1 159 0
 270 0014 B0F10109 		subs	r9, r0, #1
 271 0018 D9F10001 		rsbs	r1, r9, #0
 272 001c 51EB0901 		adcs	r1, r1, r9
 273 0020 0120     		movs	r0, #1
 274              	.LVL23:
 275 0022 FFF7FEFF 		bl	_test_assert
 276              	.LVL24:
 277 0026 10B1     		cbz	r0, .L15
 278              	.LVL25:
 279              	.L12:
 280              		.loc 1 222 0
 281 0028 0DB0     		add	sp, sp, #52
 282              		@ sp needed
 283 002a BDE8F083 		pop	{r4, r5, r6, r7, r8, r9, pc}
 284              	.LVL26:
 285              	.L15:
ARM GAS  /tmp/ccLB3ATm.s 			page 6


 286              		.loc 1 160 0
 287 002e 4FF0FF30 		mov	r0, #-1
 288 0032 FFF7FEFF 		bl	chEvtWaitOne
 289              	.LVL27:
 290              		.loc 1 161 0
 291 0036 B0F10408 		subs	r8, r0, #4
 292 003a D8F10001 		rsbs	r1, r8, #0
 293 003e 51EB0801 		adcs	r1, r1, r8
 294 0042 0220     		movs	r0, #2
 295              	.LVL28:
 296 0044 FFF7FEFF 		bl	_test_assert
 297              	.LVL29:
 298 0048 0028     		cmp	r0, #0
 299 004a EDD1     		bne	.L12
 300              		.loc 1 162 0
 301 004c 4FF0FF30 		mov	r0, #-1
 302 0050 FFF7FEFF 		bl	chEvtGetAndClearEvents
 303              	.LVL30:
 304              		.loc 1 163 0
 305 0054 D0F10101 		rsbs	r1, r0, #1
 306 0058 38BF     		it	cc
 307 005a 0021     		movcc	r1, #0
 308 005c 0320     		movs	r0, #3
 309              	.LVL31:
 310 005e FFF7FEFF 		bl	_test_assert
 311              	.LVL32:
 312 0062 0028     		cmp	r0, #0
 313 0064 E0D1     		bne	.L12
 314              		.loc 1 170 0
 315 0066 40F20004 		movw	r4, #:lower16:rlist
 316              		.loc 1 168 0
 317 006a FFF7FEFF 		bl	test_wait_tick
 318              	.LVL33:
 319              		.loc 1 170 0
 320 006e C0F20004 		movt	r4, #:upper16:rlist
 321 0072 40F20003 		movw	r3, #:lower16:wa
 322 0076 A169     		ldr	r1, [r4, #24]
 323 0078 C0F20003 		movt	r3, #:upper16:wa
 324 007c 1B68     		ldr	r3, [r3]
 325 007e 8A68     		ldr	r2, [r1, #8]
 326 0080 0393     		str	r3, [sp, #12]
 327              		.loc 1 169 0
 328 0082 40F20006 		movw	r6, #:lower16:vtlist
 329              		.loc 1 170 0
 330 0086 40F20003 		movw	r3, #:lower16:thread1
 331 008a 013A     		subs	r2, r2, #1
 332 008c 0091     		str	r1, [sp]
 333 008e C0F20003 		movt	r3, #:upper16:thread1
 334 0092 4FF4A871 		mov	r1, #336
 335 0096 0398     		ldr	r0, [sp, #12]
 336              		.loc 1 169 0
 337 0098 C0F20006 		movt	r6, #:upper16:vtlist
 338 009c F768     		ldr	r7, [r6, #12]
 339              	.LVL34:
 340              		.loc 1 170 0
 341 009e FFF7FEFF 		bl	chThdCreateStatic
 342              	.LVL35:
ARM GAS  /tmp/ccLB3ATm.s 			page 7


 343 00a2 40F20005 		movw	r5, #:lower16:threads
 344 00a6 C0F20005 		movt	r5, #:upper16:threads
 345 00aa 2860     		str	r0, [r5]
 346              		.loc 1 172 0
 347 00ac 4FF0FF30 		mov	r0, #-1
 348 00b0 FFF7FEFF 		bl	chEvtWaitOne
 349              	.LVL36:
 350              		.loc 1 173 0
 351 00b4 07F13201 		add	r1, r7, #50
 352              	.LVL37:
 353              		.loc 1 172 0
 354 00b8 8146     		mov	r9, r0
 355              	.LVL38:
 356              		.loc 1 173 0
 357 00ba 07F13702 		add	r2, r7, #55
 358 00be 0420     		movs	r0, #4
 359              	.LVL39:
 360 00c0 FFF7FEFF 		bl	_test_assert_time_window
 361              	.LVL40:
 362 00c4 0028     		cmp	r0, #0
 363 00c6 AFD1     		bne	.L12
 364              		.loc 1 174 0
 365 00c8 B9F1010C 		subs	ip, r9, #1
 366 00cc DCF10001 		rsbs	r1, ip, #0
 367 00d0 51EB0C01 		adcs	r1, r1, ip
 368 00d4 0520     		movs	r0, #5
 369 00d6 FFF7FEFF 		bl	_test_assert
 370              	.LVL41:
 371 00da 0028     		cmp	r0, #0
 372 00dc A4D1     		bne	.L12
 373              		.loc 1 175 0
 374 00de 4FF0FF30 		mov	r0, #-1
 375 00e2 FFF7FEFF 		bl	chEvtGetAndClearEvents
 376              	.LVL42:
 377              		.loc 1 176 0
 378 00e6 D0F10101 		rsbs	r1, r0, #1
 379 00ea 38BF     		it	cc
 380 00ec 0021     		movcc	r1, #0
 381 00ee 0620     		movs	r0, #6
 382              	.LVL43:
 383 00f0 FFF7FEFF 		bl	_test_assert
 384              	.LVL44:
 385 00f4 0028     		cmp	r0, #0
 386 00f6 97D1     		bne	.L12
 387              		.loc 1 177 0
 388 00f8 FFF7FEFF 		bl	test_wait_threads
 389              	.LVL45:
 390              		.loc 1 182 0
 391 00fc 0520     		movs	r0, #5
 392 00fe FFF7FEFF 		bl	chEvtAddEvents
 393              	.LVL46:
 394              		.loc 1 183 0
 395 0102 4FF0FF30 		mov	r0, #-1
 396 0106 FFF7FEFF 		bl	chEvtWaitAny
 397              	.LVL47:
 398              		.loc 1 184 0
 399 010a B0F1050E 		subs	lr, r0, #5
ARM GAS  /tmp/ccLB3ATm.s 			page 8


 400 010e DEF10001 		rsbs	r1, lr, #0
 401 0112 51EB0E01 		adcs	r1, r1, lr
 402 0116 0720     		movs	r0, #7
 403              	.LVL48:
 404 0118 FFF7FEFF 		bl	_test_assert
 405              	.LVL49:
 406 011c 0028     		cmp	r0, #0
 407 011e 83D1     		bne	.L12
 408              		.loc 1 185 0
 409 0120 4FF0FF30 		mov	r0, #-1
 410 0124 FFF7FEFF 		bl	chEvtGetAndClearEvents
 411              	.LVL50:
 412              		.loc 1 186 0
 413 0128 D0F10101 		rsbs	r1, r0, #1
 414 012c 38BF     		it	cc
 415 012e 0021     		movcc	r1, #0
 416 0130 0820     		movs	r0, #8
 417              	.LVL51:
 418 0132 FFF7FEFF 		bl	_test_assert
 419              	.LVL52:
 420 0136 0028     		cmp	r0, #0
 421 0138 7FF476AF 		bne	.L12
 422              		.loc 1 191 0
 423 013c FFF7FEFF 		bl	test_wait_tick
 424              	.LVL53:
 425              		.loc 1 193 0
 426 0140 A169     		ldr	r1, [r4, #24]
 427 0142 40F20003 		movw	r3, #:lower16:thread1
 428 0146 8A68     		ldr	r2, [r1, #8]
 429 0148 C0F20003 		movt	r3, #:upper16:thread1
 430 014c 013A     		subs	r2, r2, #1
 431 014e 0091     		str	r1, [sp]
 432 0150 0398     		ldr	r0, [sp, #12]
 433 0152 4FF4A871 		mov	r1, #336
 434              		.loc 1 192 0
 435 0156 D6F80C80 		ldr	r8, [r6, #12]
 436              	.LVL54:
 437              		.loc 1 193 0
 438 015a FFF7FEFF 		bl	chThdCreateStatic
 439              	.LVL55:
 440 015e 2860     		str	r0, [r5]
 441              		.loc 1 195 0
 442 0160 4FF0FF30 		mov	r0, #-1
 443 0164 FFF7FEFF 		bl	chEvtWaitAny
 444              	.LVL56:
 445              		.loc 1 196 0
 446 0168 08F13201 		add	r1, r8, #50
 447              	.LVL57:
 448              		.loc 1 195 0
 449 016c 8146     		mov	r9, r0
 450              	.LVL58:
 451              		.loc 1 196 0
 452 016e 08F13702 		add	r2, r8, #55
 453 0172 0920     		movs	r0, #9
 454              	.LVL59:
 455 0174 FFF7FEFF 		bl	_test_assert_time_window
 456              	.LVL60:
ARM GAS  /tmp/ccLB3ATm.s 			page 9


 457 0178 0028     		cmp	r0, #0
 458 017a 7FF455AF 		bne	.L12
 459              		.loc 1 197 0
 460 017e B9F10107 		subs	r7, r9, #1
 461 0182 7942     		rsbs	r1, r7, #0
 462 0184 7941     		adcs	r1, r1, r7
 463 0186 0A20     		movs	r0, #10
 464 0188 FFF7FEFF 		bl	_test_assert
 465              	.LVL61:
 466 018c 0028     		cmp	r0, #0
 467 018e 7FF44BAF 		bne	.L12
 468              		.loc 1 198 0
 469 0192 4FF0FF30 		mov	r0, #-1
 470 0196 FFF7FEFF 		bl	chEvtGetAndClearEvents
 471              	.LVL62:
 472              		.loc 1 199 0
 473 019a D0F10101 		rsbs	r1, r0, #1
 474 019e 38BF     		it	cc
 475 01a0 0021     		movcc	r1, #0
 476 01a2 0B20     		movs	r0, #11
 477              	.LVL63:
 478 01a4 FFF7FEFF 		bl	_test_assert
 479              	.LVL64:
 480 01a8 0028     		cmp	r0, #0
 481 01aa 7FF43DAF 		bne	.L12
 482              		.loc 1 205 0
 483 01ae 40F20009 		movw	r9, #:lower16:.LANCHOR0
 484 01b2 C0F20009 		movt	r9, #:upper16:.LANCHOR0
 485              		.loc 1 206 0
 486 01b6 40F20008 		movw	r8, #:lower16:.LANCHOR2
 487              	.LVL65:
 488              		.loc 1 200 0
 489 01ba FFF7FEFF 		bl	test_wait_threads
 490              	.LVL66:
 491              		.loc 1 206 0
 492 01be C0F20008 		movt	r8, #:upper16:.LANCHOR2
 493              		.loc 1 207 0
 494 01c2 4846     		mov	r0, r9
 495 01c4 04A9     		add	r1, sp, #16
 496 01c6 0122     		movs	r2, #1
 497              		.loc 1 205 0
 498 01c8 C9F80090 		str	r9, [r9]
 499              		.loc 1 206 0
 500 01cc C8F80080 		str	r8, [r8]
 501              		.loc 1 207 0
 502 01d0 FFF7FEFF 		bl	chEvtRegisterMask
 503              	.LVL67:
 504              		.loc 1 208 0
 505 01d4 08A9     		add	r1, sp, #32
 506 01d6 0422     		movs	r2, #4
 507 01d8 4046     		mov	r0, r8
 508 01da FFF7FEFF 		bl	chEvtRegisterMask
 509              	.LVL68:
 510              		.loc 1 209 0
 511 01de FFF7FEFF 		bl	test_wait_tick
 512              	.LVL69:
 513              		.loc 1 211 0
ARM GAS  /tmp/ccLB3ATm.s 			page 10


 514 01e2 A369     		ldr	r3, [r4, #24]
 515 01e4 40F20001 		movw	r1, #:lower16:.LC1
 516 01e8 9A68     		ldr	r2, [r3, #8]
 517 01ea C0F20001 		movt	r1, #:upper16:.LC1
 518 01ee 40F20003 		movw	r3, #:lower16:thread2
 519 01f2 013A     		subs	r2, r2, #1
 520 01f4 0091     		str	r1, [sp]
 521 01f6 C0F20003 		movt	r3, #:upper16:thread2
 522 01fa 4FF4A871 		mov	r1, #336
 523 01fe 0398     		ldr	r0, [sp, #12]
 524              		.loc 1 210 0
 525 0200 F468     		ldr	r4, [r6, #12]
 526              	.LVL70:
 527              		.loc 1 211 0
 528 0202 FFF7FEFF 		bl	chThdCreateStatic
 529              	.LVL71:
 530 0206 2860     		str	r0, [r5]
 531              		.loc 1 213 0
 532 0208 0520     		movs	r0, #5
 533 020a FFF7FEFF 		bl	chEvtWaitAll
 534              	.LVL72:
 535              		.loc 1 214 0
 536 020e 04F13201 		add	r1, r4, #50
 537              	.LVL73:
 538 0212 04F13702 		add	r2, r4, #55
 539 0216 0C20     		movs	r0, #12
 540 0218 FFF7FEFF 		bl	_test_assert_time_window
 541              	.LVL74:
 542 021c 0028     		cmp	r0, #0
 543 021e 7FF403AF 		bne	.L12
 544              		.loc 1 215 0
 545 0222 4FF0FF30 		mov	r0, #-1
 546 0226 FFF7FEFF 		bl	chEvtGetAndClearEvents
 547              	.LVL75:
 548              		.loc 1 216 0
 549 022a D0F10101 		rsbs	r1, r0, #1
 550 022e 38BF     		it	cc
 551 0230 0021     		movcc	r1, #0
 552 0232 0D20     		movs	r0, #13
 553              	.LVL76:
 554 0234 FFF7FEFF 		bl	_test_assert
 555              	.LVL77:
 556 0238 0028     		cmp	r0, #0
 557 023a 7FF4F5AE 		bne	.L12
 558              		.loc 1 217 0
 559 023e FFF7FEFF 		bl	test_wait_threads
 560              	.LVL78:
 561              		.loc 1 218 0
 562 0242 4846     		mov	r0, r9
 563 0244 04A9     		add	r1, sp, #16
 564 0246 FFF7FEFF 		bl	chEvtUnregister
 565              	.LVL79:
 566              		.loc 1 219 0
 567 024a 4046     		mov	r0, r8
 568 024c 08A9     		add	r1, sp, #32
 569 024e FFF7FEFF 		bl	chEvtUnregister
 570              	.LVL80:
ARM GAS  /tmp/ccLB3ATm.s 			page 11


 571              		.loc 1 220 0
 572 0252 D9F80010 		ldr	r1, [r9]
 573 0256 0E20     		movs	r0, #14
 574 0258 B1EB0904 		subs	r4, r1, r9
 575              	.LVL81:
 576 025c 6142     		rsbs	r1, r4, #0
 577 025e 6141     		adcs	r1, r1, r4
 578 0260 FFF7FEFF 		bl	_test_assert
 579              	.LVL82:
 580 0264 0028     		cmp	r0, #0
 581 0266 7FF4DFAE 		bne	.L12
 582              		.loc 1 221 0
 583 026a D8F80010 		ldr	r1, [r8]
 584 026e 0F20     		movs	r0, #15
 585 0270 B1EB0802 		subs	r2, r1, r8
 586 0274 5142     		rsbs	r1, r2, #0
 587 0276 5141     		adcs	r1, r1, r2
 588 0278 FFF7FEFF 		bl	_test_assert
 589              	.LVL83:
 590 027c D4E6     		b	.L12
 591              		.cfi_endproc
 592              	.LFE15:
 593              		.size	evt2_execute, .-evt2_execute
 594 027e 00BF     		.section	.text.thread2,"ax",%progbits
 595              		.align	2
 596              		.thumb
 597              		.thumb_func
 598              		.type	thread2, %function
 599              	thread2:
 600              	.LFB14:
 601              		.loc 1 140 0
 602              		.cfi_startproc
 603              		@ args = 0, pretend = 0, frame = 0
 604              		@ frame_needed = 0, uses_anonymous_args = 0
 605              	.LVL84:
 606 0000 08B5     		push	{r3, lr}
 607              		.cfi_def_cfa_offset 8
 608              		.cfi_offset 3, -8
 609              		.cfi_offset 14, -4
 610              		.loc 1 143 0
 611 0002 40F20000 		movw	r0, #:lower16:.LANCHOR0
 612              	.LVL85:
 613 0006 0021     		movs	r1, #0
 614 0008 C0F20000 		movt	r0, #:upper16:.LANCHOR0
 615 000c FFF7FEFF 		bl	chEvtBroadcastFlags
 616              	.LVL86:
 617              		.loc 1 144 0
 618 0010 3220     		movs	r0, #50
 619 0012 FFF7FEFF 		bl	chThdSleep
 620              	.LVL87:
 621              		.loc 1 145 0
 622 0016 40F20000 		movw	r0, #:lower16:.LANCHOR2
 623 001a C0F20000 		movt	r0, #:upper16:.LANCHOR2
 624 001e 0021     		movs	r1, #0
 625 0020 FFF7FEFF 		bl	chEvtBroadcastFlags
 626              	.LVL88:
 627              		.loc 1 147 0
ARM GAS  /tmp/ccLB3ATm.s 			page 12


 628 0024 0020     		movs	r0, #0
 629 0026 08BD     		pop	{r3, pc}
 630              		.cfi_endproc
 631              	.LFE14:
 632              		.size	thread2, .-thread2
 633              		.section	.text.thread1,"ax",%progbits
 634              		.align	2
 635              		.thumb
 636              		.thumb_func
 637              		.type	thread1, %function
 638              	thread1:
 639              	.LFB13:
 640              		.loc 1 133 0
 641              		.cfi_startproc
 642              		@ args = 0, pretend = 0, frame = 0
 643              		@ frame_needed = 0, uses_anonymous_args = 0
 644              	.LVL89:
 645 0000 10B5     		push	{r4, lr}
 646              		.cfi_def_cfa_offset 8
 647              		.cfi_offset 4, -8
 648              		.cfi_offset 14, -4
 649              		.loc 1 133 0
 650 0002 0446     		mov	r4, r0
 651              		.loc 1 135 0
 652 0004 3220     		movs	r0, #50
 653              	.LVL90:
 654 0006 FFF7FEFF 		bl	chThdSleep
 655              	.LVL91:
 656              		.loc 1 136 0
 657 000a 2046     		mov	r0, r4
 658 000c 0121     		movs	r1, #1
 659 000e FFF7FEFF 		bl	chEvtSignal
 660              	.LVL92:
 661              		.loc 1 138 0
 662 0012 0020     		movs	r0, #0
 663 0014 10BD     		pop	{r4, pc}
 664              		.cfi_endproc
 665              	.LFE13:
 666              		.size	thread1, .-thread1
 667 0016 00BF     		.section	.text.evt3_execute,"ax",%progbits
 668              		.align	2
 669              		.thumb
 670              		.thumb_func
 671              		.type	evt3_execute, %function
 672              	evt3_execute:
 673              	.LFB17:
 674              		.loc 1 252 0
 675              		.cfi_startproc
 676              		@ args = 0, pretend = 0, frame = 0
 677              		@ frame_needed = 0, uses_anonymous_args = 0
 678 0000 08B5     		push	{r3, lr}
 679              		.cfi_def_cfa_offset 8
 680              		.cfi_offset 3, -8
 681              		.cfi_offset 14, -4
 682              		.loc 1 258 0
 683 0002 0021     		movs	r1, #0
 684 0004 4FF0FF30 		mov	r0, #-1
ARM GAS  /tmp/ccLB3ATm.s 			page 13


 685 0008 FFF7FEFF 		bl	chEvtWaitOneTimeout
 686              	.LVL93:
 687              		.loc 1 259 0
 688 000c D0F10101 		rsbs	r1, r0, #1
 689 0010 38BF     		it	cc
 690 0012 0021     		movcc	r1, #0
 691 0014 0120     		movs	r0, #1
 692              	.LVL94:
 693 0016 FFF7FEFF 		bl	_test_assert
 694              	.LVL95:
 695 001a 00B1     		cbz	r0, .L22
 696              	.L18:
 697 001c 08BD     		pop	{r3, pc}
 698              	.L22:
 699              		.loc 1 260 0
 700 001e 0146     		mov	r1, r0
 701 0020 4FF0FF30 		mov	r0, #-1
 702 0024 FFF7FEFF 		bl	chEvtWaitAnyTimeout
 703              	.LVL96:
 704              		.loc 1 261 0
 705 0028 D0F10101 		rsbs	r1, r0, #1
 706 002c 38BF     		it	cc
 707 002e 0021     		movcc	r1, #0
 708 0030 0220     		movs	r0, #2
 709              	.LVL97:
 710 0032 FFF7FEFF 		bl	_test_assert
 711              	.LVL98:
 712 0036 0028     		cmp	r0, #0
 713 0038 F0D1     		bne	.L18
 714              		.loc 1 262 0
 715 003a 0146     		mov	r1, r0
 716 003c 4FF0FF30 		mov	r0, #-1
 717 0040 FFF7FEFF 		bl	chEvtWaitAllTimeout
 718              	.LVL99:
 719              		.loc 1 263 0
 720 0044 D0F10101 		rsbs	r1, r0, #1
 721 0048 38BF     		it	cc
 722 004a 0021     		movcc	r1, #0
 723 004c 0320     		movs	r0, #3
 724              	.LVL100:
 725 004e FFF7FEFF 		bl	_test_assert
 726              	.LVL101:
 727 0052 0028     		cmp	r0, #0
 728 0054 E2D1     		bne	.L18
 729              	.LBB4:
 730              	.LBB5:
 731              		.loc 1 264 0
 732 0056 0A21     		movs	r1, #10
 733 0058 4FF0FF30 		mov	r0, #-1
 734 005c FFF7FEFF 		bl	chEvtWaitOneTimeout
 735              	.LVL102:
 736              		.loc 1 265 0
 737 0060 D0F10101 		rsbs	r1, r0, #1
 738 0064 38BF     		it	cc
 739 0066 0021     		movcc	r1, #0
 740 0068 0420     		movs	r0, #4
 741              	.LVL103:
ARM GAS  /tmp/ccLB3ATm.s 			page 14


 742 006a FFF7FEFF 		bl	_test_assert
 743              	.LVL104:
 744 006e 0028     		cmp	r0, #0
 745 0070 D4D1     		bne	.L18
 746              		.loc 1 266 0
 747 0072 0A21     		movs	r1, #10
 748 0074 4FF0FF30 		mov	r0, #-1
 749 0078 FFF7FEFF 		bl	chEvtWaitAnyTimeout
 750              	.LVL105:
 751              		.loc 1 267 0
 752 007c D0F10101 		rsbs	r1, r0, #1
 753 0080 38BF     		it	cc
 754 0082 0021     		movcc	r1, #0
 755 0084 0520     		movs	r0, #5
 756              	.LVL106:
 757 0086 FFF7FEFF 		bl	_test_assert
 758              	.LVL107:
 759 008a 0028     		cmp	r0, #0
 760 008c C6D1     		bne	.L18
 761              		.loc 1 268 0
 762 008e 0A21     		movs	r1, #10
 763 0090 4FF0FF30 		mov	r0, #-1
 764 0094 FFF7FEFF 		bl	chEvtWaitAllTimeout
 765              	.LVL108:
 766              	.LBE5:
 767              	.LBE4:
 768              		.loc 1 270 0
 769 0098 BDE80840 		pop	{r3, lr}
 770              	.LBB7:
 771              	.LBB6:
 772              		.loc 1 269 0
 773 009c D0F10101 		rsbs	r1, r0, #1
 774 00a0 38BF     		it	cc
 775 00a2 0021     		movcc	r1, #0
 776 00a4 0620     		movs	r0, #6
 777              	.LVL109:
 778 00a6 FFF7FEBF 		b	_test_assert
 779              	.LVL110:
 780              	.LBE6:
 781              	.LBE7:
 782              		.cfi_endproc
 783              	.LFE17:
 784              		.size	evt3_execute, .-evt3_execute
 785              		.global	patternevt
 786              		.global	testevt3
 787              		.global	testevt2
 788              		.global	testevt1
 789 00aa 00BF     		.section	.rodata.patternevt,"a",%progbits
 790              		.align	2
 791              		.type	patternevt, %object
 792              		.size	patternevt, 16
 793              	patternevt:
 794 0000 00000000 		.word	testevt1
 795 0004 00000000 		.word	testevt2
 796 0008 00000000 		.word	testevt3
 797 000c 00000000 		.word	0
 798              		.section	.rodata.testevt2,"a",%progbits
ARM GAS  /tmp/ccLB3ATm.s 			page 15


 799              		.align	2
 800              		.type	testevt2, %object
 801              		.size	testevt2, 16
 802              	testevt2:
 803 0000 1C000000 		.word	.LC3
 804 0004 00000000 		.word	evt2_setup
 805 0008 00000000 		.word	0
 806 000c 00000000 		.word	evt2_execute
 807              		.section	.rodata.str1.4,"aMS",%progbits,1
 808              		.align	2
 809              	.LC0:
 810 0000 41424300 		.ascii	"ABC\000"
 811              	.LC1:
 812 0004 4100     		.ascii	"A\000"
 813 0006 0000     		.space	2
 814              	.LC2:
 815 0008 4576656E 		.ascii	"Events, timeouts\000"
 815      74732C20 
 815      74696D65 
 815      6F757473 
 815      00
 816 0019 000000   		.space	3
 817              	.LC3:
 818 001c 4576656E 		.ascii	"Events, wait and broadcast\000"
 818      74732C20 
 818      77616974 
 818      20616E64 
 818      2062726F 
 819 0037 00       		.space	1
 820              	.LC4:
 821 0038 4576656E 		.ascii	"Events, registration and dispatch\000"
 821      74732C20 
 821      72656769 
 821      73747261 
 821      74696F6E 
 822 005a 0000     		.section	.rodata.testevt1,"a",%progbits
 823              		.align	2
 824              		.type	testevt1, %object
 825              		.size	testevt1, 16
 826              	testevt1:
 827 0000 38000000 		.word	.LC4
 828 0004 00000000 		.word	evt1_setup
 829 0008 00000000 		.word	0
 830 000c 00000000 		.word	evt1_execute
 831              		.section	.rodata.evhndl,"a",%progbits
 832              		.align	2
 833              		.set	.LANCHOR1,. + 0
 834              		.type	evhndl, %object
 835              		.size	evhndl, 12
 836              	evhndl:
 837 0000 00000000 		.word	h1
 838 0004 00000000 		.word	h2
 839 0008 00000000 		.word	h3
 840              		.section	.rodata.testevt3,"a",%progbits
 841              		.align	2
 842              		.type	testevt3, %object
 843              		.size	testevt3, 16
ARM GAS  /tmp/ccLB3ATm.s 			page 16


 844              	testevt3:
 845 0000 08000000 		.word	.LC2
 846 0004 00000000 		.word	evt3_setup
 847 0008 00000000 		.word	0
 848 000c 00000000 		.word	evt3_execute
 849              		.section	.data.es1,"aw",%progbits
 850              		.align	2
 851              		.set	.LANCHOR0,. + 0
 852              		.type	es1, %object
 853              		.size	es1, 4
 854              	es1:
 855 0000 00000000 		.word	es1
 856              		.section	.data.es2,"aw",%progbits
 857              		.align	2
 858              		.set	.LANCHOR2,. + 0
 859              		.type	es2, %object
 860              		.size	es2, 4
 861              	es2:
 862 0000 00000000 		.word	es2
 863              		.text
 864              	.Letext0:
 865              		.file 2 "/usr/lib/gcc/arm-none-eabi/4.8.2/include/stddef.h"
 866              		.file 3 "/usr/include/newlib/machine/_default_types.h"
 867              		.file 4 "/usr/include/newlib/stdint.h"
 868              		.file 5 "/opt/ChibiOS_2.6.6/os/ports/GCC/ARMCMx/chtypes.h"
 869              		.file 6 "/opt/ChibiOS_2.6.6/os/kernel/include/chlists.h"
 870              		.file 7 "/opt/ChibiOS_2.6.6/os/kernel/include/chthreads.h"
 871              		.file 8 "/opt/ChibiOS_2.6.6/os/ports/GCC/ARMCMx/chcore_v7m.h"
 872              		.file 9 "/opt/ChibiOS_2.6.6/os/kernel/include/chvt.h"
 873              		.file 10 "/opt/ChibiOS_2.6.6/os/kernel/include/chschd.h"
 874              		.file 11 "/opt/ChibiOS_2.6.6/os/kernel/include/chmtx.h"
 875              		.file 12 "/opt/ChibiOS_2.6.6/os/kernel/include/chevents.h"
 876              		.file 13 "/opt/ChibiOS_2.6.6/test/test.h"
 877              		.section	.debug_info,"",%progbits
 878              	.Ldebug_info0:
 879 0000 A7100000 		.4byte	0x10a7
 880 0004 0400     		.2byte	0x4
 881 0006 00000000 		.4byte	.Ldebug_abbrev0
 882 000a 04       		.byte	0x4
 883 000b 01       		.uleb128 0x1
 884 000c 5F020000 		.4byte	.LASF128
 885 0010 01       		.byte	0x1
 886 0011 FA000000 		.4byte	.LASF129
 887 0015 18000000 		.4byte	.Ldebug_ranges0+0x18
 888 0019 00000000 		.4byte	0
 889 001d 00000000 		.4byte	.Ldebug_line0
 890 0021 02       		.uleb128 0x2
 891 0022 04       		.byte	0x4
 892 0023 05       		.byte	0x5
 893 0024 696E7400 		.ascii	"int\000"
 894 0028 03       		.uleb128 0x3
 895 0029 19000000 		.4byte	.LASF2
 896 002d 02       		.byte	0x2
 897 002e D4       		.byte	0xd4
 898 002f 33000000 		.4byte	0x33
 899 0033 04       		.uleb128 0x4
 900 0034 04       		.byte	0x4
ARM GAS  /tmp/ccLB3ATm.s 			page 17


 901 0035 07       		.byte	0x7
 902 0036 CC010000 		.4byte	.LASF0
 903 003a 04       		.uleb128 0x4
 904 003b 01       		.byte	0x1
 905 003c 06       		.byte	0x6
 906 003d A9000000 		.4byte	.LASF1
 907 0041 03       		.uleb128 0x3
 908 0042 27000000 		.4byte	.LASF3
 909 0046 03       		.byte	0x3
 910 0047 1C       		.byte	0x1c
 911 0048 4C000000 		.4byte	0x4c
 912 004c 04       		.uleb128 0x4
 913 004d 01       		.byte	0x1
 914 004e 08       		.byte	0x8
 915 004f 29040000 		.4byte	.LASF4
 916 0053 04       		.uleb128 0x4
 917 0054 02       		.byte	0x2
 918 0055 05       		.byte	0x5
 919 0056 70040000 		.4byte	.LASF5
 920 005a 04       		.uleb128 0x4
 921 005b 02       		.byte	0x2
 922 005c 07       		.byte	0x7
 923 005d 34020000 		.4byte	.LASF6
 924 0061 03       		.uleb128 0x3
 925 0062 1B050000 		.4byte	.LASF7
 926 0066 03       		.byte	0x3
 927 0067 37       		.byte	0x37
 928 0068 6C000000 		.4byte	0x6c
 929 006c 04       		.uleb128 0x4
 930 006d 04       		.byte	0x4
 931 006e 05       		.byte	0x5
 932 006f 1C010000 		.4byte	.LASF8
 933 0073 03       		.uleb128 0x3
 934 0074 7A010000 		.4byte	.LASF9
 935 0078 03       		.byte	0x3
 936 0079 38       		.byte	0x38
 937 007a 7E000000 		.4byte	0x7e
 938 007e 04       		.uleb128 0x4
 939 007f 04       		.byte	0x4
 940 0080 07       		.byte	0x7
 941 0081 E1010000 		.4byte	.LASF10
 942 0085 04       		.uleb128 0x4
 943 0086 08       		.byte	0x8
 944 0087 05       		.byte	0x5
 945 0088 9B000000 		.4byte	.LASF11
 946 008c 04       		.uleb128 0x4
 947 008d 08       		.byte	0x8
 948 008e 07       		.byte	0x7
 949 008f 44000000 		.4byte	.LASF12
 950 0093 03       		.uleb128 0x3
 951 0094 73050000 		.4byte	.LASF13
 952 0098 04       		.byte	0x4
 953 0099 2A       		.byte	0x2a
 954 009a 41000000 		.4byte	0x41
 955 009e 03       		.uleb128 0x3
 956 009f 21040000 		.4byte	.LASF14
 957 00a3 04       		.byte	0x4
ARM GAS  /tmp/ccLB3ATm.s 			page 18


 958 00a4 41       		.byte	0x41
 959 00a5 61000000 		.4byte	0x61
 960 00a9 03       		.uleb128 0x3
 961 00aa DC040000 		.4byte	.LASF15
 962 00ae 04       		.byte	0x4
 963 00af 42       		.byte	0x42
 964 00b0 73000000 		.4byte	0x73
 965 00b4 03       		.uleb128 0x3
 966 00b5 D1000000 		.4byte	.LASF16
 967 00b9 05       		.byte	0x5
 968 00ba 2B       		.byte	0x2b
 969 00bb BF000000 		.4byte	0xbf
 970 00bf 04       		.uleb128 0x4
 971 00c0 01       		.byte	0x1
 972 00c1 02       		.byte	0x2
 973 00c2 1B040000 		.4byte	.LASF17
 974 00c6 03       		.uleb128 0x3
 975 00c7 FF020000 		.4byte	.LASF18
 976 00cb 05       		.byte	0x5
 977 00cc 2C       		.byte	0x2c
 978 00cd 93000000 		.4byte	0x93
 979 00d1 03       		.uleb128 0x3
 980 00d2 31010000 		.4byte	.LASF19
 981 00d6 05       		.byte	0x5
 982 00d7 2D       		.byte	0x2d
 983 00d8 93000000 		.4byte	0x93
 984 00dc 03       		.uleb128 0x3
 985 00dd FC030000 		.4byte	.LASF20
 986 00e1 05       		.byte	0x5
 987 00e2 2E       		.byte	0x2e
 988 00e3 93000000 		.4byte	0x93
 989 00e7 03       		.uleb128 0x3
 990 00e8 F0000000 		.4byte	.LASF21
 991 00ec 05       		.byte	0x5
 992 00ed 2F       		.byte	0x2f
 993 00ee 93000000 		.4byte	0x93
 994 00f2 03       		.uleb128 0x3
 995 00f3 13040000 		.4byte	.LASF22
 996 00f7 05       		.byte	0x5
 997 00f8 30       		.byte	0x30
 998 00f9 A9000000 		.4byte	0xa9
 999 00fd 03       		.uleb128 0x3
 1000 00fe 59020000 		.4byte	.LASF23
 1001 0102 05       		.byte	0x5
 1002 0103 31       		.byte	0x31
 1003 0104 9E000000 		.4byte	0x9e
 1004 0108 03       		.uleb128 0x3
 1005 0109 AA010000 		.4byte	.LASF24
 1006 010d 05       		.byte	0x5
 1007 010e 32       		.byte	0x32
 1008 010f 9E000000 		.4byte	0x9e
 1009 0113 03       		.uleb128 0x3
 1010 0114 13030000 		.4byte	.LASF25
 1011 0118 05       		.byte	0x5
 1012 0119 33       		.byte	0x33
 1013 011a A9000000 		.4byte	0xa9
 1014 011e 03       		.uleb128 0x3
ARM GAS  /tmp/ccLB3ATm.s 			page 19


 1015 011f 45050000 		.4byte	.LASF26
 1016 0123 05       		.byte	0x5
 1017 0124 34       		.byte	0x34
 1018 0125 A9000000 		.4byte	0xa9
 1019 0129 03       		.uleb128 0x3
 1020 012a 06050000 		.4byte	.LASF27
 1021 012e 05       		.byte	0x5
 1022 012f 35       		.byte	0x35
 1023 0130 A9000000 		.4byte	0xa9
 1024 0134 03       		.uleb128 0x3
 1025 0135 B1040000 		.4byte	.LASF28
 1026 0139 06       		.byte	0x6
 1027 013a 2A       		.byte	0x2a
 1028 013b 3F010000 		.4byte	0x13f
 1029 013f 05       		.uleb128 0x5
 1030 0140 B1040000 		.4byte	.LASF28
 1031 0144 48       		.byte	0x48
 1032 0145 07       		.byte	0x7
 1033 0146 5E       		.byte	0x5e
 1034 0147 3C020000 		.4byte	0x23c
 1035 014b 06       		.uleb128 0x6
 1036 014c A2040000 		.4byte	.LASF29
 1037 0150 07       		.byte	0x7
 1038 0151 5F       		.byte	0x5f
 1039 0152 5D020000 		.4byte	0x25d
 1040 0156 00       		.byte	0
 1041 0157 06       		.uleb128 0x6
 1042 0158 04040000 		.4byte	.LASF30
 1043 015c 07       		.byte	0x7
 1044 015d 61       		.byte	0x61
 1045 015e 5D020000 		.4byte	0x25d
 1046 0162 04       		.byte	0x4
 1047 0163 06       		.uleb128 0x6
 1048 0164 87000000 		.4byte	.LASF31
 1049 0168 07       		.byte	0x7
 1050 0169 63       		.byte	0x63
 1051 016a F2000000 		.4byte	0xf2
 1052 016e 08       		.byte	0x8
 1053 016f 06       		.uleb128 0x6
 1054 0170 F6050000 		.4byte	.LASF32
 1055 0174 07       		.byte	0x7
 1056 0175 64       		.byte	0x64
 1057 0176 17030000 		.4byte	0x317
 1058 017a 0C       		.byte	0xc
 1059 017b 06       		.uleb128 0x6
 1060 017c 72010000 		.4byte	.LASF33
 1061 0180 07       		.byte	0x7
 1062 0181 66       		.byte	0x66
 1063 0182 5D020000 		.4byte	0x25d
 1064 0186 10       		.byte	0x10
 1065 0187 06       		.uleb128 0x6
 1066 0188 86030000 		.4byte	.LASF34
 1067 018c 07       		.byte	0x7
 1068 018d 67       		.byte	0x67
 1069 018e 5D020000 		.4byte	0x25d
 1070 0192 14       		.byte	0x14
 1071 0193 06       		.uleb128 0x6
ARM GAS  /tmp/ccLB3ATm.s 			page 20


 1072 0194 A4050000 		.4byte	.LASF35
 1073 0198 07       		.byte	0x7
 1074 0199 6E       		.byte	0x6e
 1075 019a 5F050000 		.4byte	0x55f
 1076 019e 18       		.byte	0x18
 1077 019f 06       		.uleb128 0x6
 1078 01a0 7A040000 		.4byte	.LASF36
 1079 01a4 07       		.byte	0x7
 1080 01a5 79       		.byte	0x79
 1081 01a6 D1000000 		.4byte	0xd1
 1082 01aa 1C       		.byte	0x1c
 1083 01ab 06       		.uleb128 0x6
 1084 01ac A9040000 		.4byte	.LASF37
 1085 01b0 07       		.byte	0x7
 1086 01b1 7D       		.byte	0x7d
 1087 01b2 C6000000 		.4byte	0xc6
 1088 01b6 1D       		.byte	0x1d
 1089 01b7 06       		.uleb128 0x6
 1090 01b8 5C050000 		.4byte	.LASF38
 1091 01bc 07       		.byte	0x7
 1092 01bd 82       		.byte	0x82
 1093 01be DC000000 		.4byte	0xdc
 1094 01c2 1E       		.byte	0x1e
 1095 01c3 06       		.uleb128 0x6
 1096 01c4 82040000 		.4byte	.LASF39
 1097 01c8 07       		.byte	0x7
 1098 01c9 88       		.byte	0x88
 1099 01ca E7000000 		.4byte	0xe7
 1100 01ce 1F       		.byte	0x1f
 1101 01cf 06       		.uleb128 0x6
 1102 01d0 25050000 		.4byte	.LASF40
 1103 01d4 07       		.byte	0x7
 1104 01d5 8F       		.byte	0x8f
 1105 01d6 EE030000 		.4byte	0x3ee
 1106 01da 20       		.byte	0x20
 1107 01db 07       		.uleb128 0x7
 1108 01dc 705F7500 		.ascii	"p_u\000"
 1109 01e0 07       		.byte	0x7
 1110 01e1 B4       		.byte	0xb4
 1111 01e2 2A050000 		.4byte	0x52a
 1112 01e6 24       		.byte	0x24
 1113 01e7 06       		.uleb128 0x6
 1114 01e8 FC050000 		.4byte	.LASF41
 1115 01ec 07       		.byte	0x7
 1116 01ed B9       		.byte	0xb9
 1117 01ee 83020000 		.4byte	0x283
 1118 01f2 28       		.byte	0x28
 1119 01f3 06       		.uleb128 0x6
 1120 01f4 33050000 		.4byte	.LASF42
 1121 01f8 07       		.byte	0x7
 1122 01f9 BF       		.byte	0xbf
 1123 01fa 63020000 		.4byte	0x263
 1124 01fe 2C       		.byte	0x2c
 1125 01ff 06       		.uleb128 0x6
 1126 0200 13000000 		.4byte	.LASF43
 1127 0204 07       		.byte	0x7
 1128 0205 C3       		.byte	0xc3
ARM GAS  /tmp/ccLB3ATm.s 			page 21


 1129 0206 FD000000 		.4byte	0xfd
 1130 020a 34       		.byte	0x34
 1131 020b 06       		.uleb128 0x6
 1132 020c C1040000 		.4byte	.LASF44
 1133 0210 07       		.byte	0x7
 1134 0211 C9       		.byte	0xc9
 1135 0212 13010000 		.4byte	0x113
 1136 0216 38       		.byte	0x38
 1137 0217 06       		.uleb128 0x6
 1138 0218 66040000 		.4byte	.LASF45
 1139 021c 07       		.byte	0x7
 1140 021d D0       		.byte	0xd0
 1141 021e 71050000 		.4byte	0x571
 1142 0222 3C       		.byte	0x3c
 1143 0223 06       		.uleb128 0x6
 1144 0224 10050000 		.4byte	.LASF46
 1145 0228 07       		.byte	0x7
 1146 0229 D4       		.byte	0xd4
 1147 022a F2000000 		.4byte	0xf2
 1148 022e 40       		.byte	0x40
 1149 022f 06       		.uleb128 0x6
 1150 0230 C9000000 		.4byte	.LASF47
 1151 0234 07       		.byte	0x7
 1152 0235 DA       		.byte	0xda
 1153 0236 99020000 		.4byte	0x299
 1154 023a 44       		.byte	0x44
 1155 023b 00       		.byte	0
 1156 023c 08       		.uleb128 0x8
 1157 023d 08       		.byte	0x8
 1158 023e 06       		.byte	0x6
 1159 023f 61       		.byte	0x61
 1160 0240 5D020000 		.4byte	0x25d
 1161 0244 06       		.uleb128 0x6
 1162 0245 A2040000 		.4byte	.LASF29
 1163 0249 06       		.byte	0x6
 1164 024a 62       		.byte	0x62
 1165 024b 5D020000 		.4byte	0x25d
 1166 024f 00       		.byte	0
 1167 0250 06       		.uleb128 0x6
 1168 0251 04040000 		.4byte	.LASF30
 1169 0255 06       		.byte	0x6
 1170 0256 64       		.byte	0x64
 1171 0257 5D020000 		.4byte	0x25d
 1172 025b 04       		.byte	0x4
 1173 025c 00       		.byte	0
 1174 025d 09       		.uleb128 0x9
 1175 025e 04       		.byte	0x4
 1176 025f 34010000 		.4byte	0x134
 1177 0263 03       		.uleb128 0x3
 1178 0264 AC030000 		.4byte	.LASF48
 1179 0268 06       		.byte	0x6
 1180 0269 66       		.byte	0x66
 1181 026a 3C020000 		.4byte	0x23c
 1182 026e 08       		.uleb128 0x8
 1183 026f 04       		.byte	0x4
 1184 0270 06       		.byte	0x6
 1185 0271 6B       		.byte	0x6b
ARM GAS  /tmp/ccLB3ATm.s 			page 22


 1186 0272 83020000 		.4byte	0x283
 1187 0276 06       		.uleb128 0x6
 1188 0277 A2040000 		.4byte	.LASF29
 1189 027b 06       		.byte	0x6
 1190 027c 6D       		.byte	0x6d
 1191 027d 5D020000 		.4byte	0x25d
 1192 0281 00       		.byte	0
 1193 0282 00       		.byte	0
 1194 0283 03       		.uleb128 0x3
 1195 0284 07030000 		.4byte	.LASF49
 1196 0288 06       		.byte	0x6
 1197 0289 70       		.byte	0x70
 1198 028a 6E020000 		.4byte	0x26e
 1199 028e 03       		.uleb128 0x3
 1200 028f 85010000 		.4byte	.LASF50
 1201 0293 08       		.byte	0x8
 1202 0294 E5       		.byte	0xe5
 1203 0295 99020000 		.4byte	0x299
 1204 0299 0A       		.uleb128 0xa
 1205 029a 04       		.byte	0x4
 1206 029b 0B       		.uleb128 0xb
 1207 029c 2C050000 		.4byte	.LASF51
 1208 02a0 24       		.byte	0x24
 1209 02a1 08       		.byte	0x8
 1210 02a2 0C01     		.2byte	0x10c
 1211 02a4 17030000 		.4byte	0x317
 1212 02a8 0C       		.uleb128 0xc
 1213 02a9 723400   		.ascii	"r4\000"
 1214 02ac 08       		.byte	0x8
 1215 02ad 1F01     		.2byte	0x11f
 1216 02af 8E020000 		.4byte	0x28e
 1217 02b3 00       		.byte	0
 1218 02b4 0C       		.uleb128 0xc
 1219 02b5 723500   		.ascii	"r5\000"
 1220 02b8 08       		.byte	0x8
 1221 02b9 2001     		.2byte	0x120
 1222 02bb 8E020000 		.4byte	0x28e
 1223 02bf 04       		.byte	0x4
 1224 02c0 0C       		.uleb128 0xc
 1225 02c1 723600   		.ascii	"r6\000"
 1226 02c4 08       		.byte	0x8
 1227 02c5 2101     		.2byte	0x121
 1228 02c7 8E020000 		.4byte	0x28e
 1229 02cb 08       		.byte	0x8
 1230 02cc 0C       		.uleb128 0xc
 1231 02cd 723700   		.ascii	"r7\000"
 1232 02d0 08       		.byte	0x8
 1233 02d1 2201     		.2byte	0x122
 1234 02d3 8E020000 		.4byte	0x28e
 1235 02d7 0C       		.byte	0xc
 1236 02d8 0C       		.uleb128 0xc
 1237 02d9 723800   		.ascii	"r8\000"
 1238 02dc 08       		.byte	0x8
 1239 02dd 2301     		.2byte	0x123
 1240 02df 8E020000 		.4byte	0x28e
 1241 02e3 10       		.byte	0x10
 1242 02e4 0C       		.uleb128 0xc
ARM GAS  /tmp/ccLB3ATm.s 			page 23


 1243 02e5 723900   		.ascii	"r9\000"
 1244 02e8 08       		.byte	0x8
 1245 02e9 2401     		.2byte	0x124
 1246 02eb 8E020000 		.4byte	0x28e
 1247 02ef 14       		.byte	0x14
 1248 02f0 0C       		.uleb128 0xc
 1249 02f1 72313000 		.ascii	"r10\000"
 1250 02f5 08       		.byte	0x8
 1251 02f6 2501     		.2byte	0x125
 1252 02f8 8E020000 		.4byte	0x28e
 1253 02fc 18       		.byte	0x18
 1254 02fd 0C       		.uleb128 0xc
 1255 02fe 72313100 		.ascii	"r11\000"
 1256 0302 08       		.byte	0x8
 1257 0303 2601     		.2byte	0x126
 1258 0305 8E020000 		.4byte	0x28e
 1259 0309 1C       		.byte	0x1c
 1260 030a 0C       		.uleb128 0xc
 1261 030b 6C7200   		.ascii	"lr\000"
 1262 030e 08       		.byte	0x8
 1263 030f 2701     		.2byte	0x127
 1264 0311 8E020000 		.4byte	0x28e
 1265 0315 20       		.byte	0x20
 1266 0316 00       		.byte	0
 1267 0317 0B       		.uleb128 0xb
 1268 0318 2C020000 		.4byte	.LASF52
 1269 031c 04       		.byte	0x4
 1270 031d 08       		.byte	0x8
 1271 031e 3101     		.2byte	0x131
 1272 0320 32030000 		.4byte	0x332
 1273 0324 0C       		.uleb128 0xc
 1274 0325 72313300 		.ascii	"r13\000"
 1275 0329 08       		.byte	0x8
 1276 032a 3201     		.2byte	0x132
 1277 032c 32030000 		.4byte	0x332
 1278 0330 00       		.byte	0
 1279 0331 00       		.byte	0
 1280 0332 09       		.uleb128 0x9
 1281 0333 04       		.byte	0x4
 1282 0334 9B020000 		.4byte	0x29b
 1283 0338 04       		.uleb128 0x4
 1284 0339 04       		.byte	0x4
 1285 033a 07       		.byte	0x7
 1286 033b 4A030000 		.4byte	.LASF53
 1287 033f 03       		.uleb128 0x3
 1288 0340 1E020000 		.4byte	.LASF54
 1289 0344 09       		.byte	0x9
 1290 0345 58       		.byte	0x58
 1291 0346 4A030000 		.4byte	0x34a
 1292 034a 09       		.uleb128 0x9
 1293 034b 04       		.byte	0x4
 1294 034c 50030000 		.4byte	0x350
 1295 0350 0D       		.uleb128 0xd
 1296 0351 5B030000 		.4byte	0x35b
 1297 0355 0E       		.uleb128 0xe
 1298 0356 99020000 		.4byte	0x299
 1299 035a 00       		.byte	0
ARM GAS  /tmp/ccLB3ATm.s 			page 24


 1300 035b 03       		.uleb128 0x3
 1301 035c ED040000 		.4byte	.LASF55
 1302 0360 09       		.byte	0x9
 1303 0361 5D       		.byte	0x5d
 1304 0362 66030000 		.4byte	0x366
 1305 0366 05       		.uleb128 0x5
 1306 0367 ED040000 		.4byte	.LASF55
 1307 036b 14       		.byte	0x14
 1308 036c 09       		.byte	0x9
 1309 036d 64       		.byte	0x64
 1310 036e AF030000 		.4byte	0x3af
 1311 0372 06       		.uleb128 0x6
 1312 0373 D9010000 		.4byte	.LASF56
 1313 0377 09       		.byte	0x9
 1314 0378 65       		.byte	0x65
 1315 0379 AF030000 		.4byte	0x3af
 1316 037d 00       		.byte	0
 1317 037e 06       		.uleb128 0x6
 1318 037f 8E010000 		.4byte	.LASF57
 1319 0383 09       		.byte	0x9
 1320 0384 67       		.byte	0x67
 1321 0385 AF030000 		.4byte	0x3af
 1322 0389 04       		.byte	0x4
 1323 038a 06       		.uleb128 0x6
 1324 038b 37030000 		.4byte	.LASF58
 1325 038f 09       		.byte	0x9
 1326 0390 69       		.byte	0x69
 1327 0391 29010000 		.4byte	0x129
 1328 0395 08       		.byte	0x8
 1329 0396 06       		.uleb128 0x6
 1330 0397 53030000 		.4byte	.LASF59
 1331 039b 09       		.byte	0x9
 1332 039c 6A       		.byte	0x6a
 1333 039d 3F030000 		.4byte	0x33f
 1334 03a1 0C       		.byte	0xc
 1335 03a2 06       		.uleb128 0x6
 1336 03a3 3E050000 		.4byte	.LASF60
 1337 03a7 09       		.byte	0x9
 1338 03a8 6C       		.byte	0x6c
 1339 03a9 99020000 		.4byte	0x299
 1340 03ad 10       		.byte	0x10
 1341 03ae 00       		.byte	0
 1342 03af 09       		.uleb128 0x9
 1343 03b0 04       		.byte	0x4
 1344 03b1 5B030000 		.4byte	0x35b
 1345 03b5 08       		.uleb128 0x8
 1346 03b6 10       		.byte	0x10
 1347 03b7 09       		.byte	0x9
 1348 03b8 76       		.byte	0x76
 1349 03b9 EE030000 		.4byte	0x3ee
 1350 03bd 06       		.uleb128 0x6
 1351 03be D9010000 		.4byte	.LASF56
 1352 03c2 09       		.byte	0x9
 1353 03c3 77       		.byte	0x77
 1354 03c4 AF030000 		.4byte	0x3af
 1355 03c8 00       		.byte	0
 1356 03c9 06       		.uleb128 0x6
ARM GAS  /tmp/ccLB3ATm.s 			page 25


 1357 03ca 8E010000 		.4byte	.LASF57
 1358 03ce 09       		.byte	0x9
 1359 03cf 79       		.byte	0x79
 1360 03d0 AF030000 		.4byte	0x3af
 1361 03d4 04       		.byte	0x4
 1362 03d5 06       		.uleb128 0x6
 1363 03d6 37030000 		.4byte	.LASF58
 1364 03da 09       		.byte	0x9
 1365 03db 7B       		.byte	0x7b
 1366 03dc 29010000 		.4byte	0x129
 1367 03e0 08       		.byte	0x8
 1368 03e1 06       		.uleb128 0x6
 1369 03e2 B8050000 		.4byte	.LASF61
 1370 03e6 09       		.byte	0x9
 1371 03e7 7C       		.byte	0x7c
 1372 03e8 EE030000 		.4byte	0x3ee
 1373 03ec 0C       		.byte	0xc
 1374 03ed 00       		.byte	0
 1375 03ee 0F       		.uleb128 0xf
 1376 03ef 29010000 		.4byte	0x129
 1377 03f3 03       		.uleb128 0x3
 1378 03f4 CB050000 		.4byte	.LASF62
 1379 03f8 09       		.byte	0x9
 1380 03f9 7D       		.byte	0x7d
 1381 03fa B5030000 		.4byte	0x3b5
 1382 03fe 08       		.uleb128 0x8
 1383 03ff 1C       		.byte	0x1c
 1384 0400 0A       		.byte	0xa
 1385 0401 5E       		.byte	0x5e
 1386 0402 4F040000 		.4byte	0x44f
 1387 0406 06       		.uleb128 0x6
 1388 0407 E5040000 		.4byte	.LASF63
 1389 040b 0A       		.byte	0xa
 1390 040c 5F       		.byte	0x5f
 1391 040d 63020000 		.4byte	0x263
 1392 0411 00       		.byte	0
 1393 0412 06       		.uleb128 0x6
 1394 0413 94040000 		.4byte	.LASF64
 1395 0417 0A       		.byte	0xa
 1396 0418 60       		.byte	0x60
 1397 0419 F2000000 		.4byte	0xf2
 1398 041d 08       		.byte	0x8
 1399 041e 06       		.uleb128 0x6
 1400 041f 9E030000 		.4byte	.LASF65
 1401 0423 0A       		.byte	0xa
 1402 0424 62       		.byte	0x62
 1403 0425 17030000 		.4byte	0x317
 1404 0429 0C       		.byte	0xc
 1405 042a 06       		.uleb128 0x6
 1406 042b A4030000 		.4byte	.LASF66
 1407 042f 0A       		.byte	0xa
 1408 0430 65       		.byte	0x65
 1409 0431 5D020000 		.4byte	0x25d
 1410 0435 10       		.byte	0x10
 1411 0436 06       		.uleb128 0x6
 1412 0437 EC030000 		.4byte	.LASF67
 1413 043b 0A       		.byte	0xa
ARM GAS  /tmp/ccLB3ATm.s 			page 26


 1414 043c 66       		.byte	0x66
 1415 043d 5D020000 		.4byte	0x25d
 1416 0441 14       		.byte	0x14
 1417 0442 06       		.uleb128 0x6
 1418 0443 E2030000 		.4byte	.LASF68
 1419 0447 0A       		.byte	0xa
 1420 0448 69       		.byte	0x69
 1421 0449 5D020000 		.4byte	0x25d
 1422 044d 18       		.byte	0x18
 1423 044e 00       		.byte	0
 1424 044f 03       		.uleb128 0x3
 1425 0450 63050000 		.4byte	.LASF69
 1426 0454 0A       		.byte	0xa
 1427 0455 6B       		.byte	0x6b
 1428 0456 FE030000 		.4byte	0x3fe
 1429 045a 05       		.uleb128 0x5
 1430 045b 1F030000 		.4byte	.LASF70
 1431 045f 10       		.byte	0x10
 1432 0460 0B       		.byte	0xb
 1433 0461 2C       		.byte	0x2c
 1434 0462 8B040000 		.4byte	0x48b
 1435 0466 06       		.uleb128 0x6
 1436 0467 D8000000 		.4byte	.LASF71
 1437 046b 0B       		.byte	0xb
 1438 046c 2D       		.byte	0x2d
 1439 046d 63020000 		.4byte	0x263
 1440 0471 00       		.byte	0
 1441 0472 06       		.uleb128 0x6
 1442 0473 D2050000 		.4byte	.LASF72
 1443 0477 0B       		.byte	0xb
 1444 0478 2F       		.byte	0x2f
 1445 0479 5D020000 		.4byte	0x25d
 1446 047d 08       		.byte	0x8
 1447 047e 06       		.uleb128 0x6
 1448 047f FF040000 		.4byte	.LASF73
 1449 0483 0B       		.byte	0xb
 1450 0484 31       		.byte	0x31
 1451 0485 8B040000 		.4byte	0x48b
 1452 0489 0C       		.byte	0xc
 1453 048a 00       		.byte	0
 1454 048b 09       		.uleb128 0x9
 1455 048c 04       		.byte	0x4
 1456 048d 5A040000 		.4byte	0x45a
 1457 0491 03       		.uleb128 0x3
 1458 0492 1F030000 		.4byte	.LASF70
 1459 0496 0B       		.byte	0xb
 1460 0497 33       		.byte	0x33
 1461 0498 5A040000 		.4byte	0x45a
 1462 049c 03       		.uleb128 0x3
 1463 049d 7B050000 		.4byte	.LASF74
 1464 04a1 0C       		.byte	0xc
 1465 04a2 2C       		.byte	0x2c
 1466 04a3 A7040000 		.4byte	0x4a7
 1467 04a7 05       		.uleb128 0x5
 1468 04a8 7B050000 		.4byte	.LASF74
 1469 04ac 10       		.byte	0x10
 1470 04ad 0C       		.byte	0xc
ARM GAS  /tmp/ccLB3ATm.s 			page 27


 1471 04ae 31       		.byte	0x31
 1472 04af E4040000 		.4byte	0x4e4
 1473 04b3 06       		.uleb128 0x6
 1474 04b4 E7020000 		.4byte	.LASF75
 1475 04b8 0C       		.byte	0xc
 1476 04b9 32       		.byte	0x32
 1477 04ba E4040000 		.4byte	0x4e4
 1478 04be 00       		.byte	0
 1479 04bf 06       		.uleb128 0x6
 1480 04c0 44040000 		.4byte	.LASF76
 1481 04c4 0C       		.byte	0xc
 1482 04c5 35       		.byte	0x35
 1483 04c6 5D020000 		.4byte	0x25d
 1484 04ca 04       		.byte	0x4
 1485 04cb 06       		.uleb128 0x6
 1486 04cc F4030000 		.4byte	.LASF77
 1487 04d0 0C       		.byte	0xc
 1488 04d1 37       		.byte	0x37
 1489 04d2 13010000 		.4byte	0x113
 1490 04d6 08       		.byte	0x8
 1491 04d7 06       		.uleb128 0x6
 1492 04d8 5D040000 		.4byte	.LASF78
 1493 04dc 0C       		.byte	0xc
 1494 04dd 3A       		.byte	0x3a
 1495 04de 1E010000 		.4byte	0x11e
 1496 04e2 0C       		.byte	0xc
 1497 04e3 00       		.byte	0
 1498 04e4 09       		.uleb128 0x9
 1499 04e5 04       		.byte	0x4
 1500 04e6 9C040000 		.4byte	0x49c
 1501 04ea 05       		.uleb128 0x5
 1502 04eb B4010000 		.4byte	.LASF79
 1503 04ef 04       		.byte	0x4
 1504 04f0 0C       		.byte	0xc
 1505 04f1 41       		.byte	0x41
 1506 04f2 03050000 		.4byte	0x503
 1507 04f6 06       		.uleb128 0x6
 1508 04f7 C3050000 		.4byte	.LASF80
 1509 04fb 0C       		.byte	0xc
 1510 04fc 42       		.byte	0x42
 1511 04fd E4040000 		.4byte	0x4e4
 1512 0501 00       		.byte	0
 1513 0502 00       		.byte	0
 1514 0503 03       		.uleb128 0x3
 1515 0504 B4010000 		.4byte	.LASF79
 1516 0508 0C       		.byte	0xc
 1517 0509 45       		.byte	0x45
 1518 050a EA040000 		.4byte	0x4ea
 1519 050e 03       		.uleb128 0x3
 1520 050f C0010000 		.4byte	.LASF81
 1521 0513 0C       		.byte	0xc
 1522 0514 4A       		.byte	0x4a
 1523 0515 19050000 		.4byte	0x519
 1524 0519 09       		.uleb128 0x9
 1525 051a 04       		.byte	0x4
 1526 051b 1F050000 		.4byte	0x51f
 1527 051f 0D       		.uleb128 0xd
ARM GAS  /tmp/ccLB3ATm.s 			page 28


 1528 0520 2A050000 		.4byte	0x52a
 1529 0524 0E       		.uleb128 0xe
 1530 0525 08010000 		.4byte	0x108
 1531 0529 00       		.byte	0
 1532 052a 10       		.uleb128 0x10
 1533 052b 04       		.byte	0x4
 1534 052c 07       		.byte	0x7
 1535 052d 96       		.byte	0x96
 1536 052e 5F050000 		.4byte	0x55f
 1537 0532 11       		.uleb128 0x11
 1538 0533 20000000 		.4byte	.LASF82
 1539 0537 07       		.byte	0x7
 1540 0538 9D       		.byte	0x9d
 1541 0539 FD000000 		.4byte	0xfd
 1542 053d 11       		.uleb128 0x11
 1543 053e 6A000000 		.4byte	.LASF83
 1544 0542 07       		.byte	0x7
 1545 0543 A4       		.byte	0xa4
 1546 0544 FD000000 		.4byte	0xfd
 1547 0548 11       		.uleb128 0x11
 1548 0549 9D050000 		.4byte	.LASF84
 1549 054d 07       		.byte	0x7
 1550 054e AB       		.byte	0xab
 1551 054f 99020000 		.4byte	0x299
 1552 0553 11       		.uleb128 0x11
 1553 0554 9B040000 		.4byte	.LASF85
 1554 0558 07       		.byte	0x7
 1555 0559 B2       		.byte	0xb2
 1556 055a 13010000 		.4byte	0x113
 1557 055e 00       		.byte	0
 1558 055f 09       		.uleb128 0x9
 1559 0560 04       		.byte	0x4
 1560 0561 65050000 		.4byte	0x565
 1561 0565 12       		.uleb128 0x12
 1562 0566 6A050000 		.4byte	0x56a
 1563 056a 04       		.uleb128 0x4
 1564 056b 01       		.byte	0x1
 1565 056c 08       		.byte	0x8
 1566 056d FA040000 		.4byte	.LASF86
 1567 0571 09       		.uleb128 0x9
 1568 0572 04       		.byte	0x4
 1569 0573 91040000 		.4byte	0x491
 1570 0577 03       		.uleb128 0x3
 1571 0578 00000000 		.4byte	.LASF87
 1572 057c 07       		.byte	0x7
 1573 057d E5       		.byte	0xe5
 1574 057e 82050000 		.4byte	0x582
 1575 0582 09       		.uleb128 0x9
 1576 0583 04       		.byte	0x4
 1577 0584 88050000 		.4byte	0x588
 1578 0588 13       		.uleb128 0x13
 1579 0589 FD000000 		.4byte	0xfd
 1580 058d 97050000 		.4byte	0x597
 1581 0591 0E       		.uleb128 0xe
 1582 0592 99020000 		.4byte	0x299
 1583 0596 00       		.byte	0
 1584 0597 05       		.uleb128 0x5
ARM GAS  /tmp/ccLB3ATm.s 			page 29


 1585 0598 B8040000 		.4byte	.LASF88
 1586 059c 10       		.byte	0x10
 1587 059d 0D       		.byte	0xd
 1588 059e 3B       		.byte	0x3b
 1589 059f D4050000 		.4byte	0x5d4
 1590 05a3 06       		.uleb128 0x6
 1591 05a4 27020000 		.4byte	.LASF89
 1592 05a8 0D       		.byte	0xd
 1593 05a9 3C       		.byte	0x3c
 1594 05aa 5F050000 		.4byte	0x55f
 1595 05ae 00       		.byte	0
 1596 05af 06       		.uleb128 0x6
 1597 05b0 B9030000 		.4byte	.LASF90
 1598 05b4 0D       		.byte	0xd
 1599 05b5 3D       		.byte	0x3d
 1600 05b6 D5050000 		.4byte	0x5d5
 1601 05ba 04       		.byte	0x4
 1602 05bb 06       		.uleb128 0x6
 1603 05bc 0A020000 		.4byte	.LASF91
 1604 05c0 0D       		.byte	0xd
 1605 05c1 3E       		.byte	0x3e
 1606 05c2 D5050000 		.4byte	0x5d5
 1607 05c6 08       		.byte	0x8
 1608 05c7 06       		.uleb128 0x6
 1609 05c8 0B040000 		.4byte	.LASF92
 1610 05cc 0D       		.byte	0xd
 1611 05cd 3F       		.byte	0x3f
 1612 05ce D5050000 		.4byte	0x5d5
 1613 05d2 0C       		.byte	0xc
 1614 05d3 00       		.byte	0
 1615 05d4 14       		.uleb128 0x14
 1616 05d5 09       		.uleb128 0x9
 1617 05d6 04       		.byte	0x4
 1618 05d7 D4050000 		.4byte	0x5d4
 1619 05db 15       		.uleb128 0x15
 1620 05dc 50040000 		.4byte	.LASF130
 1621 05e0 01       		.byte	0x1
 1622 05e1 FC       		.byte	0xfc
 1623 05e2 01       		.byte	0x1
 1624 05e3 F1050000 		.4byte	0x5f1
 1625 05e7 16       		.uleb128 0x16
 1626 05e8 6D00     		.ascii	"m\000"
 1627 05ea 01       		.byte	0x1
 1628 05eb FD       		.byte	0xfd
 1629 05ec 13010000 		.4byte	0x113
 1630 05f0 00       		.byte	0
 1631 05f1 17       		.uleb128 0x17
 1632 05f2 E9050000 		.4byte	.LASF93
 1633 05f6 01       		.byte	0x1
 1634 05f7 55       		.byte	0x55
 1635 05f8 00000000 		.4byte	.LFB11
 1636 05fc 88000000 		.4byte	.LFE11-.LFB11
 1637 0600 01       		.uleb128 0x1
 1638 0601 9C       		.byte	0x9c
 1639 0602 02070000 		.4byte	0x702
 1640 0606 18       		.uleb128 0x18
 1641 0607 656C3100 		.ascii	"el1\000"
ARM GAS  /tmp/ccLB3ATm.s 			page 30


 1642 060b 01       		.byte	0x1
 1643 060c 56       		.byte	0x56
 1644 060d 9C040000 		.4byte	0x49c
 1645 0611 02       		.uleb128 0x2
 1646 0612 91       		.byte	0x91
 1647 0613 58       		.sleb128 -40
 1648 0614 18       		.uleb128 0x18
 1649 0615 656C3200 		.ascii	"el2\000"
 1650 0619 01       		.byte	0x1
 1651 061a 56       		.byte	0x56
 1652 061b 9C040000 		.4byte	0x49c
 1653 061f 02       		.uleb128 0x2
 1654 0620 91       		.byte	0x91
 1655 0621 68       		.sleb128 -24
 1656 0622 19       		.uleb128 0x19
 1657 0623 18000000 		.4byte	.LVL0
 1658 0627 BB0E0000 		.4byte	0xebb
 1659 062b 41060000 		.4byte	0x641
 1660 062f 1A       		.uleb128 0x1a
 1661 0630 01       		.uleb128 0x1
 1662 0631 52       		.byte	0x52
 1663 0632 01       		.uleb128 0x1
 1664 0633 31       		.byte	0x31
 1665 0634 1A       		.uleb128 0x1a
 1666 0635 01       		.uleb128 0x1
 1667 0636 51       		.byte	0x51
 1668 0637 02       		.uleb128 0x2
 1669 0638 7D       		.byte	0x7d
 1670 0639 00       		.sleb128 0
 1671 063a 1A       		.uleb128 0x1a
 1672 063b 01       		.uleb128 0x1
 1673 063c 50       		.byte	0x50
 1674 063d 02       		.uleb128 0x2
 1675 063e 74       		.byte	0x74
 1676 063f 00       		.sleb128 0
 1677 0640 00       		.byte	0
 1678 0641 19       		.uleb128 0x19
 1679 0642 22000000 		.4byte	.LVL1
 1680 0646 BB0E0000 		.4byte	0xebb
 1681 064a 60060000 		.4byte	0x660
 1682 064e 1A       		.uleb128 0x1a
 1683 064f 01       		.uleb128 0x1
 1684 0650 52       		.byte	0x52
 1685 0651 01       		.uleb128 0x1
 1686 0652 32       		.byte	0x32
 1687 0653 1A       		.uleb128 0x1a
 1688 0654 01       		.uleb128 0x1
 1689 0655 51       		.byte	0x51
 1690 0656 02       		.uleb128 0x2
 1691 0657 91       		.byte	0x91
 1692 0658 68       		.sleb128 -24
 1693 0659 1A       		.uleb128 0x1a
 1694 065a 01       		.uleb128 0x1
 1695 065b 50       		.byte	0x50
 1696 065c 02       		.uleb128 0x2
 1697 065d 74       		.byte	0x74
 1698 065e 00       		.sleb128 0
ARM GAS  /tmp/ccLB3ATm.s 			page 31


 1699 065f 00       		.byte	0
 1700 0660 19       		.uleb128 0x19
 1701 0661 30000000 		.4byte	.LVL2
 1702 0665 DC0E0000 		.4byte	0xedc
 1703 0669 73060000 		.4byte	0x673
 1704 066d 1A       		.uleb128 0x1a
 1705 066e 01       		.uleb128 0x1
 1706 066f 50       		.byte	0x50
 1707 0670 01       		.uleb128 0x1
 1708 0671 31       		.byte	0x31
 1709 0672 00       		.byte	0
 1710 0673 19       		.uleb128 0x19
 1711 0674 3E000000 		.4byte	.LVL3
 1712 0678 F60E0000 		.4byte	0xef6
 1713 067c 8D060000 		.4byte	0x68d
 1714 0680 1A       		.uleb128 0x1a
 1715 0681 01       		.uleb128 0x1
 1716 0682 51       		.byte	0x51
 1717 0683 02       		.uleb128 0x2
 1718 0684 7D       		.byte	0x7d
 1719 0685 00       		.sleb128 0
 1720 0686 1A       		.uleb128 0x1a
 1721 0687 01       		.uleb128 0x1
 1722 0688 50       		.byte	0x50
 1723 0689 02       		.uleb128 0x2
 1724 068a 74       		.byte	0x74
 1725 068b 00       		.sleb128 0
 1726 068c 00       		.byte	0
 1727 068d 19       		.uleb128 0x19
 1728 068e 4C000000 		.4byte	.LVL4
 1729 0692 DC0E0000 		.4byte	0xedc
 1730 0696 A0060000 		.4byte	0x6a0
 1731 069a 1A       		.uleb128 0x1a
 1732 069b 01       		.uleb128 0x1
 1733 069c 50       		.byte	0x50
 1734 069d 01       		.uleb128 0x1
 1735 069e 32       		.byte	0x32
 1736 069f 00       		.byte	0
 1737 06a0 19       		.uleb128 0x19
 1738 06a1 58000000 		.4byte	.LVL5
 1739 06a5 F60E0000 		.4byte	0xef6
 1740 06a9 BA060000 		.4byte	0x6ba
 1741 06ad 1A       		.uleb128 0x1a
 1742 06ae 01       		.uleb128 0x1
 1743 06af 51       		.byte	0x51
 1744 06b0 02       		.uleb128 0x2
 1745 06b1 91       		.byte	0x91
 1746 06b2 68       		.sleb128 -24
 1747 06b3 1A       		.uleb128 0x1a
 1748 06b4 01       		.uleb128 0x1
 1749 06b5 50       		.byte	0x50
 1750 06b6 02       		.uleb128 0x2
 1751 06b7 74       		.byte	0x74
 1752 06b8 00       		.sleb128 0
 1753 06b9 00       		.byte	0
 1754 06ba 19       		.uleb128 0x19
 1755 06bb 66000000 		.4byte	.LVL6
ARM GAS  /tmp/ccLB3ATm.s 			page 32


 1756 06bf DC0E0000 		.4byte	0xedc
 1757 06c3 CD060000 		.4byte	0x6cd
 1758 06c7 1A       		.uleb128 0x1a
 1759 06c8 01       		.uleb128 0x1
 1760 06c9 50       		.byte	0x50
 1761 06ca 01       		.uleb128 0x1
 1762 06cb 33       		.byte	0x33
 1763 06cc 00       		.byte	0
 1764 06cd 19       		.uleb128 0x19
 1765 06ce 78000000 		.4byte	.LVL7
 1766 06d2 0C0F0000 		.4byte	0xf0c
 1767 06d6 E9060000 		.4byte	0x6e9
 1768 06da 1A       		.uleb128 0x1a
 1769 06db 01       		.uleb128 0x1
 1770 06dc 51       		.byte	0x51
 1771 06dd 01       		.uleb128 0x1
 1772 06de 37       		.byte	0x37
 1773 06df 1A       		.uleb128 0x1a
 1774 06e0 01       		.uleb128 0x1
 1775 06e1 50       		.byte	0x50
 1776 06e2 05       		.uleb128 0x5
 1777 06e3 03       		.byte	0x3
 1778 06e4 00000000 		.4byte	.LANCHOR1
 1779 06e8 00       		.byte	0
 1780 06e9 1B       		.uleb128 0x1b
 1781 06ea 86000000 		.4byte	.LVL8
 1782 06ee 2D0F0000 		.4byte	0xf2d
 1783 06f2 1A       		.uleb128 0x1a
 1784 06f3 01       		.uleb128 0x1
 1785 06f4 51       		.byte	0x51
 1786 06f5 05       		.uleb128 0x5
 1787 06f6 03       		.byte	0x3
 1788 06f7 00000000 		.4byte	.LC0
 1789 06fb 1A       		.uleb128 0x1a
 1790 06fc 01       		.uleb128 0x1
 1791 06fd 50       		.byte	0x50
 1792 06fe 01       		.uleb128 0x1
 1793 06ff 34       		.byte	0x34
 1794 0700 00       		.byte	0
 1795 0701 00       		.byte	0
 1796 0702 1C       		.uleb128 0x1c
 1797 0703 683300   		.ascii	"h3\000"
 1798 0706 01       		.byte	0x1
 1799 0707 52       		.byte	0x52
 1800 0708 00000000 		.4byte	.LFB10
 1801 070c 06000000 		.4byte	.LFE10-.LFB10
 1802 0710 01       		.uleb128 0x1
 1803 0711 9C       		.byte	0x9c
 1804 0712 35070000 		.4byte	0x735
 1805 0716 1D       		.uleb128 0x1d
 1806 0717 696400   		.ascii	"id\000"
 1807 071a 01       		.byte	0x1
 1808 071b 52       		.byte	0x52
 1809 071c 08010000 		.4byte	0x108
 1810 0720 00000000 		.4byte	.LLST0
 1811 0724 1E       		.uleb128 0x1e
 1812 0725 06000000 		.4byte	.LVL11
ARM GAS  /tmp/ccLB3ATm.s 			page 33


 1813 0729 4D0F0000 		.4byte	0xf4d
 1814 072d 1A       		.uleb128 0x1a
 1815 072e 01       		.uleb128 0x1
 1816 072f 50       		.byte	0x50
 1817 0730 02       		.uleb128 0x2
 1818 0731 08       		.byte	0x8
 1819 0732 43       		.byte	0x43
 1820 0733 00       		.byte	0
 1821 0734 00       		.byte	0
 1822 0735 1C       		.uleb128 0x1c
 1823 0736 683200   		.ascii	"h2\000"
 1824 0739 01       		.byte	0x1
 1825 073a 51       		.byte	0x51
 1826 073b 00000000 		.4byte	.LFB9
 1827 073f 06000000 		.4byte	.LFE9-.LFB9
 1828 0743 01       		.uleb128 0x1
 1829 0744 9C       		.byte	0x9c
 1830 0745 68070000 		.4byte	0x768
 1831 0749 1D       		.uleb128 0x1d
 1832 074a 696400   		.ascii	"id\000"
 1833 074d 01       		.byte	0x1
 1834 074e 51       		.byte	0x51
 1835 074f 08010000 		.4byte	0x108
 1836 0753 21000000 		.4byte	.LLST1
 1837 0757 1E       		.uleb128 0x1e
 1838 0758 06000000 		.4byte	.LVL14
 1839 075c 4D0F0000 		.4byte	0xf4d
 1840 0760 1A       		.uleb128 0x1a
 1841 0761 01       		.uleb128 0x1
 1842 0762 50       		.byte	0x50
 1843 0763 02       		.uleb128 0x2
 1844 0764 08       		.byte	0x8
 1845 0765 42       		.byte	0x42
 1846 0766 00       		.byte	0
 1847 0767 00       		.byte	0
 1848 0768 1C       		.uleb128 0x1c
 1849 0769 683100   		.ascii	"h1\000"
 1850 076c 01       		.byte	0x1
 1851 076d 50       		.byte	0x50
 1852 076e 00000000 		.4byte	.LFB8
 1853 0772 06000000 		.4byte	.LFE8-.LFB8
 1854 0776 01       		.uleb128 0x1
 1855 0777 9C       		.byte	0x9c
 1856 0778 9B070000 		.4byte	0x79b
 1857 077c 1D       		.uleb128 0x1d
 1858 077d 696400   		.ascii	"id\000"
 1859 0780 01       		.byte	0x1
 1860 0781 50       		.byte	0x50
 1861 0782 08010000 		.4byte	0x108
 1862 0786 42000000 		.4byte	.LLST2
 1863 078a 1E       		.uleb128 0x1e
 1864 078b 06000000 		.4byte	.LVL17
 1865 078f 4D0F0000 		.4byte	0xf4d
 1866 0793 1A       		.uleb128 0x1a
 1867 0794 01       		.uleb128 0x1
 1868 0795 50       		.byte	0x50
 1869 0796 02       		.uleb128 0x2
ARM GAS  /tmp/ccLB3ATm.s 			page 34


 1870 0797 08       		.byte	0x8
 1871 0798 41       		.byte	0x41
 1872 0799 00       		.byte	0
 1873 079a 00       		.byte	0
 1874 079b 17       		.uleb128 0x17
 1875 079c 3F030000 		.4byte	.LASF94
 1876 07a0 01       		.byte	0x1
 1877 07a1 4B       		.byte	0x4b
 1878 07a2 00000000 		.4byte	.LFB7
 1879 07a6 08000000 		.4byte	.LFE7-.LFB7
 1880 07aa 01       		.uleb128 0x1
 1881 07ab 9C       		.byte	0x9c
 1882 07ac C1070000 		.4byte	0x7c1
 1883 07b0 1E       		.uleb128 0x1e
 1884 07b1 08000000 		.4byte	.LVL18
 1885 07b5 5E0F0000 		.4byte	0xf5e
 1886 07b9 1A       		.uleb128 0x1a
 1887 07ba 01       		.uleb128 0x1
 1888 07bb 50       		.byte	0x50
 1889 07bc 02       		.uleb128 0x2
 1890 07bd 09       		.byte	0x9
 1891 07be FF       		.byte	0xff
 1892 07bf 00       		.byte	0
 1893 07c0 00       		.byte	0
 1894 07c1 17       		.uleb128 0x17
 1895 07c2 08000000 		.4byte	.LASF95
 1896 07c6 01       		.byte	0x1
 1897 07c7 80       		.byte	0x80
 1898 07c8 00000000 		.4byte	.LFB12
 1899 07cc 08000000 		.4byte	.LFE12-.LFB12
 1900 07d0 01       		.uleb128 0x1
 1901 07d1 9C       		.byte	0x9c
 1902 07d2 E7070000 		.4byte	0x7e7
 1903 07d6 1E       		.uleb128 0x1e
 1904 07d7 08000000 		.4byte	.LVL19
 1905 07db 5E0F0000 		.4byte	0xf5e
 1906 07df 1A       		.uleb128 0x1a
 1907 07e0 01       		.uleb128 0x1
 1908 07e1 50       		.byte	0x50
 1909 07e2 02       		.uleb128 0x2
 1910 07e3 09       		.byte	0x9
 1911 07e4 FF       		.byte	0xff
 1912 07e5 00       		.byte	0
 1913 07e6 00       		.byte	0
 1914 07e7 17       		.uleb128 0x17
 1915 07e8 69030000 		.4byte	.LASF96
 1916 07ec 01       		.byte	0x1
 1917 07ed F7       		.byte	0xf7
 1918 07ee 00000000 		.4byte	.LFB16
 1919 07f2 08000000 		.4byte	.LFE16-.LFB16
 1920 07f6 01       		.uleb128 0x1
 1921 07f7 9C       		.byte	0x9c
 1922 07f8 0D080000 		.4byte	0x80d
 1923 07fc 1E       		.uleb128 0x1e
 1924 07fd 08000000 		.4byte	.LVL20
 1925 0801 5E0F0000 		.4byte	0xf5e
 1926 0805 1A       		.uleb128 0x1a
ARM GAS  /tmp/ccLB3ATm.s 			page 35


 1927 0806 01       		.uleb128 0x1
 1928 0807 50       		.byte	0x50
 1929 0808 02       		.uleb128 0x2
 1930 0809 09       		.byte	0x9
 1931 080a FF       		.byte	0xff
 1932 080b 00       		.byte	0
 1933 080c 00       		.byte	0
 1934 080d 17       		.uleb128 0x17
 1935 080e 8E000000 		.4byte	.LASF97
 1936 0812 01       		.byte	0x1
 1937 0813 95       		.byte	0x95
 1938 0814 00000000 		.4byte	.LFB15
 1939 0818 7E020000 		.4byte	.LFE15-.LFB15
 1940 081c 01       		.uleb128 0x1
 1941 081d 9C       		.byte	0x9c
 1942 081e DD0B0000 		.4byte	0xbdd
 1943 0822 1F       		.uleb128 0x1f
 1944 0823 6D00     		.ascii	"m\000"
 1945 0825 01       		.byte	0x1
 1946 0826 96       		.byte	0x96
 1947 0827 13010000 		.4byte	0x113
 1948 082b 63000000 		.4byte	.LLST3
 1949 082f 18       		.uleb128 0x18
 1950 0830 656C3100 		.ascii	"el1\000"
 1951 0834 01       		.byte	0x1
 1952 0835 97       		.byte	0x97
 1953 0836 9C040000 		.4byte	0x49c
 1954 083a 02       		.uleb128 0x2
 1955 083b 91       		.byte	0x91
 1956 083c 40       		.sleb128 -64
 1957 083d 18       		.uleb128 0x18
 1958 083e 656C3200 		.ascii	"el2\000"
 1959 0842 01       		.byte	0x1
 1960 0843 97       		.byte	0x97
 1961 0844 9C040000 		.4byte	0x49c
 1962 0848 02       		.uleb128 0x2
 1963 0849 91       		.byte	0x91
 1964 084a 50       		.sleb128 -48
 1965 084b 20       		.uleb128 0x20
 1966 084c 25010000 		.4byte	.LASF98
 1967 0850 01       		.byte	0x1
 1968 0851 98       		.byte	0x98
 1969 0852 29010000 		.4byte	0x129
 1970 0856 23010000 		.4byte	.LLST4
 1971 085a 19       		.uleb128 0x19
 1972 085b 0C000000 		.4byte	.LVL21
 1973 085f 730F0000 		.4byte	0xf73
 1974 0863 6D080000 		.4byte	0x86d
 1975 0867 1A       		.uleb128 0x1a
 1976 0868 01       		.uleb128 0x1
 1977 0869 50       		.byte	0x50
 1978 086a 01       		.uleb128 0x1
 1979 086b 35       		.byte	0x35
 1980 086c 00       		.byte	0
 1981 086d 19       		.uleb128 0x19
 1982 086e 14000000 		.4byte	.LVL22
 1983 0872 880F0000 		.4byte	0xf88
ARM GAS  /tmp/ccLB3ATm.s 			page 36


 1984 0876 81080000 		.4byte	0x881
 1985 087a 1A       		.uleb128 0x1a
 1986 087b 01       		.uleb128 0x1
 1987 087c 50       		.byte	0x50
 1988 087d 02       		.uleb128 0x2
 1989 087e 09       		.byte	0x9
 1990 087f FF       		.byte	0xff
 1991 0880 00       		.byte	0
 1992 0881 19       		.uleb128 0x19
 1993 0882 26000000 		.4byte	.LVL24
 1994 0886 DC0E0000 		.4byte	0xedc
 1995 088a 9C080000 		.4byte	0x89c
 1996 088e 1A       		.uleb128 0x1a
 1997 088f 01       		.uleb128 0x1
 1998 0890 51       		.byte	0x51
 1999 0891 04       		.uleb128 0x4
 2000 0892 79       		.byte	0x79
 2001 0893 00       		.sleb128 0
 2002 0894 30       		.byte	0x30
 2003 0895 29       		.byte	0x29
 2004 0896 1A       		.uleb128 0x1a
 2005 0897 01       		.uleb128 0x1
 2006 0898 50       		.byte	0x50
 2007 0899 01       		.uleb128 0x1
 2008 089a 31       		.byte	0x31
 2009 089b 00       		.byte	0
 2010 089c 19       		.uleb128 0x19
 2011 089d 36000000 		.4byte	.LVL27
 2012 08a1 880F0000 		.4byte	0xf88
 2013 08a5 B0080000 		.4byte	0x8b0
 2014 08a9 1A       		.uleb128 0x1a
 2015 08aa 01       		.uleb128 0x1
 2016 08ab 50       		.byte	0x50
 2017 08ac 02       		.uleb128 0x2
 2018 08ad 09       		.byte	0x9
 2019 08ae FF       		.byte	0xff
 2020 08af 00       		.byte	0
 2021 08b0 19       		.uleb128 0x19
 2022 08b1 48000000 		.4byte	.LVL29
 2023 08b5 DC0E0000 		.4byte	0xedc
 2024 08b9 CB080000 		.4byte	0x8cb
 2025 08bd 1A       		.uleb128 0x1a
 2026 08be 01       		.uleb128 0x1
 2027 08bf 51       		.byte	0x51
 2028 08c0 04       		.uleb128 0x4
 2029 08c1 78       		.byte	0x78
 2030 08c2 00       		.sleb128 0
 2031 08c3 30       		.byte	0x30
 2032 08c4 29       		.byte	0x29
 2033 08c5 1A       		.uleb128 0x1a
 2034 08c6 01       		.uleb128 0x1
 2035 08c7 50       		.byte	0x50
 2036 08c8 01       		.uleb128 0x1
 2037 08c9 32       		.byte	0x32
 2038 08ca 00       		.byte	0
 2039 08cb 19       		.uleb128 0x19
 2040 08cc 54000000 		.4byte	.LVL30
ARM GAS  /tmp/ccLB3ATm.s 			page 37


 2041 08d0 5E0F0000 		.4byte	0xf5e
 2042 08d4 DF080000 		.4byte	0x8df
 2043 08d8 1A       		.uleb128 0x1a
 2044 08d9 01       		.uleb128 0x1
 2045 08da 50       		.byte	0x50
 2046 08db 02       		.uleb128 0x2
 2047 08dc 09       		.byte	0x9
 2048 08dd FF       		.byte	0xff
 2049 08de 00       		.byte	0
 2050 08df 19       		.uleb128 0x19
 2051 08e0 62000000 		.4byte	.LVL32
 2052 08e4 DC0E0000 		.4byte	0xedc
 2053 08e8 F2080000 		.4byte	0x8f2
 2054 08ec 1A       		.uleb128 0x1a
 2055 08ed 01       		.uleb128 0x1
 2056 08ee 50       		.byte	0x50
 2057 08ef 01       		.uleb128 0x1
 2058 08f0 33       		.byte	0x33
 2059 08f1 00       		.byte	0
 2060 08f2 21       		.uleb128 0x21
 2061 08f3 6E000000 		.4byte	.LVL33
 2062 08f7 9D0F0000 		.4byte	0xf9d
 2063 08fb 19       		.uleb128 0x19
 2064 08fc A2000000 		.4byte	.LVL35
 2065 0900 A80F0000 		.4byte	0xfa8
 2066 0904 19090000 		.4byte	0x919
 2067 0908 1A       		.uleb128 0x1a
 2068 0909 01       		.uleb128 0x1
 2069 090a 53       		.byte	0x53
 2070 090b 05       		.uleb128 0x5
 2071 090c 03       		.byte	0x3
 2072 090d 00000000 		.4byte	thread1
 2073 0911 1A       		.uleb128 0x1a
 2074 0912 01       		.uleb128 0x1
 2075 0913 51       		.byte	0x51
 2076 0914 03       		.uleb128 0x3
 2077 0915 0A       		.byte	0xa
 2078 0916 5001     		.2byte	0x150
 2079 0918 00       		.byte	0
 2080 0919 19       		.uleb128 0x19
 2081 091a B4000000 		.4byte	.LVL36
 2082 091e 880F0000 		.4byte	0xf88
 2083 0922 2D090000 		.4byte	0x92d
 2084 0926 1A       		.uleb128 0x1a
 2085 0927 01       		.uleb128 0x1
 2086 0928 50       		.byte	0x50
 2087 0929 02       		.uleb128 0x2
 2088 092a 09       		.byte	0x9
 2089 092b FF       		.byte	0xff
 2090 092c 00       		.byte	0
 2091 092d 19       		.uleb128 0x19
 2092 092e C4000000 		.4byte	.LVL40
 2093 0932 D20F0000 		.4byte	0xfd2
 2094 0936 4C090000 		.4byte	0x94c
 2095 093a 1A       		.uleb128 0x1a
 2096 093b 01       		.uleb128 0x1
 2097 093c 52       		.byte	0x52
ARM GAS  /tmp/ccLB3ATm.s 			page 38


 2098 093d 02       		.uleb128 0x2
 2099 093e 77       		.byte	0x77
 2100 093f 37       		.sleb128 55
 2101 0940 1A       		.uleb128 0x1a
 2102 0941 01       		.uleb128 0x1
 2103 0942 51       		.byte	0x51
 2104 0943 02       		.uleb128 0x2
 2105 0944 77       		.byte	0x77
 2106 0945 32       		.sleb128 50
 2107 0946 1A       		.uleb128 0x1a
 2108 0947 01       		.uleb128 0x1
 2109 0948 50       		.byte	0x50
 2110 0949 01       		.uleb128 0x1
 2111 094a 34       		.byte	0x34
 2112 094b 00       		.byte	0
 2113 094c 19       		.uleb128 0x19
 2114 094d DA000000 		.4byte	.LVL41
 2115 0951 DC0E0000 		.4byte	0xedc
 2116 0955 67090000 		.4byte	0x967
 2117 0959 1A       		.uleb128 0x1a
 2118 095a 01       		.uleb128 0x1
 2119 095b 51       		.byte	0x51
 2120 095c 04       		.uleb128 0x4
 2121 095d 79       		.byte	0x79
 2122 095e 00       		.sleb128 0
 2123 095f 31       		.byte	0x31
 2124 0960 29       		.byte	0x29
 2125 0961 1A       		.uleb128 0x1a
 2126 0962 01       		.uleb128 0x1
 2127 0963 50       		.byte	0x50
 2128 0964 01       		.uleb128 0x1
 2129 0965 35       		.byte	0x35
 2130 0966 00       		.byte	0
 2131 0967 19       		.uleb128 0x19
 2132 0968 E6000000 		.4byte	.LVL42
 2133 096c 5E0F0000 		.4byte	0xf5e
 2134 0970 7B090000 		.4byte	0x97b
 2135 0974 1A       		.uleb128 0x1a
 2136 0975 01       		.uleb128 0x1
 2137 0976 50       		.byte	0x50
 2138 0977 02       		.uleb128 0x2
 2139 0978 09       		.byte	0x9
 2140 0979 FF       		.byte	0xff
 2141 097a 00       		.byte	0
 2142 097b 19       		.uleb128 0x19
 2143 097c F4000000 		.4byte	.LVL44
 2144 0980 DC0E0000 		.4byte	0xedc
 2145 0984 8E090000 		.4byte	0x98e
 2146 0988 1A       		.uleb128 0x1a
 2147 0989 01       		.uleb128 0x1
 2148 098a 50       		.byte	0x50
 2149 098b 01       		.uleb128 0x1
 2150 098c 36       		.byte	0x36
 2151 098d 00       		.byte	0
 2152 098e 21       		.uleb128 0x21
 2153 098f FC000000 		.4byte	.LVL45
 2154 0993 F10F0000 		.4byte	0xff1
ARM GAS  /tmp/ccLB3ATm.s 			page 39


 2155 0997 19       		.uleb128 0x19
 2156 0998 02010000 		.4byte	.LVL46
 2157 099c 730F0000 		.4byte	0xf73
 2158 09a0 AA090000 		.4byte	0x9aa
 2159 09a4 1A       		.uleb128 0x1a
 2160 09a5 01       		.uleb128 0x1
 2161 09a6 50       		.byte	0x50
 2162 09a7 01       		.uleb128 0x1
 2163 09a8 35       		.byte	0x35
 2164 09a9 00       		.byte	0
 2165 09aa 19       		.uleb128 0x19
 2166 09ab 0A010000 		.4byte	.LVL47
 2167 09af F80F0000 		.4byte	0xff8
 2168 09b3 BE090000 		.4byte	0x9be
 2169 09b7 1A       		.uleb128 0x1a
 2170 09b8 01       		.uleb128 0x1
 2171 09b9 50       		.byte	0x50
 2172 09ba 02       		.uleb128 0x2
 2173 09bb 09       		.byte	0x9
 2174 09bc FF       		.byte	0xff
 2175 09bd 00       		.byte	0
 2176 09be 19       		.uleb128 0x19
 2177 09bf 1C010000 		.4byte	.LVL49
 2178 09c3 DC0E0000 		.4byte	0xedc
 2179 09c7 D1090000 		.4byte	0x9d1
 2180 09cb 1A       		.uleb128 0x1a
 2181 09cc 01       		.uleb128 0x1
 2182 09cd 50       		.byte	0x50
 2183 09ce 01       		.uleb128 0x1
 2184 09cf 37       		.byte	0x37
 2185 09d0 00       		.byte	0
 2186 09d1 19       		.uleb128 0x19
 2187 09d2 28010000 		.4byte	.LVL50
 2188 09d6 5E0F0000 		.4byte	0xf5e
 2189 09da E5090000 		.4byte	0x9e5
 2190 09de 1A       		.uleb128 0x1a
 2191 09df 01       		.uleb128 0x1
 2192 09e0 50       		.byte	0x50
 2193 09e1 02       		.uleb128 0x2
 2194 09e2 09       		.byte	0x9
 2195 09e3 FF       		.byte	0xff
 2196 09e4 00       		.byte	0
 2197 09e5 19       		.uleb128 0x19
 2198 09e6 36010000 		.4byte	.LVL52
 2199 09ea DC0E0000 		.4byte	0xedc
 2200 09ee F8090000 		.4byte	0x9f8
 2201 09f2 1A       		.uleb128 0x1a
 2202 09f3 01       		.uleb128 0x1
 2203 09f4 50       		.byte	0x50
 2204 09f5 01       		.uleb128 0x1
 2205 09f6 38       		.byte	0x38
 2206 09f7 00       		.byte	0
 2207 09f8 21       		.uleb128 0x21
 2208 09f9 40010000 		.4byte	.LVL53
 2209 09fd 9D0F0000 		.4byte	0xf9d
 2210 0a01 19       		.uleb128 0x19
 2211 0a02 5E010000 		.4byte	.LVL55
ARM GAS  /tmp/ccLB3ATm.s 			page 40


 2212 0a06 A80F0000 		.4byte	0xfa8
 2213 0a0a 270A0000 		.4byte	0xa27
 2214 0a0e 1A       		.uleb128 0x1a
 2215 0a0f 01       		.uleb128 0x1
 2216 0a10 53       		.byte	0x53
 2217 0a11 05       		.uleb128 0x5
 2218 0a12 03       		.byte	0x3
 2219 0a13 00000000 		.4byte	thread1
 2220 0a17 1A       		.uleb128 0x1a
 2221 0a18 01       		.uleb128 0x1
 2222 0a19 51       		.byte	0x51
 2223 0a1a 03       		.uleb128 0x3
 2224 0a1b 0A       		.byte	0xa
 2225 0a1c 5001     		.2byte	0x150
 2226 0a1e 1A       		.uleb128 0x1a
 2227 0a1f 01       		.uleb128 0x1
 2228 0a20 50       		.byte	0x50
 2229 0a21 04       		.uleb128 0x4
 2230 0a22 91       		.byte	0x91
 2231 0a23 BC7F     		.sleb128 -68
 2232 0a25 06       		.byte	0x6
 2233 0a26 00       		.byte	0
 2234 0a27 19       		.uleb128 0x19
 2235 0a28 68010000 		.4byte	.LVL56
 2236 0a2c F80F0000 		.4byte	0xff8
 2237 0a30 3B0A0000 		.4byte	0xa3b
 2238 0a34 1A       		.uleb128 0x1a
 2239 0a35 01       		.uleb128 0x1
 2240 0a36 50       		.byte	0x50
 2241 0a37 02       		.uleb128 0x2
 2242 0a38 09       		.byte	0x9
 2243 0a39 FF       		.byte	0xff
 2244 0a3a 00       		.byte	0
 2245 0a3b 19       		.uleb128 0x19
 2246 0a3c 78010000 		.4byte	.LVL60
 2247 0a40 D20F0000 		.4byte	0xfd2
 2248 0a44 5A0A0000 		.4byte	0xa5a
 2249 0a48 1A       		.uleb128 0x1a
 2250 0a49 01       		.uleb128 0x1
 2251 0a4a 52       		.byte	0x52
 2252 0a4b 02       		.uleb128 0x2
 2253 0a4c 78       		.byte	0x78
 2254 0a4d 37       		.sleb128 55
 2255 0a4e 1A       		.uleb128 0x1a
 2256 0a4f 01       		.uleb128 0x1
 2257 0a50 51       		.byte	0x51
 2258 0a51 02       		.uleb128 0x2
 2259 0a52 78       		.byte	0x78
 2260 0a53 32       		.sleb128 50
 2261 0a54 1A       		.uleb128 0x1a
 2262 0a55 01       		.uleb128 0x1
 2263 0a56 50       		.byte	0x50
 2264 0a57 01       		.uleb128 0x1
 2265 0a58 39       		.byte	0x39
 2266 0a59 00       		.byte	0
 2267 0a5a 19       		.uleb128 0x19
 2268 0a5b 8C010000 		.4byte	.LVL61
ARM GAS  /tmp/ccLB3ATm.s 			page 41


 2269 0a5f DC0E0000 		.4byte	0xedc
 2270 0a63 750A0000 		.4byte	0xa75
 2271 0a67 1A       		.uleb128 0x1a
 2272 0a68 01       		.uleb128 0x1
 2273 0a69 51       		.byte	0x51
 2274 0a6a 04       		.uleb128 0x4
 2275 0a6b 77       		.byte	0x77
 2276 0a6c 00       		.sleb128 0
 2277 0a6d 30       		.byte	0x30
 2278 0a6e 29       		.byte	0x29
 2279 0a6f 1A       		.uleb128 0x1a
 2280 0a70 01       		.uleb128 0x1
 2281 0a71 50       		.byte	0x50
 2282 0a72 01       		.uleb128 0x1
 2283 0a73 3A       		.byte	0x3a
 2284 0a74 00       		.byte	0
 2285 0a75 19       		.uleb128 0x19
 2286 0a76 9A010000 		.4byte	.LVL62
 2287 0a7a 5E0F0000 		.4byte	0xf5e
 2288 0a7e 890A0000 		.4byte	0xa89
 2289 0a82 1A       		.uleb128 0x1a
 2290 0a83 01       		.uleb128 0x1
 2291 0a84 50       		.byte	0x50
 2292 0a85 02       		.uleb128 0x2
 2293 0a86 09       		.byte	0x9
 2294 0a87 FF       		.byte	0xff
 2295 0a88 00       		.byte	0
 2296 0a89 19       		.uleb128 0x19
 2297 0a8a A8010000 		.4byte	.LVL64
 2298 0a8e DC0E0000 		.4byte	0xedc
 2299 0a92 9C0A0000 		.4byte	0xa9c
 2300 0a96 1A       		.uleb128 0x1a
 2301 0a97 01       		.uleb128 0x1
 2302 0a98 50       		.byte	0x50
 2303 0a99 01       		.uleb128 0x1
 2304 0a9a 3B       		.byte	0x3b
 2305 0a9b 00       		.byte	0
 2306 0a9c 21       		.uleb128 0x21
 2307 0a9d BE010000 		.4byte	.LVL66
 2308 0aa1 F10F0000 		.4byte	0xff1
 2309 0aa5 19       		.uleb128 0x19
 2310 0aa6 D4010000 		.4byte	.LVL67
 2311 0aaa BB0E0000 		.4byte	0xebb
 2312 0aae C40A0000 		.4byte	0xac4
 2313 0ab2 1A       		.uleb128 0x1a
 2314 0ab3 01       		.uleb128 0x1
 2315 0ab4 52       		.byte	0x52
 2316 0ab5 01       		.uleb128 0x1
 2317 0ab6 31       		.byte	0x31
 2318 0ab7 1A       		.uleb128 0x1a
 2319 0ab8 01       		.uleb128 0x1
 2320 0ab9 51       		.byte	0x51
 2321 0aba 02       		.uleb128 0x2
 2322 0abb 91       		.byte	0x91
 2323 0abc 40       		.sleb128 -64
 2324 0abd 1A       		.uleb128 0x1a
 2325 0abe 01       		.uleb128 0x1
ARM GAS  /tmp/ccLB3ATm.s 			page 42


 2326 0abf 50       		.byte	0x50
 2327 0ac0 02       		.uleb128 0x2
 2328 0ac1 79       		.byte	0x79
 2329 0ac2 00       		.sleb128 0
 2330 0ac3 00       		.byte	0
 2331 0ac4 19       		.uleb128 0x19
 2332 0ac5 DE010000 		.4byte	.LVL68
 2333 0ac9 BB0E0000 		.4byte	0xebb
 2334 0acd E30A0000 		.4byte	0xae3
 2335 0ad1 1A       		.uleb128 0x1a
 2336 0ad2 01       		.uleb128 0x1
 2337 0ad3 52       		.byte	0x52
 2338 0ad4 01       		.uleb128 0x1
 2339 0ad5 34       		.byte	0x34
 2340 0ad6 1A       		.uleb128 0x1a
 2341 0ad7 01       		.uleb128 0x1
 2342 0ad8 51       		.byte	0x51
 2343 0ad9 02       		.uleb128 0x2
 2344 0ada 91       		.byte	0x91
 2345 0adb 50       		.sleb128 -48
 2346 0adc 1A       		.uleb128 0x1a
 2347 0add 01       		.uleb128 0x1
 2348 0ade 50       		.byte	0x50
 2349 0adf 02       		.uleb128 0x2
 2350 0ae0 78       		.byte	0x78
 2351 0ae1 00       		.sleb128 0
 2352 0ae2 00       		.byte	0
 2353 0ae3 21       		.uleb128 0x21
 2354 0ae4 E2010000 		.4byte	.LVL69
 2355 0ae8 9D0F0000 		.4byte	0xf9d
 2356 0aec 19       		.uleb128 0x19
 2357 0aed 06020000 		.4byte	.LVL71
 2358 0af1 A80F0000 		.4byte	0xfa8
 2359 0af5 1C0B0000 		.4byte	0xb1c
 2360 0af9 1A       		.uleb128 0x1a
 2361 0afa 01       		.uleb128 0x1
 2362 0afb 53       		.byte	0x53
 2363 0afc 05       		.uleb128 0x5
 2364 0afd 03       		.byte	0x3
 2365 0afe 00000000 		.4byte	thread2
 2366 0b02 1A       		.uleb128 0x1a
 2367 0b03 01       		.uleb128 0x1
 2368 0b04 51       		.byte	0x51
 2369 0b05 03       		.uleb128 0x3
 2370 0b06 0A       		.byte	0xa
 2371 0b07 5001     		.2byte	0x150
 2372 0b09 1A       		.uleb128 0x1a
 2373 0b0a 01       		.uleb128 0x1
 2374 0b0b 50       		.byte	0x50
 2375 0b0c 04       		.uleb128 0x4
 2376 0b0d 91       		.byte	0x91
 2377 0b0e BC7F     		.sleb128 -68
 2378 0b10 06       		.byte	0x6
 2379 0b11 1A       		.uleb128 0x1a
 2380 0b12 02       		.uleb128 0x2
 2381 0b13 7D       		.byte	0x7d
 2382 0b14 00       		.sleb128 0
ARM GAS  /tmp/ccLB3ATm.s 			page 43


 2383 0b15 05       		.uleb128 0x5
 2384 0b16 03       		.byte	0x3
 2385 0b17 04000000 		.4byte	.LC1
 2386 0b1b 00       		.byte	0
 2387 0b1c 19       		.uleb128 0x19
 2388 0b1d 0E020000 		.4byte	.LVL72
 2389 0b21 0D100000 		.4byte	0x100d
 2390 0b25 2F0B0000 		.4byte	0xb2f
 2391 0b29 1A       		.uleb128 0x1a
 2392 0b2a 01       		.uleb128 0x1
 2393 0b2b 50       		.byte	0x50
 2394 0b2c 01       		.uleb128 0x1
 2395 0b2d 35       		.byte	0x35
 2396 0b2e 00       		.byte	0
 2397 0b2f 19       		.uleb128 0x19
 2398 0b30 1C020000 		.4byte	.LVL74
 2399 0b34 D20F0000 		.4byte	0xfd2
 2400 0b38 4E0B0000 		.4byte	0xb4e
 2401 0b3c 1A       		.uleb128 0x1a
 2402 0b3d 01       		.uleb128 0x1
 2403 0b3e 52       		.byte	0x52
 2404 0b3f 02       		.uleb128 0x2
 2405 0b40 74       		.byte	0x74
 2406 0b41 37       		.sleb128 55
 2407 0b42 1A       		.uleb128 0x1a
 2408 0b43 01       		.uleb128 0x1
 2409 0b44 51       		.byte	0x51
 2410 0b45 02       		.uleb128 0x2
 2411 0b46 74       		.byte	0x74
 2412 0b47 32       		.sleb128 50
 2413 0b48 1A       		.uleb128 0x1a
 2414 0b49 01       		.uleb128 0x1
 2415 0b4a 50       		.byte	0x50
 2416 0b4b 01       		.uleb128 0x1
 2417 0b4c 3C       		.byte	0x3c
 2418 0b4d 00       		.byte	0
 2419 0b4e 19       		.uleb128 0x19
 2420 0b4f 2A020000 		.4byte	.LVL75
 2421 0b53 5E0F0000 		.4byte	0xf5e
 2422 0b57 620B0000 		.4byte	0xb62
 2423 0b5b 1A       		.uleb128 0x1a
 2424 0b5c 01       		.uleb128 0x1
 2425 0b5d 50       		.byte	0x50
 2426 0b5e 02       		.uleb128 0x2
 2427 0b5f 09       		.byte	0x9
 2428 0b60 FF       		.byte	0xff
 2429 0b61 00       		.byte	0
 2430 0b62 19       		.uleb128 0x19
 2431 0b63 38020000 		.4byte	.LVL77
 2432 0b67 DC0E0000 		.4byte	0xedc
 2433 0b6b 750B0000 		.4byte	0xb75
 2434 0b6f 1A       		.uleb128 0x1a
 2435 0b70 01       		.uleb128 0x1
 2436 0b71 50       		.byte	0x50
 2437 0b72 01       		.uleb128 0x1
 2438 0b73 3D       		.byte	0x3d
 2439 0b74 00       		.byte	0
ARM GAS  /tmp/ccLB3ATm.s 			page 44


 2440 0b75 21       		.uleb128 0x21
 2441 0b76 42020000 		.4byte	.LVL78
 2442 0b7a F10F0000 		.4byte	0xff1
 2443 0b7e 19       		.uleb128 0x19
 2444 0b7f 4A020000 		.4byte	.LVL79
 2445 0b83 F60E0000 		.4byte	0xef6
 2446 0b87 980B0000 		.4byte	0xb98
 2447 0b8b 1A       		.uleb128 0x1a
 2448 0b8c 01       		.uleb128 0x1
 2449 0b8d 51       		.byte	0x51
 2450 0b8e 02       		.uleb128 0x2
 2451 0b8f 91       		.byte	0x91
 2452 0b90 40       		.sleb128 -64
 2453 0b91 1A       		.uleb128 0x1a
 2454 0b92 01       		.uleb128 0x1
 2455 0b93 50       		.byte	0x50
 2456 0b94 02       		.uleb128 0x2
 2457 0b95 79       		.byte	0x79
 2458 0b96 00       		.sleb128 0
 2459 0b97 00       		.byte	0
 2460 0b98 19       		.uleb128 0x19
 2461 0b99 52020000 		.4byte	.LVL80
 2462 0b9d F60E0000 		.4byte	0xef6
 2463 0ba1 B20B0000 		.4byte	0xbb2
 2464 0ba5 1A       		.uleb128 0x1a
 2465 0ba6 01       		.uleb128 0x1
 2466 0ba7 51       		.byte	0x51
 2467 0ba8 02       		.uleb128 0x2
 2468 0ba9 91       		.byte	0x91
 2469 0baa 50       		.sleb128 -48
 2470 0bab 1A       		.uleb128 0x1a
 2471 0bac 01       		.uleb128 0x1
 2472 0bad 50       		.byte	0x50
 2473 0bae 02       		.uleb128 0x2
 2474 0baf 78       		.byte	0x78
 2475 0bb0 00       		.sleb128 0
 2476 0bb1 00       		.byte	0
 2477 0bb2 19       		.uleb128 0x19
 2478 0bb3 64020000 		.4byte	.LVL82
 2479 0bb7 DC0E0000 		.4byte	0xedc
 2480 0bbb CD0B0000 		.4byte	0xbcd
 2481 0bbf 1A       		.uleb128 0x1a
 2482 0bc0 01       		.uleb128 0x1
 2483 0bc1 51       		.byte	0x51
 2484 0bc2 04       		.uleb128 0x4
 2485 0bc3 74       		.byte	0x74
 2486 0bc4 00       		.sleb128 0
 2487 0bc5 30       		.byte	0x30
 2488 0bc6 29       		.byte	0x29
 2489 0bc7 1A       		.uleb128 0x1a
 2490 0bc8 01       		.uleb128 0x1
 2491 0bc9 50       		.byte	0x50
 2492 0bca 01       		.uleb128 0x1
 2493 0bcb 3E       		.byte	0x3e
 2494 0bcc 00       		.byte	0
 2495 0bcd 1B       		.uleb128 0x1b
 2496 0bce 7C020000 		.4byte	.LVL83
ARM GAS  /tmp/ccLB3ATm.s 			page 45


 2497 0bd2 DC0E0000 		.4byte	0xedc
 2498 0bd6 1A       		.uleb128 0x1a
 2499 0bd7 01       		.uleb128 0x1
 2500 0bd8 50       		.byte	0x50
 2501 0bd9 01       		.uleb128 0x1
 2502 0bda 3F       		.byte	0x3f
 2503 0bdb 00       		.byte	0
 2504 0bdc 00       		.byte	0
 2505 0bdd 22       		.uleb128 0x22
 2506 0bde 96030000 		.4byte	.LASF99
 2507 0be2 01       		.byte	0x1
 2508 0be3 8C       		.byte	0x8c
 2509 0be4 FD000000 		.4byte	0xfd
 2510 0be8 00000000 		.4byte	.LFB14
 2511 0bec 28000000 		.4byte	.LFE14-.LFB14
 2512 0bf0 01       		.uleb128 0x1
 2513 0bf1 9C       		.byte	0x9c
 2514 0bf2 4C0C0000 		.4byte	0xc4c
 2515 0bf6 1D       		.uleb128 0x1d
 2516 0bf7 7000     		.ascii	"p\000"
 2517 0bf9 01       		.byte	0x1
 2518 0bfa 8C       		.byte	0x8c
 2519 0bfb 99020000 		.4byte	0x299
 2520 0bff 9A010000 		.4byte	.LLST5
 2521 0c03 19       		.uleb128 0x19
 2522 0c04 10000000 		.4byte	.LVL86
 2523 0c08 22100000 		.4byte	0x1022
 2524 0c0c 1F0C0000 		.4byte	0xc1f
 2525 0c10 1A       		.uleb128 0x1a
 2526 0c11 01       		.uleb128 0x1
 2527 0c12 51       		.byte	0x51
 2528 0c13 01       		.uleb128 0x1
 2529 0c14 30       		.byte	0x30
 2530 0c15 1A       		.uleb128 0x1a
 2531 0c16 01       		.uleb128 0x1
 2532 0c17 50       		.byte	0x50
 2533 0c18 05       		.uleb128 0x5
 2534 0c19 03       		.byte	0x3
 2535 0c1a 00000000 		.4byte	.LANCHOR0
 2536 0c1e 00       		.byte	0
 2537 0c1f 19       		.uleb128 0x19
 2538 0c20 16000000 		.4byte	.LVL87
 2539 0c24 38100000 		.4byte	0x1038
 2540 0c28 330C0000 		.4byte	0xc33
 2541 0c2c 1A       		.uleb128 0x1a
 2542 0c2d 01       		.uleb128 0x1
 2543 0c2e 50       		.byte	0x50
 2544 0c2f 02       		.uleb128 0x2
 2545 0c30 08       		.byte	0x8
 2546 0c31 32       		.byte	0x32
 2547 0c32 00       		.byte	0
 2548 0c33 1B       		.uleb128 0x1b
 2549 0c34 24000000 		.4byte	.LVL88
 2550 0c38 22100000 		.4byte	0x1022
 2551 0c3c 1A       		.uleb128 0x1a
 2552 0c3d 01       		.uleb128 0x1
 2553 0c3e 51       		.byte	0x51
ARM GAS  /tmp/ccLB3ATm.s 			page 46


 2554 0c3f 01       		.uleb128 0x1
 2555 0c40 30       		.byte	0x30
 2556 0c41 1A       		.uleb128 0x1a
 2557 0c42 01       		.uleb128 0x1
 2558 0c43 50       		.byte	0x50
 2559 0c44 05       		.uleb128 0x5
 2560 0c45 03       		.byte	0x3
 2561 0c46 00000000 		.4byte	.LANCHOR2
 2562 0c4a 00       		.byte	0
 2563 0c4b 00       		.byte	0
 2564 0c4c 22       		.uleb128 0x22
 2565 0c4d 8E030000 		.4byte	.LASF100
 2566 0c51 01       		.byte	0x1
 2567 0c52 85       		.byte	0x85
 2568 0c53 FD000000 		.4byte	0xfd
 2569 0c57 00000000 		.4byte	.LFB13
 2570 0c5b 16000000 		.4byte	.LFE13-.LFB13
 2571 0c5f 01       		.uleb128 0x1
 2572 0c60 9C       		.byte	0x9c
 2573 0c61 9C0C0000 		.4byte	0xc9c
 2574 0c65 1D       		.uleb128 0x1d
 2575 0c66 7000     		.ascii	"p\000"
 2576 0c68 01       		.byte	0x1
 2577 0c69 85       		.byte	0x85
 2578 0c6a 99020000 		.4byte	0x299
 2579 0c6e BB010000 		.4byte	.LLST6
 2580 0c72 19       		.uleb128 0x19
 2581 0c73 0A000000 		.4byte	.LVL91
 2582 0c77 38100000 		.4byte	0x1038
 2583 0c7b 860C0000 		.4byte	0xc86
 2584 0c7f 1A       		.uleb128 0x1a
 2585 0c80 01       		.uleb128 0x1
 2586 0c81 50       		.byte	0x50
 2587 0c82 02       		.uleb128 0x2
 2588 0c83 08       		.byte	0x8
 2589 0c84 32       		.byte	0x32
 2590 0c85 00       		.byte	0
 2591 0c86 1B       		.uleb128 0x1b
 2592 0c87 12000000 		.4byte	.LVL92
 2593 0c8b 4A100000 		.4byte	0x104a
 2594 0c8f 1A       		.uleb128 0x1a
 2595 0c90 01       		.uleb128 0x1
 2596 0c91 51       		.byte	0x51
 2597 0c92 01       		.uleb128 0x1
 2598 0c93 31       		.byte	0x31
 2599 0c94 1A       		.uleb128 0x1a
 2600 0c95 01       		.uleb128 0x1
 2601 0c96 50       		.byte	0x50
 2602 0c97 02       		.uleb128 0x2
 2603 0c98 74       		.byte	0x74
 2604 0c99 00       		.sleb128 0
 2605 0c9a 00       		.byte	0
 2606 0c9b 00       		.byte	0
 2607 0c9c 23       		.uleb128 0x23
 2608 0c9d DB050000 		.4byte	0x5db
 2609 0ca1 00000000 		.4byte	.LFB17
 2610 0ca5 AA000000 		.4byte	.LFE17-.LFB17
ARM GAS  /tmp/ccLB3ATm.s 			page 47


 2611 0ca9 01       		.uleb128 0x1
 2612 0caa 9C       		.byte	0x9c
 2613 0cab C20D0000 		.4byte	0xdc2
 2614 0caf 24       		.uleb128 0x24
 2615 0cb0 E7050000 		.4byte	0x5e7
 2616 0cb4 D9010000 		.4byte	.LLST7
 2617 0cb8 25       		.uleb128 0x25
 2618 0cb9 00000000 		.4byte	.Ldebug_ranges0+0
 2619 0cbd 4B0D0000 		.4byte	0xd4b
 2620 0cc1 24       		.uleb128 0x24
 2621 0cc2 E7050000 		.4byte	0x5e7
 2622 0cc6 02020000 		.4byte	.LLST8
 2623 0cca 19       		.uleb128 0x19
 2624 0ccb 60000000 		.4byte	.LVL102
 2625 0ccf 60100000 		.4byte	0x1060
 2626 0cd3 E30C0000 		.4byte	0xce3
 2627 0cd7 1A       		.uleb128 0x1a
 2628 0cd8 01       		.uleb128 0x1
 2629 0cd9 51       		.byte	0x51
 2630 0cda 01       		.uleb128 0x1
 2631 0cdb 3A       		.byte	0x3a
 2632 0cdc 1A       		.uleb128 0x1a
 2633 0cdd 01       		.uleb128 0x1
 2634 0cde 50       		.byte	0x50
 2635 0cdf 02       		.uleb128 0x2
 2636 0ce0 09       		.byte	0x9
 2637 0ce1 FF       		.byte	0xff
 2638 0ce2 00       		.byte	0
 2639 0ce3 19       		.uleb128 0x19
 2640 0ce4 6E000000 		.4byte	.LVL104
 2641 0ce8 DC0E0000 		.4byte	0xedc
 2642 0cec F60C0000 		.4byte	0xcf6
 2643 0cf0 1A       		.uleb128 0x1a
 2644 0cf1 01       		.uleb128 0x1
 2645 0cf2 50       		.byte	0x50
 2646 0cf3 01       		.uleb128 0x1
 2647 0cf4 34       		.byte	0x34
 2648 0cf5 00       		.byte	0
 2649 0cf6 19       		.uleb128 0x19
 2650 0cf7 7C000000 		.4byte	.LVL105
 2651 0cfb 7A100000 		.4byte	0x107a
 2652 0cff 0F0D0000 		.4byte	0xd0f
 2653 0d03 1A       		.uleb128 0x1a
 2654 0d04 01       		.uleb128 0x1
 2655 0d05 51       		.byte	0x51
 2656 0d06 01       		.uleb128 0x1
 2657 0d07 3A       		.byte	0x3a
 2658 0d08 1A       		.uleb128 0x1a
 2659 0d09 01       		.uleb128 0x1
 2660 0d0a 50       		.byte	0x50
 2661 0d0b 02       		.uleb128 0x2
 2662 0d0c 09       		.byte	0x9
 2663 0d0d FF       		.byte	0xff
 2664 0d0e 00       		.byte	0
 2665 0d0f 19       		.uleb128 0x19
 2666 0d10 8A000000 		.4byte	.LVL107
 2667 0d14 DC0E0000 		.4byte	0xedc
ARM GAS  /tmp/ccLB3ATm.s 			page 48


 2668 0d18 220D0000 		.4byte	0xd22
 2669 0d1c 1A       		.uleb128 0x1a
 2670 0d1d 01       		.uleb128 0x1
 2671 0d1e 50       		.byte	0x50
 2672 0d1f 01       		.uleb128 0x1
 2673 0d20 35       		.byte	0x35
 2674 0d21 00       		.byte	0
 2675 0d22 19       		.uleb128 0x19
 2676 0d23 98000000 		.4byte	.LVL108
 2677 0d27 94100000 		.4byte	0x1094
 2678 0d2b 3B0D0000 		.4byte	0xd3b
 2679 0d2f 1A       		.uleb128 0x1a
 2680 0d30 01       		.uleb128 0x1
 2681 0d31 51       		.byte	0x51
 2682 0d32 01       		.uleb128 0x1
 2683 0d33 3A       		.byte	0x3a
 2684 0d34 1A       		.uleb128 0x1a
 2685 0d35 01       		.uleb128 0x1
 2686 0d36 50       		.byte	0x50
 2687 0d37 02       		.uleb128 0x2
 2688 0d38 09       		.byte	0x9
 2689 0d39 FF       		.byte	0xff
 2690 0d3a 00       		.byte	0
 2691 0d3b 1E       		.uleb128 0x1e
 2692 0d3c AA000000 		.4byte	.LVL110
 2693 0d40 DC0E0000 		.4byte	0xedc
 2694 0d44 1A       		.uleb128 0x1a
 2695 0d45 01       		.uleb128 0x1
 2696 0d46 50       		.byte	0x50
 2697 0d47 01       		.uleb128 0x1
 2698 0d48 36       		.byte	0x36
 2699 0d49 00       		.byte	0
 2700 0d4a 00       		.byte	0
 2701 0d4b 19       		.uleb128 0x19
 2702 0d4c 0C000000 		.4byte	.LVL93
 2703 0d50 60100000 		.4byte	0x1060
 2704 0d54 640D0000 		.4byte	0xd64
 2705 0d58 1A       		.uleb128 0x1a
 2706 0d59 01       		.uleb128 0x1
 2707 0d5a 51       		.byte	0x51
 2708 0d5b 01       		.uleb128 0x1
 2709 0d5c 30       		.byte	0x30
 2710 0d5d 1A       		.uleb128 0x1a
 2711 0d5e 01       		.uleb128 0x1
 2712 0d5f 50       		.byte	0x50
 2713 0d60 02       		.uleb128 0x2
 2714 0d61 09       		.byte	0x9
 2715 0d62 FF       		.byte	0xff
 2716 0d63 00       		.byte	0
 2717 0d64 19       		.uleb128 0x19
 2718 0d65 1A000000 		.4byte	.LVL95
 2719 0d69 DC0E0000 		.4byte	0xedc
 2720 0d6d 770D0000 		.4byte	0xd77
 2721 0d71 1A       		.uleb128 0x1a
 2722 0d72 01       		.uleb128 0x1
 2723 0d73 50       		.byte	0x50
 2724 0d74 01       		.uleb128 0x1
ARM GAS  /tmp/ccLB3ATm.s 			page 49


 2725 0d75 31       		.byte	0x31
 2726 0d76 00       		.byte	0
 2727 0d77 19       		.uleb128 0x19
 2728 0d78 28000000 		.4byte	.LVL96
 2729 0d7c 7A100000 		.4byte	0x107a
 2730 0d80 8B0D0000 		.4byte	0xd8b
 2731 0d84 1A       		.uleb128 0x1a
 2732 0d85 01       		.uleb128 0x1
 2733 0d86 50       		.byte	0x50
 2734 0d87 02       		.uleb128 0x2
 2735 0d88 09       		.byte	0x9
 2736 0d89 FF       		.byte	0xff
 2737 0d8a 00       		.byte	0
 2738 0d8b 19       		.uleb128 0x19
 2739 0d8c 36000000 		.4byte	.LVL98
 2740 0d90 DC0E0000 		.4byte	0xedc
 2741 0d94 9E0D0000 		.4byte	0xd9e
 2742 0d98 1A       		.uleb128 0x1a
 2743 0d99 01       		.uleb128 0x1
 2744 0d9a 50       		.byte	0x50
 2745 0d9b 01       		.uleb128 0x1
 2746 0d9c 32       		.byte	0x32
 2747 0d9d 00       		.byte	0
 2748 0d9e 19       		.uleb128 0x19
 2749 0d9f 44000000 		.4byte	.LVL99
 2750 0da3 94100000 		.4byte	0x1094
 2751 0da7 B20D0000 		.4byte	0xdb2
 2752 0dab 1A       		.uleb128 0x1a
 2753 0dac 01       		.uleb128 0x1
 2754 0dad 50       		.byte	0x50
 2755 0dae 02       		.uleb128 0x2
 2756 0daf 09       		.byte	0x9
 2757 0db0 FF       		.byte	0xff
 2758 0db1 00       		.byte	0
 2759 0db2 1B       		.uleb128 0x1b
 2760 0db3 52000000 		.4byte	.LVL101
 2761 0db7 DC0E0000 		.4byte	0xedc
 2762 0dbb 1A       		.uleb128 0x1a
 2763 0dbc 01       		.uleb128 0x1
 2764 0dbd 50       		.byte	0x50
 2765 0dbe 01       		.uleb128 0x1
 2766 0dbf 33       		.byte	0x33
 2767 0dc0 00       		.byte	0
 2768 0dc1 00       		.byte	0
 2769 0dc2 18       		.uleb128 0x18
 2770 0dc3 65733100 		.ascii	"es1\000"
 2771 0dc7 01       		.byte	0x1
 2772 0dc8 3B       		.byte	0x3b
 2773 0dc9 03050000 		.4byte	0x503
 2774 0dcd 05       		.uleb128 0x5
 2775 0dce 03       		.byte	0x3
 2776 0dcf 00000000 		.4byte	es1
 2777 0dd3 18       		.uleb128 0x18
 2778 0dd4 65733200 		.ascii	"es2\000"
 2779 0dd8 01       		.byte	0x1
 2780 0dd9 3C       		.byte	0x3c
 2781 0dda 03050000 		.4byte	0x503
ARM GAS  /tmp/ccLB3ATm.s 			page 50


 2782 0dde 05       		.uleb128 0x5
 2783 0ddf 03       		.byte	0x3
 2784 0de0 00000000 		.4byte	es2
 2785 0de4 26       		.uleb128 0x26
 2786 0de5 0E050000 		.4byte	0x50e
 2787 0de9 F40D0000 		.4byte	0xdf4
 2788 0ded 27       		.uleb128 0x27
 2789 0dee 38030000 		.4byte	0x338
 2790 0df2 02       		.byte	0x2
 2791 0df3 00       		.byte	0
 2792 0df4 28       		.uleb128 0x28
 2793 0df5 D5040000 		.4byte	.LASF101
 2794 0df9 01       		.byte	0x1
 2795 0dfa 53       		.byte	0x53
 2796 0dfb 050E0000 		.4byte	0xe05
 2797 0dff 05       		.uleb128 0x5
 2798 0e00 03       		.byte	0x3
 2799 0e01 00000000 		.4byte	evhndl
 2800 0e05 12       		.uleb128 0x12
 2801 0e06 E40D0000 		.4byte	0xde4
 2802 0e0a 29       		.uleb128 0x29
 2803 0e0b 31000000 		.4byte	.LASF102
 2804 0e0f 09       		.byte	0x9
 2805 0e10 F5       		.byte	0xf5
 2806 0e11 F3030000 		.4byte	0x3f3
 2807 0e15 29       		.uleb128 0x29
 2808 0e16 6D050000 		.4byte	.LASF103
 2809 0e1a 0A       		.byte	0xa
 2810 0e1b 6F       		.byte	0x6f
 2811 0e1c 4F040000 		.4byte	0x44f
 2812 0e20 26       		.uleb128 0x26
 2813 0e21 5D020000 		.4byte	0x25d
 2814 0e25 300E0000 		.4byte	0xe30
 2815 0e29 27       		.uleb128 0x27
 2816 0e2a 38030000 		.4byte	0x338
 2817 0e2e 04       		.byte	0x4
 2818 0e2f 00       		.byte	0
 2819 0e30 29       		.uleb128 0x29
 2820 0e31 8C040000 		.4byte	.LASF104
 2821 0e35 0D       		.byte	0xd
 2822 0e36 A5       		.byte	0xa5
 2823 0e37 200E0000 		.4byte	0xe20
 2824 0e3b 26       		.uleb128 0x26
 2825 0e3c 99020000 		.4byte	0x299
 2826 0e40 460E0000 		.4byte	0xe46
 2827 0e44 2A       		.uleb128 0x2a
 2828 0e45 00       		.byte	0
 2829 0e46 2B       		.uleb128 0x2b
 2830 0e47 776100   		.ascii	"wa\000"
 2831 0e4a 0D       		.byte	0xd
 2832 0e4b A7       		.byte	0xa7
 2833 0e4c 500E0000 		.4byte	0xe50
 2834 0e50 12       		.uleb128 0x12
 2835 0e51 3B0E0000 		.4byte	0xe3b
 2836 0e55 2C       		.uleb128 0x2c
 2837 0e56 CC040000 		.4byte	.LASF105
 2838 0e5a 01       		.byte	0x1
ARM GAS  /tmp/ccLB3ATm.s 			page 51


 2839 0e5b 6B       		.byte	0x6b
 2840 0e5c 660E0000 		.4byte	0xe66
 2841 0e60 05       		.uleb128 0x5
 2842 0e61 03       		.byte	0x3
 2843 0e62 00000000 		.4byte	testevt1
 2844 0e66 12       		.uleb128 0x12
 2845 0e67 97050000 		.4byte	0x597
 2846 0e6b 2C       		.uleb128 0x2c
 2847 0e6c 53010000 		.4byte	.LASF106
 2848 0e70 01       		.byte	0x1
 2849 0e71 E0       		.byte	0xe0
 2850 0e72 660E0000 		.4byte	0xe66
 2851 0e76 05       		.uleb128 0x5
 2852 0e77 03       		.byte	0x3
 2853 0e78 00000000 		.4byte	testevt2
 2854 0e7c 2D       		.uleb128 0x2d
 2855 0e7d 69010000 		.4byte	.LASF107
 2856 0e81 01       		.byte	0x1
 2857 0e82 1001     		.2byte	0x110
 2858 0e84 660E0000 		.4byte	0xe66
 2859 0e88 05       		.uleb128 0x5
 2860 0e89 03       		.byte	0x3
 2861 0e8a 00000000 		.4byte	testevt3
 2862 0e8e 26       		.uleb128 0x26
 2863 0e8f 9E0E0000 		.4byte	0xe9e
 2864 0e93 9E0E0000 		.4byte	0xe9e
 2865 0e97 27       		.uleb128 0x27
 2866 0e98 38030000 		.4byte	0x338
 2867 0e9c 03       		.byte	0x3
 2868 0e9d 00       		.byte	0
 2869 0e9e 09       		.uleb128 0x9
 2870 0e9f 04       		.byte	0x4
 2871 0ea0 660E0000 		.4byte	0xe66
 2872 0ea4 2D       		.uleb128 0x2d
 2873 0ea5 13020000 		.4byte	.LASF108
 2874 0ea9 01       		.byte	0x1
 2875 0eaa 1B01     		.2byte	0x11b
 2876 0eac B60E0000 		.4byte	0xeb6
 2877 0eb0 05       		.uleb128 0x5
 2878 0eb1 03       		.byte	0x3
 2879 0eb2 00000000 		.4byte	patternevt
 2880 0eb6 12       		.uleb128 0x12
 2881 0eb7 8E0E0000 		.4byte	0xe8e
 2882 0ebb 2E       		.uleb128 0x2e
 2883 0ebc 47020000 		.4byte	.LASF109
 2884 0ec0 0C       		.byte	0xc
 2885 0ec1 AF       		.byte	0xaf
 2886 0ec2 D60E0000 		.4byte	0xed6
 2887 0ec6 0E       		.uleb128 0xe
 2888 0ec7 D60E0000 		.4byte	0xed6
 2889 0ecb 0E       		.uleb128 0xe
 2890 0ecc E4040000 		.4byte	0x4e4
 2891 0ed0 0E       		.uleb128 0xe
 2892 0ed1 13010000 		.4byte	0x113
 2893 0ed5 00       		.byte	0
 2894 0ed6 09       		.uleb128 0x9
 2895 0ed7 04       		.byte	0x4
ARM GAS  /tmp/ccLB3ATm.s 			page 52


 2896 0ed8 03050000 		.4byte	0x503
 2897 0edc 2F       		.uleb128 0x2f
 2898 0edd AB050000 		.4byte	.LASF112
 2899 0ee1 0D       		.byte	0xd
 2900 0ee2 58       		.byte	0x58
 2901 0ee3 B4000000 		.4byte	0xb4
 2902 0ee7 F60E0000 		.4byte	0xef6
 2903 0eeb 0E       		.uleb128 0xe
 2904 0eec 33000000 		.4byte	0x33
 2905 0ef0 0E       		.uleb128 0xe
 2906 0ef1 B4000000 		.4byte	0xb4
 2907 0ef5 00       		.byte	0
 2908 0ef6 2E       		.uleb128 0x2e
 2909 0ef7 EF020000 		.4byte	.LASF110
 2910 0efb 0C       		.byte	0xc
 2911 0efc B2       		.byte	0xb2
 2912 0efd 0C0F0000 		.4byte	0xf0c
 2913 0f01 0E       		.uleb128 0xe
 2914 0f02 D60E0000 		.4byte	0xed6
 2915 0f06 0E       		.uleb128 0xe
 2916 0f07 E4040000 		.4byte	0x4e4
 2917 0f0b 00       		.byte	0
 2918 0f0c 2E       		.uleb128 0x2e
 2919 0f0d 5B030000 		.4byte	.LASF111
 2920 0f11 0C       		.byte	0xc
 2921 0f12 BB       		.byte	0xbb
 2922 0f13 220F0000 		.4byte	0xf22
 2923 0f17 0E       		.uleb128 0xe
 2924 0f18 220F0000 		.4byte	0xf22
 2925 0f1c 0E       		.uleb128 0xe
 2926 0f1d 13010000 		.4byte	0x113
 2927 0f21 00       		.byte	0
 2928 0f22 09       		.uleb128 0x9
 2929 0f23 04       		.byte	0x4
 2930 0f24 280F0000 		.4byte	0xf28
 2931 0f28 12       		.uleb128 0x12
 2932 0f29 0E050000 		.4byte	0x50e
 2933 0f2d 2F       		.uleb128 0x2f
 2934 0f2e BF030000 		.4byte	.LASF113
 2935 0f32 0D       		.byte	0xd
 2936 0f33 59       		.byte	0x59
 2937 0f34 B4000000 		.4byte	0xb4
 2938 0f38 470F0000 		.4byte	0xf47
 2939 0f3c 0E       		.uleb128 0xe
 2940 0f3d 33000000 		.4byte	0x33
 2941 0f41 0E       		.uleb128 0xe
 2942 0f42 470F0000 		.4byte	0xf47
 2943 0f46 00       		.byte	0
 2944 0f47 09       		.uleb128 0x9
 2945 0f48 04       		.byte	0x4
 2946 0f49 6A050000 		.4byte	0x56a
 2947 0f4d 2E       		.uleb128 0x2e
 2948 0f4e E0000000 		.4byte	.LASF114
 2949 0f52 0D       		.byte	0xd
 2950 0f53 56       		.byte	0x56
 2951 0f54 5E0F0000 		.4byte	0xf5e
 2952 0f58 0E       		.uleb128 0xe
ARM GAS  /tmp/ccLB3ATm.s 			page 53


 2953 0f59 6A050000 		.4byte	0x56a
 2954 0f5d 00       		.byte	0
 2955 0f5e 2F       		.uleb128 0x2f
 2956 0f5f F3010000 		.4byte	.LASF115
 2957 0f63 0C       		.byte	0xc
 2958 0f64 B3       		.byte	0xb3
 2959 0f65 13010000 		.4byte	0x113
 2960 0f69 730F0000 		.4byte	0xf73
 2961 0f6d 0E       		.uleb128 0xe
 2962 0f6e 13010000 		.4byte	0x113
 2963 0f72 00       		.byte	0
 2964 0f73 2F       		.uleb128 0x2f
 2965 0f74 5B000000 		.4byte	.LASF116
 2966 0f78 0C       		.byte	0xc
 2967 0f79 B4       		.byte	0xb4
 2968 0f7a 13010000 		.4byte	0x113
 2969 0f7e 880F0000 		.4byte	0xf88
 2970 0f82 0E       		.uleb128 0xe
 2971 0f83 13010000 		.4byte	0x113
 2972 0f87 00       		.byte	0
 2973 0f88 2F       		.uleb128 0x2f
 2974 0f89 37040000 		.4byte	.LASF117
 2975 0f8d 0C       		.byte	0xc
 2976 0f8e BD       		.byte	0xbd
 2977 0f8f 13010000 		.4byte	0x113
 2978 0f93 9D0F0000 		.4byte	0xf9d
 2979 0f97 0E       		.uleb128 0xe
 2980 0f98 13010000 		.4byte	0x113
 2981 0f9c 00       		.byte	0
 2982 0f9d 30       		.uleb128 0x30
 2983 0f9e DA050000 		.4byte	.LASF131
 2984 0fa2 0D       		.byte	0xd
 2985 0fa3 5D       		.byte	0x5d
 2986 0fa4 29010000 		.4byte	0x129
 2987 0fa8 31       		.uleb128 0x31
 2988 0fa9 25030000 		.4byte	.LASF118
 2989 0fad 07       		.byte	0x7
 2990 0fae 7001     		.2byte	0x170
 2991 0fb0 5D020000 		.4byte	0x25d
 2992 0fb4 D20F0000 		.4byte	0xfd2
 2993 0fb8 0E       		.uleb128 0xe
 2994 0fb9 99020000 		.4byte	0x299
 2995 0fbd 0E       		.uleb128 0xe
 2996 0fbe 28000000 		.4byte	0x28
 2997 0fc2 0E       		.uleb128 0xe
 2998 0fc3 F2000000 		.4byte	0xf2
 2999 0fc7 0E       		.uleb128 0xe
 3000 0fc8 77050000 		.4byte	0x577
 3001 0fcc 0E       		.uleb128 0xe
 3002 0fcd 99020000 		.4byte	0x299
 3003 0fd1 00       		.byte	0
 3004 0fd2 2F       		.uleb128 0x2f
 3005 0fd3 3A010000 		.4byte	.LASF119
 3006 0fd7 0D       		.byte	0xd
 3007 0fd8 5A       		.byte	0x5a
 3008 0fd9 B4000000 		.4byte	0xb4
 3009 0fdd F10F0000 		.4byte	0xff1
ARM GAS  /tmp/ccLB3ATm.s 			page 54


 3010 0fe1 0E       		.uleb128 0xe
 3011 0fe2 33000000 		.4byte	0x33
 3012 0fe6 0E       		.uleb128 0xe
 3013 0fe7 29010000 		.4byte	0x129
 3014 0feb 0E       		.uleb128 0xe
 3015 0fec 29010000 		.4byte	0x129
 3016 0ff0 00       		.byte	0
 3017 0ff1 32       		.uleb128 0x32
 3018 0ff2 74030000 		.4byte	.LASF132
 3019 0ff6 0D       		.byte	0xd
 3020 0ff7 5C       		.byte	0x5c
 3021 0ff8 2F       		.uleb128 0x2f
 3022 0ff9 5C010000 		.4byte	.LASF120
 3023 0ffd 0C       		.byte	0xc
 3024 0ffe BE       		.byte	0xbe
 3025 0fff 13010000 		.4byte	0x113
 3026 1003 0D100000 		.4byte	0x100d
 3027 1007 0E       		.uleb128 0xe
 3028 1008 13010000 		.4byte	0x113
 3029 100c 00       		.byte	0
 3030 100d 2F       		.uleb128 0x2f
 3031 100e D5030000 		.4byte	.LASF121
 3032 1012 0C       		.byte	0xc
 3033 1013 BF       		.byte	0xbf
 3034 1014 13010000 		.4byte	0x113
 3035 1018 22100000 		.4byte	0x1022
 3036 101c 0E       		.uleb128 0xe
 3037 101d 13010000 		.4byte	0x113
 3038 1021 00       		.byte	0
 3039 1022 2E       		.uleb128 0x2e
 3040 1023 96010000 		.4byte	.LASF122
 3041 1027 0C       		.byte	0xc
 3042 1028 B9       		.byte	0xb9
 3043 1029 38100000 		.4byte	0x1038
 3044 102d 0E       		.uleb128 0xe
 3045 102e D60E0000 		.4byte	0xed6
 3046 1032 0E       		.uleb128 0xe
 3047 1033 1E010000 		.4byte	0x11e
 3048 1037 00       		.byte	0
 3049 1038 33       		.uleb128 0x33
 3050 1039 51050000 		.4byte	.LASF123
 3051 103d 07       		.byte	0x7
 3052 103e 7501     		.2byte	0x175
 3053 1040 4A100000 		.4byte	0x104a
 3054 1044 0E       		.uleb128 0xe
 3055 1045 29010000 		.4byte	0x129
 3056 1049 00       		.byte	0
 3057 104a 2E       		.uleb128 0x2e
 3058 104b 38000000 		.4byte	.LASF124
 3059 104f 0C       		.byte	0xc
 3060 1050 B7       		.byte	0xb7
 3061 1051 60100000 		.4byte	0x1060
 3062 1055 0E       		.uleb128 0xe
 3063 1056 5D020000 		.4byte	0x25d
 3064 105a 0E       		.uleb128 0xe
 3065 105b 13010000 		.4byte	0x113
 3066 105f 00       		.byte	0
ARM GAS  /tmp/ccLB3ATm.s 			page 55


 3067 1060 2F       		.uleb128 0x2f
 3068 1061 89050000 		.4byte	.LASF125
 3069 1065 0C       		.byte	0xc
 3070 1066 C2       		.byte	0xc2
 3071 1067 13010000 		.4byte	0x113
 3072 106b 7A100000 		.4byte	0x107a
 3073 106f 0E       		.uleb128 0xe
 3074 1070 13010000 		.4byte	0x113
 3075 1074 0E       		.uleb128 0xe
 3076 1075 29010000 		.4byte	0x129
 3077 1079 00       		.byte	0
 3078 107a 2F       		.uleb128 0x2f
 3079 107b 73000000 		.4byte	.LASF126
 3080 107f 0C       		.byte	0xc
 3081 1080 C3       		.byte	0xc3
 3082 1081 13010000 		.4byte	0x113
 3083 1085 94100000 		.4byte	0x1094
 3084 1089 0E       		.uleb128 0xe
 3085 108a 13010000 		.4byte	0x113
 3086 108e 0E       		.uleb128 0xe
 3087 108f 29010000 		.4byte	0x129
 3088 1093 00       		.byte	0
 3089 1094 34       		.uleb128 0x34
 3090 1095 B5000000 		.4byte	.LASF127
 3091 1099 0C       		.byte	0xc
 3092 109a C4       		.byte	0xc4
 3093 109b 13010000 		.4byte	0x113
 3094 109f 0E       		.uleb128 0xe
 3095 10a0 13010000 		.4byte	0x113
 3096 10a4 0E       		.uleb128 0xe
 3097 10a5 29010000 		.4byte	0x129
 3098 10a9 00       		.byte	0
 3099 10aa 00       		.byte	0
 3100              		.section	.debug_abbrev,"",%progbits
 3101              	.Ldebug_abbrev0:
 3102 0000 01       		.uleb128 0x1
 3103 0001 11       		.uleb128 0x11
 3104 0002 01       		.byte	0x1
 3105 0003 25       		.uleb128 0x25
 3106 0004 0E       		.uleb128 0xe
 3107 0005 13       		.uleb128 0x13
 3108 0006 0B       		.uleb128 0xb
 3109 0007 03       		.uleb128 0x3
 3110 0008 0E       		.uleb128 0xe
 3111 0009 55       		.uleb128 0x55
 3112 000a 17       		.uleb128 0x17
 3113 000b 11       		.uleb128 0x11
 3114 000c 01       		.uleb128 0x1
 3115 000d 10       		.uleb128 0x10
 3116 000e 17       		.uleb128 0x17
 3117 000f 00       		.byte	0
 3118 0010 00       		.byte	0
 3119 0011 02       		.uleb128 0x2
 3120 0012 24       		.uleb128 0x24
 3121 0013 00       		.byte	0
 3122 0014 0B       		.uleb128 0xb
 3123 0015 0B       		.uleb128 0xb
ARM GAS  /tmp/ccLB3ATm.s 			page 56


 3124 0016 3E       		.uleb128 0x3e
 3125 0017 0B       		.uleb128 0xb
 3126 0018 03       		.uleb128 0x3
 3127 0019 08       		.uleb128 0x8
 3128 001a 00       		.byte	0
 3129 001b 00       		.byte	0
 3130 001c 03       		.uleb128 0x3
 3131 001d 16       		.uleb128 0x16
 3132 001e 00       		.byte	0
 3133 001f 03       		.uleb128 0x3
 3134 0020 0E       		.uleb128 0xe
 3135 0021 3A       		.uleb128 0x3a
 3136 0022 0B       		.uleb128 0xb
 3137 0023 3B       		.uleb128 0x3b
 3138 0024 0B       		.uleb128 0xb
 3139 0025 49       		.uleb128 0x49
 3140 0026 13       		.uleb128 0x13
 3141 0027 00       		.byte	0
 3142 0028 00       		.byte	0
 3143 0029 04       		.uleb128 0x4
 3144 002a 24       		.uleb128 0x24
 3145 002b 00       		.byte	0
 3146 002c 0B       		.uleb128 0xb
 3147 002d 0B       		.uleb128 0xb
 3148 002e 3E       		.uleb128 0x3e
 3149 002f 0B       		.uleb128 0xb
 3150 0030 03       		.uleb128 0x3
 3151 0031 0E       		.uleb128 0xe
 3152 0032 00       		.byte	0
 3153 0033 00       		.byte	0
 3154 0034 05       		.uleb128 0x5
 3155 0035 13       		.uleb128 0x13
 3156 0036 01       		.byte	0x1
 3157 0037 03       		.uleb128 0x3
 3158 0038 0E       		.uleb128 0xe
 3159 0039 0B       		.uleb128 0xb
 3160 003a 0B       		.uleb128 0xb
 3161 003b 3A       		.uleb128 0x3a
 3162 003c 0B       		.uleb128 0xb
 3163 003d 3B       		.uleb128 0x3b
 3164 003e 0B       		.uleb128 0xb
 3165 003f 01       		.uleb128 0x1
 3166 0040 13       		.uleb128 0x13
 3167 0041 00       		.byte	0
 3168 0042 00       		.byte	0
 3169 0043 06       		.uleb128 0x6
 3170 0044 0D       		.uleb128 0xd
 3171 0045 00       		.byte	0
 3172 0046 03       		.uleb128 0x3
 3173 0047 0E       		.uleb128 0xe
 3174 0048 3A       		.uleb128 0x3a
 3175 0049 0B       		.uleb128 0xb
 3176 004a 3B       		.uleb128 0x3b
 3177 004b 0B       		.uleb128 0xb
 3178 004c 49       		.uleb128 0x49
 3179 004d 13       		.uleb128 0x13
 3180 004e 38       		.uleb128 0x38
ARM GAS  /tmp/ccLB3ATm.s 			page 57


 3181 004f 0B       		.uleb128 0xb
 3182 0050 00       		.byte	0
 3183 0051 00       		.byte	0
 3184 0052 07       		.uleb128 0x7
 3185 0053 0D       		.uleb128 0xd
 3186 0054 00       		.byte	0
 3187 0055 03       		.uleb128 0x3
 3188 0056 08       		.uleb128 0x8
 3189 0057 3A       		.uleb128 0x3a
 3190 0058 0B       		.uleb128 0xb
 3191 0059 3B       		.uleb128 0x3b
 3192 005a 0B       		.uleb128 0xb
 3193 005b 49       		.uleb128 0x49
 3194 005c 13       		.uleb128 0x13
 3195 005d 38       		.uleb128 0x38
 3196 005e 0B       		.uleb128 0xb
 3197 005f 00       		.byte	0
 3198 0060 00       		.byte	0
 3199 0061 08       		.uleb128 0x8
 3200 0062 13       		.uleb128 0x13
 3201 0063 01       		.byte	0x1
 3202 0064 0B       		.uleb128 0xb
 3203 0065 0B       		.uleb128 0xb
 3204 0066 3A       		.uleb128 0x3a
 3205 0067 0B       		.uleb128 0xb
 3206 0068 3B       		.uleb128 0x3b
 3207 0069 0B       		.uleb128 0xb
 3208 006a 01       		.uleb128 0x1
 3209 006b 13       		.uleb128 0x13
 3210 006c 00       		.byte	0
 3211 006d 00       		.byte	0
 3212 006e 09       		.uleb128 0x9
 3213 006f 0F       		.uleb128 0xf
 3214 0070 00       		.byte	0
 3215 0071 0B       		.uleb128 0xb
 3216 0072 0B       		.uleb128 0xb
 3217 0073 49       		.uleb128 0x49
 3218 0074 13       		.uleb128 0x13
 3219 0075 00       		.byte	0
 3220 0076 00       		.byte	0
 3221 0077 0A       		.uleb128 0xa
 3222 0078 0F       		.uleb128 0xf
 3223 0079 00       		.byte	0
 3224 007a 0B       		.uleb128 0xb
 3225 007b 0B       		.uleb128 0xb
 3226 007c 00       		.byte	0
 3227 007d 00       		.byte	0
 3228 007e 0B       		.uleb128 0xb
 3229 007f 13       		.uleb128 0x13
 3230 0080 01       		.byte	0x1
 3231 0081 03       		.uleb128 0x3
 3232 0082 0E       		.uleb128 0xe
 3233 0083 0B       		.uleb128 0xb
 3234 0084 0B       		.uleb128 0xb
 3235 0085 3A       		.uleb128 0x3a
 3236 0086 0B       		.uleb128 0xb
 3237 0087 3B       		.uleb128 0x3b
ARM GAS  /tmp/ccLB3ATm.s 			page 58


 3238 0088 05       		.uleb128 0x5
 3239 0089 01       		.uleb128 0x1
 3240 008a 13       		.uleb128 0x13
 3241 008b 00       		.byte	0
 3242 008c 00       		.byte	0
 3243 008d 0C       		.uleb128 0xc
 3244 008e 0D       		.uleb128 0xd
 3245 008f 00       		.byte	0
 3246 0090 03       		.uleb128 0x3
 3247 0091 08       		.uleb128 0x8
 3248 0092 3A       		.uleb128 0x3a
 3249 0093 0B       		.uleb128 0xb
 3250 0094 3B       		.uleb128 0x3b
 3251 0095 05       		.uleb128 0x5
 3252 0096 49       		.uleb128 0x49
 3253 0097 13       		.uleb128 0x13
 3254 0098 38       		.uleb128 0x38
 3255 0099 0B       		.uleb128 0xb
 3256 009a 00       		.byte	0
 3257 009b 00       		.byte	0
 3258 009c 0D       		.uleb128 0xd
 3259 009d 15       		.uleb128 0x15
 3260 009e 01       		.byte	0x1
 3261 009f 27       		.uleb128 0x27
 3262 00a0 19       		.uleb128 0x19
 3263 00a1 01       		.uleb128 0x1
 3264 00a2 13       		.uleb128 0x13
 3265 00a3 00       		.byte	0
 3266 00a4 00       		.byte	0
 3267 00a5 0E       		.uleb128 0xe
 3268 00a6 05       		.uleb128 0x5
 3269 00a7 00       		.byte	0
 3270 00a8 49       		.uleb128 0x49
 3271 00a9 13       		.uleb128 0x13
 3272 00aa 00       		.byte	0
 3273 00ab 00       		.byte	0
 3274 00ac 0F       		.uleb128 0xf
 3275 00ad 35       		.uleb128 0x35
 3276 00ae 00       		.byte	0
 3277 00af 49       		.uleb128 0x49
 3278 00b0 13       		.uleb128 0x13
 3279 00b1 00       		.byte	0
 3280 00b2 00       		.byte	0
 3281 00b3 10       		.uleb128 0x10
 3282 00b4 17       		.uleb128 0x17
 3283 00b5 01       		.byte	0x1
 3284 00b6 0B       		.uleb128 0xb
 3285 00b7 0B       		.uleb128 0xb
 3286 00b8 3A       		.uleb128 0x3a
 3287 00b9 0B       		.uleb128 0xb
 3288 00ba 3B       		.uleb128 0x3b
 3289 00bb 0B       		.uleb128 0xb
 3290 00bc 01       		.uleb128 0x1
 3291 00bd 13       		.uleb128 0x13
 3292 00be 00       		.byte	0
 3293 00bf 00       		.byte	0
 3294 00c0 11       		.uleb128 0x11
ARM GAS  /tmp/ccLB3ATm.s 			page 59


 3295 00c1 0D       		.uleb128 0xd
 3296 00c2 00       		.byte	0
 3297 00c3 03       		.uleb128 0x3
 3298 00c4 0E       		.uleb128 0xe
 3299 00c5 3A       		.uleb128 0x3a
 3300 00c6 0B       		.uleb128 0xb
 3301 00c7 3B       		.uleb128 0x3b
 3302 00c8 0B       		.uleb128 0xb
 3303 00c9 49       		.uleb128 0x49
 3304 00ca 13       		.uleb128 0x13
 3305 00cb 00       		.byte	0
 3306 00cc 00       		.byte	0
 3307 00cd 12       		.uleb128 0x12
 3308 00ce 26       		.uleb128 0x26
 3309 00cf 00       		.byte	0
 3310 00d0 49       		.uleb128 0x49
 3311 00d1 13       		.uleb128 0x13
 3312 00d2 00       		.byte	0
 3313 00d3 00       		.byte	0
 3314 00d4 13       		.uleb128 0x13
 3315 00d5 15       		.uleb128 0x15
 3316 00d6 01       		.byte	0x1
 3317 00d7 27       		.uleb128 0x27
 3318 00d8 19       		.uleb128 0x19
 3319 00d9 49       		.uleb128 0x49
 3320 00da 13       		.uleb128 0x13
 3321 00db 01       		.uleb128 0x1
 3322 00dc 13       		.uleb128 0x13
 3323 00dd 00       		.byte	0
 3324 00de 00       		.byte	0
 3325 00df 14       		.uleb128 0x14
 3326 00e0 15       		.uleb128 0x15
 3327 00e1 00       		.byte	0
 3328 00e2 27       		.uleb128 0x27
 3329 00e3 19       		.uleb128 0x19
 3330 00e4 00       		.byte	0
 3331 00e5 00       		.byte	0
 3332 00e6 15       		.uleb128 0x15
 3333 00e7 2E       		.uleb128 0x2e
 3334 00e8 01       		.byte	0x1
 3335 00e9 03       		.uleb128 0x3
 3336 00ea 0E       		.uleb128 0xe
 3337 00eb 3A       		.uleb128 0x3a
 3338 00ec 0B       		.uleb128 0xb
 3339 00ed 3B       		.uleb128 0x3b
 3340 00ee 0B       		.uleb128 0xb
 3341 00ef 27       		.uleb128 0x27
 3342 00f0 19       		.uleb128 0x19
 3343 00f1 20       		.uleb128 0x20
 3344 00f2 0B       		.uleb128 0xb
 3345 00f3 01       		.uleb128 0x1
 3346 00f4 13       		.uleb128 0x13
 3347 00f5 00       		.byte	0
 3348 00f6 00       		.byte	0
 3349 00f7 16       		.uleb128 0x16
 3350 00f8 34       		.uleb128 0x34
 3351 00f9 00       		.byte	0
ARM GAS  /tmp/ccLB3ATm.s 			page 60


 3352 00fa 03       		.uleb128 0x3
 3353 00fb 08       		.uleb128 0x8
 3354 00fc 3A       		.uleb128 0x3a
 3355 00fd 0B       		.uleb128 0xb
 3356 00fe 3B       		.uleb128 0x3b
 3357 00ff 0B       		.uleb128 0xb
 3358 0100 49       		.uleb128 0x49
 3359 0101 13       		.uleb128 0x13
 3360 0102 00       		.byte	0
 3361 0103 00       		.byte	0
 3362 0104 17       		.uleb128 0x17
 3363 0105 2E       		.uleb128 0x2e
 3364 0106 01       		.byte	0x1
 3365 0107 03       		.uleb128 0x3
 3366 0108 0E       		.uleb128 0xe
 3367 0109 3A       		.uleb128 0x3a
 3368 010a 0B       		.uleb128 0xb
 3369 010b 3B       		.uleb128 0x3b
 3370 010c 0B       		.uleb128 0xb
 3371 010d 27       		.uleb128 0x27
 3372 010e 19       		.uleb128 0x19
 3373 010f 11       		.uleb128 0x11
 3374 0110 01       		.uleb128 0x1
 3375 0111 12       		.uleb128 0x12
 3376 0112 06       		.uleb128 0x6
 3377 0113 40       		.uleb128 0x40
 3378 0114 18       		.uleb128 0x18
 3379 0115 9742     		.uleb128 0x2117
 3380 0117 19       		.uleb128 0x19
 3381 0118 01       		.uleb128 0x1
 3382 0119 13       		.uleb128 0x13
 3383 011a 00       		.byte	0
 3384 011b 00       		.byte	0
 3385 011c 18       		.uleb128 0x18
 3386 011d 34       		.uleb128 0x34
 3387 011e 00       		.byte	0
 3388 011f 03       		.uleb128 0x3
 3389 0120 08       		.uleb128 0x8
 3390 0121 3A       		.uleb128 0x3a
 3391 0122 0B       		.uleb128 0xb
 3392 0123 3B       		.uleb128 0x3b
 3393 0124 0B       		.uleb128 0xb
 3394 0125 49       		.uleb128 0x49
 3395 0126 13       		.uleb128 0x13
 3396 0127 02       		.uleb128 0x2
 3397 0128 18       		.uleb128 0x18
 3398 0129 00       		.byte	0
 3399 012a 00       		.byte	0
 3400 012b 19       		.uleb128 0x19
 3401 012c 898201   		.uleb128 0x4109
 3402 012f 01       		.byte	0x1
 3403 0130 11       		.uleb128 0x11
 3404 0131 01       		.uleb128 0x1
 3405 0132 31       		.uleb128 0x31
 3406 0133 13       		.uleb128 0x13
 3407 0134 01       		.uleb128 0x1
 3408 0135 13       		.uleb128 0x13
ARM GAS  /tmp/ccLB3ATm.s 			page 61


 3409 0136 00       		.byte	0
 3410 0137 00       		.byte	0
 3411 0138 1A       		.uleb128 0x1a
 3412 0139 8A8201   		.uleb128 0x410a
 3413 013c 00       		.byte	0
 3414 013d 02       		.uleb128 0x2
 3415 013e 18       		.uleb128 0x18
 3416 013f 9142     		.uleb128 0x2111
 3417 0141 18       		.uleb128 0x18
 3418 0142 00       		.byte	0
 3419 0143 00       		.byte	0
 3420 0144 1B       		.uleb128 0x1b
 3421 0145 898201   		.uleb128 0x4109
 3422 0148 01       		.byte	0x1
 3423 0149 11       		.uleb128 0x11
 3424 014a 01       		.uleb128 0x1
 3425 014b 31       		.uleb128 0x31
 3426 014c 13       		.uleb128 0x13
 3427 014d 00       		.byte	0
 3428 014e 00       		.byte	0
 3429 014f 1C       		.uleb128 0x1c
 3430 0150 2E       		.uleb128 0x2e
 3431 0151 01       		.byte	0x1
 3432 0152 03       		.uleb128 0x3
 3433 0153 08       		.uleb128 0x8
 3434 0154 3A       		.uleb128 0x3a
 3435 0155 0B       		.uleb128 0xb
 3436 0156 3B       		.uleb128 0x3b
 3437 0157 0B       		.uleb128 0xb
 3438 0158 27       		.uleb128 0x27
 3439 0159 19       		.uleb128 0x19
 3440 015a 11       		.uleb128 0x11
 3441 015b 01       		.uleb128 0x1
 3442 015c 12       		.uleb128 0x12
 3443 015d 06       		.uleb128 0x6
 3444 015e 40       		.uleb128 0x40
 3445 015f 18       		.uleb128 0x18
 3446 0160 9742     		.uleb128 0x2117
 3447 0162 19       		.uleb128 0x19
 3448 0163 01       		.uleb128 0x1
 3449 0164 13       		.uleb128 0x13
 3450 0165 00       		.byte	0
 3451 0166 00       		.byte	0
 3452 0167 1D       		.uleb128 0x1d
 3453 0168 05       		.uleb128 0x5
 3454 0169 00       		.byte	0
 3455 016a 03       		.uleb128 0x3
 3456 016b 08       		.uleb128 0x8
 3457 016c 3A       		.uleb128 0x3a
 3458 016d 0B       		.uleb128 0xb
 3459 016e 3B       		.uleb128 0x3b
 3460 016f 0B       		.uleb128 0xb
 3461 0170 49       		.uleb128 0x49
 3462 0171 13       		.uleb128 0x13
 3463 0172 02       		.uleb128 0x2
 3464 0173 17       		.uleb128 0x17
 3465 0174 00       		.byte	0
ARM GAS  /tmp/ccLB3ATm.s 			page 62


 3466 0175 00       		.byte	0
 3467 0176 1E       		.uleb128 0x1e
 3468 0177 898201   		.uleb128 0x4109
 3469 017a 01       		.byte	0x1
 3470 017b 11       		.uleb128 0x11
 3471 017c 01       		.uleb128 0x1
 3472 017d 9542     		.uleb128 0x2115
 3473 017f 19       		.uleb128 0x19
 3474 0180 31       		.uleb128 0x31
 3475 0181 13       		.uleb128 0x13
 3476 0182 00       		.byte	0
 3477 0183 00       		.byte	0
 3478 0184 1F       		.uleb128 0x1f
 3479 0185 34       		.uleb128 0x34
 3480 0186 00       		.byte	0
 3481 0187 03       		.uleb128 0x3
 3482 0188 08       		.uleb128 0x8
 3483 0189 3A       		.uleb128 0x3a
 3484 018a 0B       		.uleb128 0xb
 3485 018b 3B       		.uleb128 0x3b
 3486 018c 0B       		.uleb128 0xb
 3487 018d 49       		.uleb128 0x49
 3488 018e 13       		.uleb128 0x13
 3489 018f 02       		.uleb128 0x2
 3490 0190 17       		.uleb128 0x17
 3491 0191 00       		.byte	0
 3492 0192 00       		.byte	0
 3493 0193 20       		.uleb128 0x20
 3494 0194 34       		.uleb128 0x34
 3495 0195 00       		.byte	0
 3496 0196 03       		.uleb128 0x3
 3497 0197 0E       		.uleb128 0xe
 3498 0198 3A       		.uleb128 0x3a
 3499 0199 0B       		.uleb128 0xb
 3500 019a 3B       		.uleb128 0x3b
 3501 019b 0B       		.uleb128 0xb
 3502 019c 49       		.uleb128 0x49
 3503 019d 13       		.uleb128 0x13
 3504 019e 02       		.uleb128 0x2
 3505 019f 17       		.uleb128 0x17
 3506 01a0 00       		.byte	0
 3507 01a1 00       		.byte	0
 3508 01a2 21       		.uleb128 0x21
 3509 01a3 898201   		.uleb128 0x4109
 3510 01a6 00       		.byte	0
 3511 01a7 11       		.uleb128 0x11
 3512 01a8 01       		.uleb128 0x1
 3513 01a9 31       		.uleb128 0x31
 3514 01aa 13       		.uleb128 0x13
 3515 01ab 00       		.byte	0
 3516 01ac 00       		.byte	0
 3517 01ad 22       		.uleb128 0x22
 3518 01ae 2E       		.uleb128 0x2e
 3519 01af 01       		.byte	0x1
 3520 01b0 03       		.uleb128 0x3
 3521 01b1 0E       		.uleb128 0xe
 3522 01b2 3A       		.uleb128 0x3a
ARM GAS  /tmp/ccLB3ATm.s 			page 63


 3523 01b3 0B       		.uleb128 0xb
 3524 01b4 3B       		.uleb128 0x3b
 3525 01b5 0B       		.uleb128 0xb
 3526 01b6 27       		.uleb128 0x27
 3527 01b7 19       		.uleb128 0x19
 3528 01b8 49       		.uleb128 0x49
 3529 01b9 13       		.uleb128 0x13
 3530 01ba 11       		.uleb128 0x11
 3531 01bb 01       		.uleb128 0x1
 3532 01bc 12       		.uleb128 0x12
 3533 01bd 06       		.uleb128 0x6
 3534 01be 40       		.uleb128 0x40
 3535 01bf 18       		.uleb128 0x18
 3536 01c0 9742     		.uleb128 0x2117
 3537 01c2 19       		.uleb128 0x19
 3538 01c3 01       		.uleb128 0x1
 3539 01c4 13       		.uleb128 0x13
 3540 01c5 00       		.byte	0
 3541 01c6 00       		.byte	0
 3542 01c7 23       		.uleb128 0x23
 3543 01c8 2E       		.uleb128 0x2e
 3544 01c9 01       		.byte	0x1
 3545 01ca 31       		.uleb128 0x31
 3546 01cb 13       		.uleb128 0x13
 3547 01cc 11       		.uleb128 0x11
 3548 01cd 01       		.uleb128 0x1
 3549 01ce 12       		.uleb128 0x12
 3550 01cf 06       		.uleb128 0x6
 3551 01d0 40       		.uleb128 0x40
 3552 01d1 18       		.uleb128 0x18
 3553 01d2 9742     		.uleb128 0x2117
 3554 01d4 19       		.uleb128 0x19
 3555 01d5 01       		.uleb128 0x1
 3556 01d6 13       		.uleb128 0x13
 3557 01d7 00       		.byte	0
 3558 01d8 00       		.byte	0
 3559 01d9 24       		.uleb128 0x24
 3560 01da 34       		.uleb128 0x34
 3561 01db 00       		.byte	0
 3562 01dc 31       		.uleb128 0x31
 3563 01dd 13       		.uleb128 0x13
 3564 01de 02       		.uleb128 0x2
 3565 01df 17       		.uleb128 0x17
 3566 01e0 00       		.byte	0
 3567 01e1 00       		.byte	0
 3568 01e2 25       		.uleb128 0x25
 3569 01e3 0B       		.uleb128 0xb
 3570 01e4 01       		.byte	0x1
 3571 01e5 55       		.uleb128 0x55
 3572 01e6 17       		.uleb128 0x17
 3573 01e7 01       		.uleb128 0x1
 3574 01e8 13       		.uleb128 0x13
 3575 01e9 00       		.byte	0
 3576 01ea 00       		.byte	0
 3577 01eb 26       		.uleb128 0x26
 3578 01ec 01       		.uleb128 0x1
 3579 01ed 01       		.byte	0x1
ARM GAS  /tmp/ccLB3ATm.s 			page 64


 3580 01ee 49       		.uleb128 0x49
 3581 01ef 13       		.uleb128 0x13
 3582 01f0 01       		.uleb128 0x1
 3583 01f1 13       		.uleb128 0x13
 3584 01f2 00       		.byte	0
 3585 01f3 00       		.byte	0
 3586 01f4 27       		.uleb128 0x27
 3587 01f5 21       		.uleb128 0x21
 3588 01f6 00       		.byte	0
 3589 01f7 49       		.uleb128 0x49
 3590 01f8 13       		.uleb128 0x13
 3591 01f9 2F       		.uleb128 0x2f
 3592 01fa 0B       		.uleb128 0xb
 3593 01fb 00       		.byte	0
 3594 01fc 00       		.byte	0
 3595 01fd 28       		.uleb128 0x28
 3596 01fe 34       		.uleb128 0x34
 3597 01ff 00       		.byte	0
 3598 0200 03       		.uleb128 0x3
 3599 0201 0E       		.uleb128 0xe
 3600 0202 3A       		.uleb128 0x3a
 3601 0203 0B       		.uleb128 0xb
 3602 0204 3B       		.uleb128 0x3b
 3603 0205 0B       		.uleb128 0xb
 3604 0206 49       		.uleb128 0x49
 3605 0207 13       		.uleb128 0x13
 3606 0208 02       		.uleb128 0x2
 3607 0209 18       		.uleb128 0x18
 3608 020a 00       		.byte	0
 3609 020b 00       		.byte	0
 3610 020c 29       		.uleb128 0x29
 3611 020d 34       		.uleb128 0x34
 3612 020e 00       		.byte	0
 3613 020f 03       		.uleb128 0x3
 3614 0210 0E       		.uleb128 0xe
 3615 0211 3A       		.uleb128 0x3a
 3616 0212 0B       		.uleb128 0xb
 3617 0213 3B       		.uleb128 0x3b
 3618 0214 0B       		.uleb128 0xb
 3619 0215 49       		.uleb128 0x49
 3620 0216 13       		.uleb128 0x13
 3621 0217 3F       		.uleb128 0x3f
 3622 0218 19       		.uleb128 0x19
 3623 0219 3C       		.uleb128 0x3c
 3624 021a 19       		.uleb128 0x19
 3625 021b 00       		.byte	0
 3626 021c 00       		.byte	0
 3627 021d 2A       		.uleb128 0x2a
 3628 021e 21       		.uleb128 0x21
 3629 021f 00       		.byte	0
 3630 0220 00       		.byte	0
 3631 0221 00       		.byte	0
 3632 0222 2B       		.uleb128 0x2b
 3633 0223 34       		.uleb128 0x34
 3634 0224 00       		.byte	0
 3635 0225 03       		.uleb128 0x3
 3636 0226 08       		.uleb128 0x8
ARM GAS  /tmp/ccLB3ATm.s 			page 65


 3637 0227 3A       		.uleb128 0x3a
 3638 0228 0B       		.uleb128 0xb
 3639 0229 3B       		.uleb128 0x3b
 3640 022a 0B       		.uleb128 0xb
 3641 022b 49       		.uleb128 0x49
 3642 022c 13       		.uleb128 0x13
 3643 022d 3F       		.uleb128 0x3f
 3644 022e 19       		.uleb128 0x19
 3645 022f 3C       		.uleb128 0x3c
 3646 0230 19       		.uleb128 0x19
 3647 0231 00       		.byte	0
 3648 0232 00       		.byte	0
 3649 0233 2C       		.uleb128 0x2c
 3650 0234 34       		.uleb128 0x34
 3651 0235 00       		.byte	0
 3652 0236 03       		.uleb128 0x3
 3653 0237 0E       		.uleb128 0xe
 3654 0238 3A       		.uleb128 0x3a
 3655 0239 0B       		.uleb128 0xb
 3656 023a 3B       		.uleb128 0x3b
 3657 023b 0B       		.uleb128 0xb
 3658 023c 49       		.uleb128 0x49
 3659 023d 13       		.uleb128 0x13
 3660 023e 3F       		.uleb128 0x3f
 3661 023f 19       		.uleb128 0x19
 3662 0240 02       		.uleb128 0x2
 3663 0241 18       		.uleb128 0x18
 3664 0242 00       		.byte	0
 3665 0243 00       		.byte	0
 3666 0244 2D       		.uleb128 0x2d
 3667 0245 34       		.uleb128 0x34
 3668 0246 00       		.byte	0
 3669 0247 03       		.uleb128 0x3
 3670 0248 0E       		.uleb128 0xe
 3671 0249 3A       		.uleb128 0x3a
 3672 024a 0B       		.uleb128 0xb
 3673 024b 3B       		.uleb128 0x3b
 3674 024c 05       		.uleb128 0x5
 3675 024d 49       		.uleb128 0x49
 3676 024e 13       		.uleb128 0x13
 3677 024f 3F       		.uleb128 0x3f
 3678 0250 19       		.uleb128 0x19
 3679 0251 02       		.uleb128 0x2
 3680 0252 18       		.uleb128 0x18
 3681 0253 00       		.byte	0
 3682 0254 00       		.byte	0
 3683 0255 2E       		.uleb128 0x2e
 3684 0256 2E       		.uleb128 0x2e
 3685 0257 01       		.byte	0x1
 3686 0258 3F       		.uleb128 0x3f
 3687 0259 19       		.uleb128 0x19
 3688 025a 03       		.uleb128 0x3
 3689 025b 0E       		.uleb128 0xe
 3690 025c 3A       		.uleb128 0x3a
 3691 025d 0B       		.uleb128 0xb
 3692 025e 3B       		.uleb128 0x3b
 3693 025f 0B       		.uleb128 0xb
ARM GAS  /tmp/ccLB3ATm.s 			page 66


 3694 0260 27       		.uleb128 0x27
 3695 0261 19       		.uleb128 0x19
 3696 0262 3C       		.uleb128 0x3c
 3697 0263 19       		.uleb128 0x19
 3698 0264 01       		.uleb128 0x1
 3699 0265 13       		.uleb128 0x13
 3700 0266 00       		.byte	0
 3701 0267 00       		.byte	0
 3702 0268 2F       		.uleb128 0x2f
 3703 0269 2E       		.uleb128 0x2e
 3704 026a 01       		.byte	0x1
 3705 026b 3F       		.uleb128 0x3f
 3706 026c 19       		.uleb128 0x19
 3707 026d 03       		.uleb128 0x3
 3708 026e 0E       		.uleb128 0xe
 3709 026f 3A       		.uleb128 0x3a
 3710 0270 0B       		.uleb128 0xb
 3711 0271 3B       		.uleb128 0x3b
 3712 0272 0B       		.uleb128 0xb
 3713 0273 27       		.uleb128 0x27
 3714 0274 19       		.uleb128 0x19
 3715 0275 49       		.uleb128 0x49
 3716 0276 13       		.uleb128 0x13
 3717 0277 3C       		.uleb128 0x3c
 3718 0278 19       		.uleb128 0x19
 3719 0279 01       		.uleb128 0x1
 3720 027a 13       		.uleb128 0x13
 3721 027b 00       		.byte	0
 3722 027c 00       		.byte	0
 3723 027d 30       		.uleb128 0x30
 3724 027e 2E       		.uleb128 0x2e
 3725 027f 00       		.byte	0
 3726 0280 3F       		.uleb128 0x3f
 3727 0281 19       		.uleb128 0x19
 3728 0282 03       		.uleb128 0x3
 3729 0283 0E       		.uleb128 0xe
 3730 0284 3A       		.uleb128 0x3a
 3731 0285 0B       		.uleb128 0xb
 3732 0286 3B       		.uleb128 0x3b
 3733 0287 0B       		.uleb128 0xb
 3734 0288 27       		.uleb128 0x27
 3735 0289 19       		.uleb128 0x19
 3736 028a 49       		.uleb128 0x49
 3737 028b 13       		.uleb128 0x13
 3738 028c 3C       		.uleb128 0x3c
 3739 028d 19       		.uleb128 0x19
 3740 028e 00       		.byte	0
 3741 028f 00       		.byte	0
 3742 0290 31       		.uleb128 0x31
 3743 0291 2E       		.uleb128 0x2e
 3744 0292 01       		.byte	0x1
 3745 0293 3F       		.uleb128 0x3f
 3746 0294 19       		.uleb128 0x19
 3747 0295 03       		.uleb128 0x3
 3748 0296 0E       		.uleb128 0xe
 3749 0297 3A       		.uleb128 0x3a
 3750 0298 0B       		.uleb128 0xb
ARM GAS  /tmp/ccLB3ATm.s 			page 67


 3751 0299 3B       		.uleb128 0x3b
 3752 029a 05       		.uleb128 0x5
 3753 029b 27       		.uleb128 0x27
 3754 029c 19       		.uleb128 0x19
 3755 029d 49       		.uleb128 0x49
 3756 029e 13       		.uleb128 0x13
 3757 029f 3C       		.uleb128 0x3c
 3758 02a0 19       		.uleb128 0x19
 3759 02a1 01       		.uleb128 0x1
 3760 02a2 13       		.uleb128 0x13
 3761 02a3 00       		.byte	0
 3762 02a4 00       		.byte	0
 3763 02a5 32       		.uleb128 0x32
 3764 02a6 2E       		.uleb128 0x2e
 3765 02a7 00       		.byte	0
 3766 02a8 3F       		.uleb128 0x3f
 3767 02a9 19       		.uleb128 0x19
 3768 02aa 03       		.uleb128 0x3
 3769 02ab 0E       		.uleb128 0xe
 3770 02ac 3A       		.uleb128 0x3a
 3771 02ad 0B       		.uleb128 0xb
 3772 02ae 3B       		.uleb128 0x3b
 3773 02af 0B       		.uleb128 0xb
 3774 02b0 27       		.uleb128 0x27
 3775 02b1 19       		.uleb128 0x19
 3776 02b2 3C       		.uleb128 0x3c
 3777 02b3 19       		.uleb128 0x19
 3778 02b4 00       		.byte	0
 3779 02b5 00       		.byte	0
 3780 02b6 33       		.uleb128 0x33
 3781 02b7 2E       		.uleb128 0x2e
 3782 02b8 01       		.byte	0x1
 3783 02b9 3F       		.uleb128 0x3f
 3784 02ba 19       		.uleb128 0x19
 3785 02bb 03       		.uleb128 0x3
 3786 02bc 0E       		.uleb128 0xe
 3787 02bd 3A       		.uleb128 0x3a
 3788 02be 0B       		.uleb128 0xb
 3789 02bf 3B       		.uleb128 0x3b
 3790 02c0 05       		.uleb128 0x5
 3791 02c1 27       		.uleb128 0x27
 3792 02c2 19       		.uleb128 0x19
 3793 02c3 3C       		.uleb128 0x3c
 3794 02c4 19       		.uleb128 0x19
 3795 02c5 01       		.uleb128 0x1
 3796 02c6 13       		.uleb128 0x13
 3797 02c7 00       		.byte	0
 3798 02c8 00       		.byte	0
 3799 02c9 34       		.uleb128 0x34
 3800 02ca 2E       		.uleb128 0x2e
 3801 02cb 01       		.byte	0x1
 3802 02cc 3F       		.uleb128 0x3f
 3803 02cd 19       		.uleb128 0x19
 3804 02ce 03       		.uleb128 0x3
 3805 02cf 0E       		.uleb128 0xe
 3806 02d0 3A       		.uleb128 0x3a
 3807 02d1 0B       		.uleb128 0xb
ARM GAS  /tmp/ccLB3ATm.s 			page 68


 3808 02d2 3B       		.uleb128 0x3b
 3809 02d3 0B       		.uleb128 0xb
 3810 02d4 27       		.uleb128 0x27
 3811 02d5 19       		.uleb128 0x19
 3812 02d6 49       		.uleb128 0x49
 3813 02d7 13       		.uleb128 0x13
 3814 02d8 3C       		.uleb128 0x3c
 3815 02d9 19       		.uleb128 0x19
 3816 02da 00       		.byte	0
 3817 02db 00       		.byte	0
 3818 02dc 00       		.byte	0
 3819              		.section	.debug_loc,"",%progbits
 3820              	.Ldebug_loc0:
 3821              	.LLST0:
 3822 0000 00000000 		.4byte	.LVL9
 3823 0004 02000000 		.4byte	.LVL10
 3824 0008 0100     		.2byte	0x1
 3825 000a 50       		.byte	0x50
 3826 000b 02000000 		.4byte	.LVL10
 3827 000f 06000000 		.4byte	.LFE10
 3828 0013 0400     		.2byte	0x4
 3829 0015 F3       		.byte	0xf3
 3830 0016 01       		.uleb128 0x1
 3831 0017 50       		.byte	0x50
 3832 0018 9F       		.byte	0x9f
 3833 0019 00000000 		.4byte	0
 3834 001d 00000000 		.4byte	0
 3835              	.LLST1:
 3836 0021 00000000 		.4byte	.LVL12
 3837 0025 02000000 		.4byte	.LVL13
 3838 0029 0100     		.2byte	0x1
 3839 002b 50       		.byte	0x50
 3840 002c 02000000 		.4byte	.LVL13
 3841 0030 06000000 		.4byte	.LFE9
 3842 0034 0400     		.2byte	0x4
 3843 0036 F3       		.byte	0xf3
 3844 0037 01       		.uleb128 0x1
 3845 0038 50       		.byte	0x50
 3846 0039 9F       		.byte	0x9f
 3847 003a 00000000 		.4byte	0
 3848 003e 00000000 		.4byte	0
 3849              	.LLST2:
 3850 0042 00000000 		.4byte	.LVL15
 3851 0046 02000000 		.4byte	.LVL16
 3852 004a 0100     		.2byte	0x1
 3853 004c 50       		.byte	0x50
 3854 004d 02000000 		.4byte	.LVL16
 3855 0051 06000000 		.4byte	.LFE8
 3856 0055 0400     		.2byte	0x4
 3857 0057 F3       		.byte	0xf3
 3858 0058 01       		.uleb128 0x1
 3859 0059 50       		.byte	0x50
 3860 005a 9F       		.byte	0x9f
 3861 005b 00000000 		.4byte	0
 3862 005f 00000000 		.4byte	0
 3863              	.LLST3:
 3864 0063 14000000 		.4byte	.LVL22
ARM GAS  /tmp/ccLB3ATm.s 			page 69


 3865 0067 22000000 		.4byte	.LVL23
 3866 006b 0100     		.2byte	0x1
 3867 006d 50       		.byte	0x50
 3868 006e 22000000 		.4byte	.LVL23
 3869 0072 28000000 		.4byte	.LVL25
 3870 0076 0300     		.2byte	0x3
 3871 0078 79       		.byte	0x79
 3872 0079 01       		.sleb128 1
 3873 007a 9F       		.byte	0x9f
 3874 007b 2E000000 		.4byte	.LVL26
 3875 007f 36000000 		.4byte	.LVL27
 3876 0083 0300     		.2byte	0x3
 3877 0085 79       		.byte	0x79
 3878 0086 01       		.sleb128 1
 3879 0087 9F       		.byte	0x9f
 3880 0088 36000000 		.4byte	.LVL27
 3881 008c 44000000 		.4byte	.LVL28
 3882 0090 0100     		.2byte	0x1
 3883 0092 50       		.byte	0x50
 3884 0093 44000000 		.4byte	.LVL28
 3885 0097 54000000 		.4byte	.LVL30
 3886 009b 0300     		.2byte	0x3
 3887 009d 78       		.byte	0x78
 3888 009e 04       		.sleb128 4
 3889 009f 9F       		.byte	0x9f
 3890 00a0 54000000 		.4byte	.LVL30
 3891 00a4 5E000000 		.4byte	.LVL31
 3892 00a8 0100     		.2byte	0x1
 3893 00aa 50       		.byte	0x50
 3894 00ab BA000000 		.4byte	.LVL38
 3895 00af C0000000 		.4byte	.LVL39
 3896 00b3 0100     		.2byte	0x1
 3897 00b5 50       		.byte	0x50
 3898 00b6 C0000000 		.4byte	.LVL39
 3899 00ba E6000000 		.4byte	.LVL42
 3900 00be 0100     		.2byte	0x1
 3901 00c0 59       		.byte	0x59
 3902 00c1 E6000000 		.4byte	.LVL42
 3903 00c5 F0000000 		.4byte	.LVL43
 3904 00c9 0100     		.2byte	0x1
 3905 00cb 50       		.byte	0x50
 3906 00cc 0A010000 		.4byte	.LVL47
 3907 00d0 18010000 		.4byte	.LVL48
 3908 00d4 0100     		.2byte	0x1
 3909 00d6 50       		.byte	0x50
 3910 00d7 18010000 		.4byte	.LVL48
 3911 00db 1B010000 		.4byte	.LVL49-1
 3912 00df 0300     		.2byte	0x3
 3913 00e1 7E       		.byte	0x7e
 3914 00e2 05       		.sleb128 5
 3915 00e3 9F       		.byte	0x9f
 3916 00e4 28010000 		.4byte	.LVL50
 3917 00e8 32010000 		.4byte	.LVL51
 3918 00ec 0100     		.2byte	0x1
 3919 00ee 50       		.byte	0x50
 3920 00ef 6E010000 		.4byte	.LVL58
 3921 00f3 74010000 		.4byte	.LVL59
ARM GAS  /tmp/ccLB3ATm.s 			page 70


 3922 00f7 0100     		.2byte	0x1
 3923 00f9 50       		.byte	0x50
 3924 00fa 74010000 		.4byte	.LVL59
 3925 00fe 9A010000 		.4byte	.LVL62
 3926 0102 0100     		.2byte	0x1
 3927 0104 59       		.byte	0x59
 3928 0105 9A010000 		.4byte	.LVL62
 3929 0109 A4010000 		.4byte	.LVL63
 3930 010d 0100     		.2byte	0x1
 3931 010f 50       		.byte	0x50
 3932 0110 2A020000 		.4byte	.LVL75
 3933 0114 34020000 		.4byte	.LVL76
 3934 0118 0100     		.2byte	0x1
 3935 011a 50       		.byte	0x50
 3936 011b 00000000 		.4byte	0
 3937 011f 00000000 		.4byte	0
 3938              	.LLST4:
 3939 0123 9E000000 		.4byte	.LVL34
 3940 0127 B8000000 		.4byte	.LVL37
 3941 012b 0300     		.2byte	0x3
 3942 012d 77       		.byte	0x77
 3943 012e 32       		.sleb128 50
 3944 012f 9F       		.byte	0x9f
 3945 0130 B8000000 		.4byte	.LVL37
 3946 0134 C3000000 		.4byte	.LVL40-1
 3947 0138 0100     		.2byte	0x1
 3948 013a 51       		.byte	0x51
 3949 013b C3000000 		.4byte	.LVL40-1
 3950 013f 5A010000 		.4byte	.LVL54
 3951 0143 0300     		.2byte	0x3
 3952 0145 77       		.byte	0x77
 3953 0146 32       		.sleb128 50
 3954 0147 9F       		.byte	0x9f
 3955 0148 5A010000 		.4byte	.LVL54
 3956 014c 6C010000 		.4byte	.LVL57
 3957 0150 0300     		.2byte	0x3
 3958 0152 78       		.byte	0x78
 3959 0153 32       		.sleb128 50
 3960 0154 9F       		.byte	0x9f
 3961 0155 6C010000 		.4byte	.LVL57
 3962 0159 77010000 		.4byte	.LVL60-1
 3963 015d 0100     		.2byte	0x1
 3964 015f 51       		.byte	0x51
 3965 0160 77010000 		.4byte	.LVL60-1
 3966 0164 BA010000 		.4byte	.LVL65
 3967 0168 0300     		.2byte	0x3
 3968 016a 78       		.byte	0x78
 3969 016b 32       		.sleb128 50
 3970 016c 9F       		.byte	0x9f
 3971 016d 02020000 		.4byte	.LVL70
 3972 0171 12020000 		.4byte	.LVL73
 3973 0175 0300     		.2byte	0x3
 3974 0177 74       		.byte	0x74
 3975 0178 32       		.sleb128 50
 3976 0179 9F       		.byte	0x9f
 3977 017a 12020000 		.4byte	.LVL73
 3978 017e 1B020000 		.4byte	.LVL74-1
ARM GAS  /tmp/ccLB3ATm.s 			page 71


 3979 0182 0100     		.2byte	0x1
 3980 0184 51       		.byte	0x51
 3981 0185 1B020000 		.4byte	.LVL74-1
 3982 0189 5C020000 		.4byte	.LVL81
 3983 018d 0300     		.2byte	0x3
 3984 018f 74       		.byte	0x74
 3985 0190 32       		.sleb128 50
 3986 0191 9F       		.byte	0x9f
 3987 0192 00000000 		.4byte	0
 3988 0196 00000000 		.4byte	0
 3989              	.LLST5:
 3990 019a 00000000 		.4byte	.LVL84
 3991 019e 06000000 		.4byte	.LVL85
 3992 01a2 0100     		.2byte	0x1
 3993 01a4 50       		.byte	0x50
 3994 01a5 06000000 		.4byte	.LVL85
 3995 01a9 28000000 		.4byte	.LFE14
 3996 01ad 0400     		.2byte	0x4
 3997 01af F3       		.byte	0xf3
 3998 01b0 01       		.uleb128 0x1
 3999 01b1 50       		.byte	0x50
 4000 01b2 9F       		.byte	0x9f
 4001 01b3 00000000 		.4byte	0
 4002 01b7 00000000 		.4byte	0
 4003              	.LLST6:
 4004 01bb 00000000 		.4byte	.LVL89
 4005 01bf 06000000 		.4byte	.LVL90
 4006 01c3 0100     		.2byte	0x1
 4007 01c5 50       		.byte	0x50
 4008 01c6 06000000 		.4byte	.LVL90
 4009 01ca 16000000 		.4byte	.LFE13
 4010 01ce 0100     		.2byte	0x1
 4011 01d0 54       		.byte	0x54
 4012 01d1 00000000 		.4byte	0
 4013 01d5 00000000 		.4byte	0
 4014              	.LLST7:
 4015 01d9 0C000000 		.4byte	.LVL93
 4016 01dd 16000000 		.4byte	.LVL94
 4017 01e1 0100     		.2byte	0x1
 4018 01e3 50       		.byte	0x50
 4019 01e4 28000000 		.4byte	.LVL96
 4020 01e8 32000000 		.4byte	.LVL97
 4021 01ec 0100     		.2byte	0x1
 4022 01ee 50       		.byte	0x50
 4023 01ef 44000000 		.4byte	.LVL99
 4024 01f3 4E000000 		.4byte	.LVL100
 4025 01f7 0100     		.2byte	0x1
 4026 01f9 50       		.byte	0x50
 4027 01fa 00000000 		.4byte	0
 4028 01fe 00000000 		.4byte	0
 4029              	.LLST8:
 4030 0202 60000000 		.4byte	.LVL102
 4031 0206 6A000000 		.4byte	.LVL103
 4032 020a 0100     		.2byte	0x1
 4033 020c 50       		.byte	0x50
 4034 020d 7C000000 		.4byte	.LVL105
 4035 0211 86000000 		.4byte	.LVL106
ARM GAS  /tmp/ccLB3ATm.s 			page 72


 4036 0215 0100     		.2byte	0x1
 4037 0217 50       		.byte	0x50
 4038 0218 98000000 		.4byte	.LVL108
 4039 021c A6000000 		.4byte	.LVL109
 4040 0220 0100     		.2byte	0x1
 4041 0222 50       		.byte	0x50
 4042 0223 00000000 		.4byte	0
 4043 0227 00000000 		.4byte	0
 4044              		.section	.debug_aranges,"",%progbits
 4045 0000 6C000000 		.4byte	0x6c
 4046 0004 0200     		.2byte	0x2
 4047 0006 00000000 		.4byte	.Ldebug_info0
 4048 000a 04       		.byte	0x4
 4049 000b 00       		.byte	0
 4050 000c 0000     		.2byte	0
 4051 000e 0000     		.2byte	0
 4052 0010 00000000 		.4byte	.LFB11
 4053 0014 88000000 		.4byte	.LFE11-.LFB11
 4054 0018 00000000 		.4byte	.LFB10
 4055 001c 06000000 		.4byte	.LFE10-.LFB10
 4056 0020 00000000 		.4byte	.LFB9
 4057 0024 06000000 		.4byte	.LFE9-.LFB9
 4058 0028 00000000 		.4byte	.LFB8
 4059 002c 06000000 		.4byte	.LFE8-.LFB8
 4060 0030 00000000 		.4byte	.LFB7
 4061 0034 08000000 		.4byte	.LFE7-.LFB7
 4062 0038 00000000 		.4byte	.LFB12
 4063 003c 08000000 		.4byte	.LFE12-.LFB12
 4064 0040 00000000 		.4byte	.LFB16
 4065 0044 08000000 		.4byte	.LFE16-.LFB16
 4066 0048 00000000 		.4byte	.LFB15
 4067 004c 7E020000 		.4byte	.LFE15-.LFB15
 4068 0050 00000000 		.4byte	.LFB14
 4069 0054 28000000 		.4byte	.LFE14-.LFB14
 4070 0058 00000000 		.4byte	.LFB13
 4071 005c 16000000 		.4byte	.LFE13-.LFB13
 4072 0060 00000000 		.4byte	.LFB17
 4073 0064 AA000000 		.4byte	.LFE17-.LFB17
 4074 0068 00000000 		.4byte	0
 4075 006c 00000000 		.4byte	0
 4076              		.section	.debug_ranges,"",%progbits
 4077              	.Ldebug_ranges0:
 4078 0000 56000000 		.4byte	.LBB5
 4079 0004 98000000 		.4byte	.LBE5
 4080 0008 9C000000 		.4byte	.LBB6
 4081 000c AA000000 		.4byte	.LBE6
 4082 0010 00000000 		.4byte	0
 4083 0014 00000000 		.4byte	0
 4084 0018 00000000 		.4byte	.LFB11
 4085 001c 88000000 		.4byte	.LFE11
 4086 0020 00000000 		.4byte	.LFB10
 4087 0024 06000000 		.4byte	.LFE10
 4088 0028 00000000 		.4byte	.LFB9
 4089 002c 06000000 		.4byte	.LFE9
 4090 0030 00000000 		.4byte	.LFB8
 4091 0034 06000000 		.4byte	.LFE8
 4092 0038 00000000 		.4byte	.LFB7
ARM GAS  /tmp/ccLB3ATm.s 			page 73


 4093 003c 08000000 		.4byte	.LFE7
 4094 0040 00000000 		.4byte	.LFB12
 4095 0044 08000000 		.4byte	.LFE12
 4096 0048 00000000 		.4byte	.LFB16
 4097 004c 08000000 		.4byte	.LFE16
 4098 0050 00000000 		.4byte	.LFB15
 4099 0054 7E020000 		.4byte	.LFE15
 4100 0058 00000000 		.4byte	.LFB14
 4101 005c 28000000 		.4byte	.LFE14
 4102 0060 00000000 		.4byte	.LFB13
 4103 0064 16000000 		.4byte	.LFE13
 4104 0068 00000000 		.4byte	.LFB17
 4105 006c AA000000 		.4byte	.LFE17
 4106 0070 00000000 		.4byte	0
 4107 0074 00000000 		.4byte	0
 4108              		.section	.debug_line,"",%progbits
 4109              	.Ldebug_line0:
 4110 0000 A8020000 		.section	.debug_str,"MS",%progbits,1
 4110      02007B01 
 4110      00000201 
 4110      FB0E0D00 
 4110      01010101 
 4111              	.LASF87:
 4112 0000 7466756E 		.ascii	"tfunc_t\000"
 4112      635F7400 
 4113              	.LASF95:
 4114 0008 65767432 		.ascii	"evt2_setup\000"
 4114      5F736574 
 4114      757000
 4115              	.LASF43:
 4116 0013 705F6D73 		.ascii	"p_msg\000"
 4116      6700
 4117              	.LASF2:
 4118 0019 73697A65 		.ascii	"size_t\000"
 4118      5F7400
 4119              	.LASF82:
 4120 0020 7264796D 		.ascii	"rdymsg\000"
 4120      736700
 4121              	.LASF3:
 4122 0027 5F5F7569 		.ascii	"__uint8_t\000"
 4122      6E74385F 
 4122      7400
 4123              	.LASF102:
 4124 0031 76746C69 		.ascii	"vtlist\000"
 4124      737400
 4125              	.LASF124:
 4126 0038 63684576 		.ascii	"chEvtSignal\000"
 4126      74536967 
 4126      6E616C00 
 4127              	.LASF12:
 4128 0044 6C6F6E67 		.ascii	"long long unsigned int\000"
 4128      206C6F6E 
 4128      6720756E 
 4128      7369676E 
 4128      65642069 
 4129              	.LASF116:
 4130 005b 63684576 		.ascii	"chEvtAddEvents\000"
ARM GAS  /tmp/ccLB3ATm.s 			page 74


 4130      74416464 
 4130      4576656E 
 4130      747300
 4131              	.LASF83:
 4132 006a 65786974 		.ascii	"exitcode\000"
 4132      636F6465 
 4132      00
 4133              	.LASF126:
 4134 0073 63684576 		.ascii	"chEvtWaitAnyTimeout\000"
 4134      74576169 
 4134      74416E79 
 4134      54696D65 
 4134      6F757400 
 4135              	.LASF31:
 4136 0087 705F7072 		.ascii	"p_prio\000"
 4136      696F00
 4137              	.LASF97:
 4138 008e 65767432 		.ascii	"evt2_execute\000"
 4138      5F657865 
 4138      63757465 
 4138      00
 4139              	.LASF11:
 4140 009b 6C6F6E67 		.ascii	"long long int\000"
 4140      206C6F6E 
 4140      6720696E 
 4140      7400
 4141              	.LASF1:
 4142 00a9 7369676E 		.ascii	"signed char\000"
 4142      65642063 
 4142      68617200 
 4143              	.LASF127:
 4144 00b5 63684576 		.ascii	"chEvtWaitAllTimeout\000"
 4144      74576169 
 4144      74416C6C 
 4144      54696D65 
 4144      6F757400 
 4145              	.LASF47:
 4146 00c9 705F6D70 		.ascii	"p_mpool\000"
 4146      6F6F6C00 
 4147              	.LASF16:
 4148 00d1 626F6F6C 		.ascii	"bool_t\000"
 4148      5F7400
 4149              	.LASF71:
 4150 00d8 6D5F7175 		.ascii	"m_queue\000"
 4150      65756500 
 4151              	.LASF114:
 4152 00e0 74657374 		.ascii	"test_emit_token\000"
 4152      5F656D69 
 4152      745F746F 
 4152      6B656E00 
 4153              	.LASF21:
 4154 00f0 74736C69 		.ascii	"tslices_t\000"
 4154      6365735F 
 4154      7400
 4155              	.LASF129:
 4156 00fa 2F6F7074 		.ascii	"/opt/ChibiOS_2.6.6/test/testevt.c\000"
 4156      2F436869 
ARM GAS  /tmp/ccLB3ATm.s 			page 75


 4156      62694F53 
 4156      5F322E36 
 4156      2E362F74 
 4157              	.LASF8:
 4158 011c 6C6F6E67 		.ascii	"long int\000"
 4158      20696E74 
 4158      00
 4159              	.LASF98:
 4160 0125 74617267 		.ascii	"target_time\000"
 4160      65745F74 
 4160      696D6500 
 4161              	.LASF19:
 4162 0131 74737461 		.ascii	"tstate_t\000"
 4162      74655F74 
 4162      00
 4163              	.LASF119:
 4164 013a 5F746573 		.ascii	"_test_assert_time_window\000"
 4164      745F6173 
 4164      73657274 
 4164      5F74696D 
 4164      655F7769 
 4165              	.LASF106:
 4166 0153 74657374 		.ascii	"testevt2\000"
 4166      65767432 
 4166      00
 4167              	.LASF120:
 4168 015c 63684576 		.ascii	"chEvtWaitAny\000"
 4168      74576169 
 4168      74416E79 
 4168      00
 4169              	.LASF107:
 4170 0169 74657374 		.ascii	"testevt3\000"
 4170      65767433 
 4170      00
 4171              	.LASF33:
 4172 0172 705F6E65 		.ascii	"p_newer\000"
 4172      77657200 
 4173              	.LASF9:
 4174 017a 5F5F7569 		.ascii	"__uint32_t\000"
 4174      6E743332 
 4174      5F7400
 4175              	.LASF50:
 4176 0185 72656761 		.ascii	"regarm_t\000"
 4176      726D5F74 
 4176      00
 4177              	.LASF57:
 4178 018e 76745F70 		.ascii	"vt_prev\000"
 4178      72657600 
 4179              	.LASF122:
 4180 0196 63684576 		.ascii	"chEvtBroadcastFlags\000"
 4180      7442726F 
 4180      61646361 
 4180      7374466C 
 4180      61677300 
 4181              	.LASF24:
 4182 01aa 6576656E 		.ascii	"eventid_t\000"
 4182      7469645F 
ARM GAS  /tmp/ccLB3ATm.s 			page 76


 4182      7400
 4183              	.LASF79:
 4184 01b4 4576656E 		.ascii	"EventSource\000"
 4184      74536F75 
 4184      72636500 
 4185              	.LASF81:
 4186 01c0 65766861 		.ascii	"evhandler_t\000"
 4186      6E646C65 
 4186      725F7400 
 4187              	.LASF0:
 4188 01cc 756E7369 		.ascii	"unsigned int\000"
 4188      676E6564 
 4188      20696E74 
 4188      00
 4189              	.LASF56:
 4190 01d9 76745F6E 		.ascii	"vt_next\000"
 4190      65787400 
 4191              	.LASF10:
 4192 01e1 6C6F6E67 		.ascii	"long unsigned int\000"
 4192      20756E73 
 4192      69676E65 
 4192      6420696E 
 4192      7400
 4193              	.LASF115:
 4194 01f3 63684576 		.ascii	"chEvtGetAndClearEvents\000"
 4194      74476574 
 4194      416E6443 
 4194      6C656172 
 4194      4576656E 
 4195              	.LASF91:
 4196 020a 74656172 		.ascii	"teardown\000"
 4196      646F776E 
 4196      00
 4197              	.LASF108:
 4198 0213 70617474 		.ascii	"patternevt\000"
 4198      65726E65 
 4198      767400
 4199              	.LASF54:
 4200 021e 76746675 		.ascii	"vtfunc_t\000"
 4200      6E635F74 
 4200      00
 4201              	.LASF89:
 4202 0227 6E616D65 		.ascii	"name\000"
 4202      00
 4203              	.LASF52:
 4204 022c 636F6E74 		.ascii	"context\000"
 4204      65787400 
 4205              	.LASF6:
 4206 0234 73686F72 		.ascii	"short unsigned int\000"
 4206      7420756E 
 4206      7369676E 
 4206      65642069 
 4206      6E7400
 4207              	.LASF109:
 4208 0247 63684576 		.ascii	"chEvtRegisterMask\000"
 4208      74526567 
 4208      69737465 
ARM GAS  /tmp/ccLB3ATm.s 			page 77


 4208      724D6173 
 4208      6B00
 4209              	.LASF23:
 4210 0259 6D73675F 		.ascii	"msg_t\000"
 4210      7400
 4211              	.LASF128:
 4212 025f 474E5520 		.ascii	"GNU C 4.8.2 -mcpu=cortex-m3 -mno-thumb-interwork -m"
 4212      4320342E 
 4212      382E3220 
 4212      2D6D6370 
 4212      753D636F 
 4213 0292 7468756D 		.ascii	"thumb -ggdb -O2 -fomit-frame-pointer -ffunction-sec"
 4213      62202D67 
 4213      67646220 
 4213      2D4F3220 
 4213      2D666F6D 
 4214 02c5 74696F6E 		.ascii	"tions -fdata-sections -fno-common\000"
 4214      73202D66 
 4214      64617461 
 4214      2D736563 
 4214      74696F6E 
 4215              	.LASF75:
 4216 02e7 656C5F6E 		.ascii	"el_next\000"
 4216      65787400 
 4217              	.LASF110:
 4218 02ef 63684576 		.ascii	"chEvtUnregister\000"
 4218      74556E72 
 4218      65676973 
 4218      74657200 
 4219              	.LASF18:
 4220 02ff 746D6F64 		.ascii	"tmode_t\000"
 4220      655F7400 
 4221              	.LASF49:
 4222 0307 54687265 		.ascii	"ThreadsList\000"
 4222      6164734C 
 4222      69737400 
 4223              	.LASF25:
 4224 0313 6576656E 		.ascii	"eventmask_t\000"
 4224      746D6173 
 4224      6B5F7400 
 4225              	.LASF70:
 4226 031f 4D757465 		.ascii	"Mutex\000"
 4226      7800
 4227              	.LASF118:
 4228 0325 63685468 		.ascii	"chThdCreateStatic\000"
 4228      64437265 
 4228      61746553 
 4228      74617469 
 4228      6300
 4229              	.LASF58:
 4230 0337 76745F74 		.ascii	"vt_time\000"
 4230      696D6500 
 4231              	.LASF94:
 4232 033f 65767431 		.ascii	"evt1_setup\000"
 4232      5F736574 
 4232      757000
 4233              	.LASF53:
ARM GAS  /tmp/ccLB3ATm.s 			page 78


 4234 034a 73697A65 		.ascii	"sizetype\000"
 4234      74797065 
 4234      00
 4235              	.LASF59:
 4236 0353 76745F66 		.ascii	"vt_func\000"
 4236      756E6300 
 4237              	.LASF111:
 4238 035b 63684576 		.ascii	"chEvtDispatch\000"
 4238      74446973 
 4238      70617463 
 4238      6800
 4239              	.LASF96:
 4240 0369 65767433 		.ascii	"evt3_setup\000"
 4240      5F736574 
 4240      757000
 4241              	.LASF132:
 4242 0374 74657374 		.ascii	"test_wait_threads\000"
 4242      5F776169 
 4242      745F7468 
 4242      72656164 
 4242      7300
 4243              	.LASF34:
 4244 0386 705F6F6C 		.ascii	"p_older\000"
 4244      64657200 
 4245              	.LASF100:
 4246 038e 74687265 		.ascii	"thread1\000"
 4246      61643100 
 4247              	.LASF99:
 4248 0396 74687265 		.ascii	"thread2\000"
 4248      61643200 
 4249              	.LASF65:
 4250 039e 725F6374 		.ascii	"r_ctx\000"
 4250      7800
 4251              	.LASF66:
 4252 03a4 725F6E65 		.ascii	"r_newer\000"
 4252      77657200 
 4253              	.LASF48:
 4254 03ac 54687265 		.ascii	"ThreadsQueue\000"
 4254      61647351 
 4254      75657565 
 4254      00
 4255              	.LASF90:
 4256 03b9 73657475 		.ascii	"setup\000"
 4256      7000
 4257              	.LASF113:
 4258 03bf 5F746573 		.ascii	"_test_assert_sequence\000"
 4258      745F6173 
 4258      73657274 
 4258      5F736571 
 4258      75656E63 
 4259              	.LASF121:
 4260 03d5 63684576 		.ascii	"chEvtWaitAll\000"
 4260      74576169 
 4260      74416C6C 
 4260      00
 4261              	.LASF68:
 4262 03e2 725F6375 		.ascii	"r_current\000"
ARM GAS  /tmp/ccLB3ATm.s 			page 79


 4262      7272656E 
 4262      7400
 4263              	.LASF67:
 4264 03ec 725F6F6C 		.ascii	"r_older\000"
 4264      64657200 
 4265              	.LASF77:
 4266 03f4 656C5F6D 		.ascii	"el_mask\000"
 4266      61736B00 
 4267              	.LASF20:
 4268 03fc 74726566 		.ascii	"trefs_t\000"
 4268      735F7400 
 4269              	.LASF30:
 4270 0404 705F7072 		.ascii	"p_prev\000"
 4270      657600
 4271              	.LASF92:
 4272 040b 65786563 		.ascii	"execute\000"
 4272      75746500 
 4273              	.LASF22:
 4274 0413 74707269 		.ascii	"tprio_t\000"
 4274      6F5F7400 
 4275              	.LASF17:
 4276 041b 5F426F6F 		.ascii	"_Bool\000"
 4276      6C00
 4277              	.LASF14:
 4278 0421 696E7433 		.ascii	"int32_t\000"
 4278      325F7400 
 4279              	.LASF4:
 4280 0429 756E7369 		.ascii	"unsigned char\000"
 4280      676E6564 
 4280      20636861 
 4280      7200
 4281              	.LASF117:
 4282 0437 63684576 		.ascii	"chEvtWaitOne\000"
 4282      74576169 
 4282      744F6E65 
 4282      00
 4283              	.LASF76:
 4284 0444 656C5F6C 		.ascii	"el_listener\000"
 4284      69737465 
 4284      6E657200 
 4285              	.LASF130:
 4286 0450 65767433 		.ascii	"evt3_execute\000"
 4286      5F657865 
 4286      63757465 
 4286      00
 4287              	.LASF78:
 4288 045d 656C5F66 		.ascii	"el_flags\000"
 4288      6C616773 
 4288      00
 4289              	.LASF45:
 4290 0466 705F6D74 		.ascii	"p_mtxlist\000"
 4290      786C6973 
 4290      7400
 4291              	.LASF5:
 4292 0470 73686F72 		.ascii	"short int\000"
 4292      7420696E 
 4292      7400
ARM GAS  /tmp/ccLB3ATm.s 			page 80


 4293              	.LASF36:
 4294 047a 705F7374 		.ascii	"p_state\000"
 4294      61746500 
 4295              	.LASF39:
 4296 0482 705F7072 		.ascii	"p_preempt\000"
 4296      65656D70 
 4296      7400
 4297              	.LASF104:
 4298 048c 74687265 		.ascii	"threads\000"
 4298      61647300 
 4299              	.LASF64:
 4300 0494 725F7072 		.ascii	"r_prio\000"
 4300      696F00
 4301              	.LASF85:
 4302 049b 65776D61 		.ascii	"ewmask\000"
 4302      736B00
 4303              	.LASF29:
 4304 04a2 705F6E65 		.ascii	"p_next\000"
 4304      787400
 4305              	.LASF37:
 4306 04a9 705F666C 		.ascii	"p_flags\000"
 4306      61677300 
 4307              	.LASF28:
 4308 04b1 54687265 		.ascii	"Thread\000"
 4308      616400
 4309              	.LASF88:
 4310 04b8 74657374 		.ascii	"testcase\000"
 4310      63617365 
 4310      00
 4311              	.LASF44:
 4312 04c1 705F6570 		.ascii	"p_epending\000"
 4312      656E6469 
 4312      6E6700
 4313              	.LASF105:
 4314 04cc 74657374 		.ascii	"testevt1\000"
 4314      65767431 
 4314      00
 4315              	.LASF101:
 4316 04d5 6576686E 		.ascii	"evhndl\000"
 4316      646C00
 4317              	.LASF15:
 4318 04dc 75696E74 		.ascii	"uint32_t\000"
 4318      33325F74 
 4318      00
 4319              	.LASF63:
 4320 04e5 725F7175 		.ascii	"r_queue\000"
 4320      65756500 
 4321              	.LASF55:
 4322 04ed 56697274 		.ascii	"VirtualTimer\000"
 4322      75616C54 
 4322      696D6572 
 4322      00
 4323              	.LASF86:
 4324 04fa 63686172 		.ascii	"char\000"
 4324      00
 4325              	.LASF73:
 4326 04ff 6D5F6E65 		.ascii	"m_next\000"
ARM GAS  /tmp/ccLB3ATm.s 			page 81


 4326      787400
 4327              	.LASF27:
 4328 0506 73797374 		.ascii	"systime_t\000"
 4328      696D655F 
 4328      7400
 4329              	.LASF46:
 4330 0510 705F7265 		.ascii	"p_realprio\000"
 4330      616C7072 
 4330      696F00
 4331              	.LASF7:
 4332 051b 5F5F696E 		.ascii	"__int32_t\000"
 4332      7433325F 
 4332      7400
 4333              	.LASF40:
 4334 0525 705F7469 		.ascii	"p_time\000"
 4334      6D6500
 4335              	.LASF51:
 4336 052c 696E7463 		.ascii	"intctx\000"
 4336      747800
 4337              	.LASF42:
 4338 0533 705F6D73 		.ascii	"p_msgqueue\000"
 4338      67717565 
 4338      756500
 4339              	.LASF60:
 4340 053e 76745F70 		.ascii	"vt_par\000"
 4340      617200
 4341              	.LASF26:
 4342 0545 666C6167 		.ascii	"flagsmask_t\000"
 4342      736D6173 
 4342      6B5F7400 
 4343              	.LASF123:
 4344 0551 63685468 		.ascii	"chThdSleep\000"
 4344      64536C65 
 4344      657000
 4345              	.LASF38:
 4346 055c 705F7265 		.ascii	"p_refs\000"
 4346      667300
 4347              	.LASF69:
 4348 0563 52656164 		.ascii	"ReadyList\000"
 4348      794C6973 
 4348      7400
 4349              	.LASF103:
 4350 056d 726C6973 		.ascii	"rlist\000"
 4350      7400
 4351              	.LASF13:
 4352 0573 75696E74 		.ascii	"uint8_t\000"
 4352      385F7400 
 4353              	.LASF74:
 4354 057b 4576656E 		.ascii	"EventListener\000"
 4354      744C6973 
 4354      74656E65 
 4354      7200
 4355              	.LASF125:
 4356 0589 63684576 		.ascii	"chEvtWaitOneTimeout\000"
 4356      74576169 
 4356      744F6E65 
 4356      54696D65 
ARM GAS  /tmp/ccLB3ATm.s 			page 82


 4356      6F757400 
 4357              	.LASF84:
 4358 059d 77746F62 		.ascii	"wtobjp\000"
 4358      6A7000
 4359              	.LASF35:
 4360 05a4 705F6E61 		.ascii	"p_name\000"
 4360      6D6500
 4361              	.LASF112:
 4362 05ab 5F746573 		.ascii	"_test_assert\000"
 4362      745F6173 
 4362      73657274 
 4362      00
 4363              	.LASF61:
 4364 05b8 76745F73 		.ascii	"vt_systime\000"
 4364      79737469 
 4364      6D6500
 4365              	.LASF80:
 4366 05c3 65735F6E 		.ascii	"es_next\000"
 4366      65787400 
 4367              	.LASF62:
 4368 05cb 56544C69 		.ascii	"VTList\000"
 4368      737400
 4369              	.LASF72:
 4370 05d2 6D5F6F77 		.ascii	"m_owner\000"
 4370      6E657200 
 4371              	.LASF131:
 4372 05da 74657374 		.ascii	"test_wait_tick\000"
 4372      5F776169 
 4372      745F7469 
 4372      636B00
 4373              	.LASF93:
 4374 05e9 65767431 		.ascii	"evt1_execute\000"
 4374      5F657865 
 4374      63757465 
 4374      00
 4375              	.LASF32:
 4376 05f6 705F6374 		.ascii	"p_ctx\000"
 4376      7800
 4377              	.LASF41:
 4378 05fc 705F7761 		.ascii	"p_waiting\000"
 4378      6974696E 
 4378      6700
 4379              		.ident	"GCC: (4.8.2-14ubuntu1+6) 4.8.2"
ARM GAS  /tmp/ccLB3ATm.s 			page 83


DEFINED SYMBOLS
                            *ABS*:0000000000000000 testevt.c
     /tmp/ccLB3ATm.s:19     .text.evt1_execute:0000000000000000 $t
     /tmp/ccLB3ATm.s:23     .text.evt1_execute:0000000000000000 evt1_execute
     /tmp/ccLB3ATm.s:851    .data.es1:0000000000000000 .LANCHOR0
     /tmp/ccLB3ATm.s:833    .rodata.evhndl:0000000000000000 .LANCHOR1
     /tmp/ccLB3ATm.s:809    .rodata.str1.4:0000000000000000 .LC0
     /tmp/ccLB3ATm.s:118    .text.h3:0000000000000000 $t
     /tmp/ccLB3ATm.s:122    .text.h3:0000000000000000 h3
     /tmp/ccLB3ATm.s:139    .text.h2:0000000000000000 $t
     /tmp/ccLB3ATm.s:143    .text.h2:0000000000000000 h2
     /tmp/ccLB3ATm.s:160    .text.h1:0000000000000000 $t
     /tmp/ccLB3ATm.s:164    .text.h1:0000000000000000 h1
     /tmp/ccLB3ATm.s:181    .text.evt1_setup:0000000000000000 $t
     /tmp/ccLB3ATm.s:185    .text.evt1_setup:0000000000000000 evt1_setup
     /tmp/ccLB3ATm.s:200    .text.evt2_setup:0000000000000000 $t
     /tmp/ccLB3ATm.s:204    .text.evt2_setup:0000000000000000 evt2_setup
     /tmp/ccLB3ATm.s:219    .text.evt3_setup:0000000000000000 $t
     /tmp/ccLB3ATm.s:223    .text.evt3_setup:0000000000000000 evt3_setup
     /tmp/ccLB3ATm.s:238    .text.evt2_execute:0000000000000000 $t
     /tmp/ccLB3ATm.s:242    .text.evt2_execute:0000000000000000 evt2_execute
     /tmp/ccLB3ATm.s:638    .text.thread1:0000000000000000 thread1
     /tmp/ccLB3ATm.s:858    .data.es2:0000000000000000 .LANCHOR2
     /tmp/ccLB3ATm.s:811    .rodata.str1.4:0000000000000004 .LC1
     /tmp/ccLB3ATm.s:599    .text.thread2:0000000000000000 thread2
     /tmp/ccLB3ATm.s:595    .text.thread2:0000000000000000 $t
     /tmp/ccLB3ATm.s:634    .text.thread1:0000000000000000 $t
     /tmp/ccLB3ATm.s:668    .text.evt3_execute:0000000000000000 $t
     /tmp/ccLB3ATm.s:672    .text.evt3_execute:0000000000000000 evt3_execute
     /tmp/ccLB3ATm.s:793    .rodata.patternevt:0000000000000000 patternevt
     /tmp/ccLB3ATm.s:844    .rodata.testevt3:0000000000000000 testevt3
     /tmp/ccLB3ATm.s:802    .rodata.testevt2:0000000000000000 testevt2
     /tmp/ccLB3ATm.s:826    .rodata.testevt1:0000000000000000 testevt1
     /tmp/ccLB3ATm.s:790    .rodata.patternevt:0000000000000000 $d
     /tmp/ccLB3ATm.s:799    .rodata.testevt2:0000000000000000 $d
     /tmp/ccLB3ATm.s:808    .rodata.str1.4:0000000000000000 $d
     /tmp/ccLB3ATm.s:823    .rodata.testevt1:0000000000000000 $d
     /tmp/ccLB3ATm.s:832    .rodata.evhndl:0000000000000000 $d
     /tmp/ccLB3ATm.s:836    .rodata.evhndl:0000000000000000 evhndl
     /tmp/ccLB3ATm.s:841    .rodata.testevt3:0000000000000000 $d
     /tmp/ccLB3ATm.s:850    .data.es1:0000000000000000 $d
     /tmp/ccLB3ATm.s:854    .data.es1:0000000000000000 es1
     /tmp/ccLB3ATm.s:857    .data.es2:0000000000000000 $d
     /tmp/ccLB3ATm.s:861    .data.es2:0000000000000000 es2
                     .debug_frame:0000000000000010 $d

UNDEFINED SYMBOLS
chEvtRegisterMask
_test_assert
chEvtUnregister
chEvtDispatch
_test_assert_sequence
test_emit_token
chEvtGetAndClearEvents
chEvtAddEvents
chEvtWaitOne
rlist
ARM GAS  /tmp/ccLB3ATm.s 			page 84


test_wait_tick
wa
vtlist
chThdCreateStatic
threads
_test_assert_time_window
test_wait_threads
chEvtWaitAny
chEvtWaitAll
chEvtBroadcastFlags
chThdSleep
chEvtSignal
chEvtWaitOneTimeout
chEvtWaitAnyTimeout
chEvtWaitAllTimeout
